EXPORTS 
	?$TSS0@?1??cuda_category@system@thrust@@YAAEBVerror_category@23@XZ@4HA 	 DATA
	?$TSS0@?1??generic_category@system@thrust@@YAAEBVerror_category@23@XZ@4HA 	 DATA
	?$TSS0@?1??message@generic_error_category@detail@system@thrust@@UEBA?AV?$basic_string@DU?$char_traits@D@std@@V?$allocator@D@2@@std@@H@Z@4HA 	 DATA
	?$TSS0@?1??system_category@system@thrust@@YAAEBVerror_category@23@XZ@4HA 	 DATA
	??_R0?AV?$AbstractRegistry@VConfiguration@el@@V?$vector@PEAVConfiguration@el@@V?$allocator@PEAVConfiguration@el@@@std@@@std@@@utils@base@el@@@8 	 DATA
	??_R0?AV?$AbstractRegistry@VHitCounter@base@el@@V?$vector@PEAVHitCounter@base@el@@V?$allocator@PEAVHitCounter@base@el@@@std@@@std@@@utils@base@el@@@8 	 DATA
	??_R0?AV?$AbstractRegistry@VLogger@el@@V?$map@V?$basic_string@DU?$char_traits@D@std@@V?$allocator@D@2@@std@@PEAVLogger@el@@U?$less@V?$basic_string@DU?$char_traits@D@std@@V?$allocator@D@2@@std@@@2@V?$allocator@U?$pair@$$CBV?$basic_string@DU?$char_traits@D@std@@V?$allocator@D@2@@std@@PEAVLogger@el@@@std@@@2@@std@@@utils@base@el@@@8 	 DATA
	??_R0?AV?$Callback@VLogDispatchData@el@@@el@@@8 	 DATA
	??_R0?AV?$NoScopedLock@VNoMutex@internal@threading@base@el@@@internal@threading@base@el@@@8 	 DATA
	??_R0?AV?$Registry@VLogger@el@@V?$basic_string@DU?$char_traits@D@std@@V?$allocator@D@2@@std@@@utils@base@el@@@8 	 DATA
	??_R0?AV?$RegistryWithPred@VConfiguration@el@@VPredicate@12@@utils@base@el@@@8 	 DATA
	??_R0?AV?$RegistryWithPred@VHitCounter@base@el@@VPredicate@123@@utils@base@el@@@8 	 DATA
	??_R0?AV?$SyncArray@H@@@8 	 DATA
	??_R0?AV?$SyncArray@M@@@8 	 DATA
	??_R0?AV?$SyncArray@N@@@8 	 DATA
	??_R0?AV?$_Func_base@XPEBD_K@std@@@8 	 DATA
	??_R0?AV?$_Func_base@_N$$V@std@@@8 	 DATA
	??_R0?AV?$_Func_impl_no_alloc@P6AXPEBD_K@ZXPEBD_K@std@@@8 	 DATA
	??_R0?AV?$_Iosb@H@std@@@8 	 DATA
	??_R0?AV?$_Ref_count@V?$basic_fstream@DU?$char_traits@D@std@@@std@@@std@@@8 	 DATA
	??_R0?AV?$_Ref_count@VDefaultLogBuilder@base@el@@@std@@@8 	 DATA
	??_R0?AV?$_Ref_count@VDefaultLogDispatchCallback@base@el@@@std@@@8 	 DATA
	??_R0?AV?$_Ref_count@VStorage@base@el@@@std@@@8 	 DATA
	??_R0?AV?$basic_filebuf@DU?$char_traits@D@std@@@std@@@8 	 DATA
	??_R0?AV?$basic_fstream@DU?$char_traits@D@std@@@std@@@8 	 DATA
	??_R0?AV?$basic_ifstream@DU?$char_traits@D@std@@@std@@@8 	 DATA
	??_R0?AV?$basic_ios@DU?$char_traits@D@std@@@std@@@8 	 DATA
	??_R0?AV?$basic_iostream@DU?$char_traits@D@std@@@std@@@8 	 DATA
	??_R0?AV?$basic_istream@DU?$char_traits@D@std@@@std@@@8 	 DATA
	??_R0?AV?$basic_ofstream@DU?$char_traits@D@std@@@std@@@8 	 DATA
	??_R0?AV?$basic_ostream@DU?$char_traits@D@std@@@std@@@8 	 DATA
	??_R0?AV?$basic_ostringstream@DU?$char_traits@D@std@@V?$allocator@D@2@@std@@@8 	 DATA
	??_R0?AV?$basic_streambuf@DU?$char_traits@D@std@@@std@@@8 	 DATA
	??_R0?AV?$basic_stringbuf@DU?$char_traits@D@std@@V?$allocator@D@2@@std@@@8 	 DATA
	??_R0?AV?$basic_stringstream@DU?$char_traits@D@std@@V?$allocator@D@2@@std@@@8 	 DATA
	??_R0?AVAccuracy@@@8 	 DATA
	??_R0?AVCSMOSolver@@@8 	 DATA
	??_R0?AVCommandLineArgs@utils@base@el@@@8 	 DATA
	??_R0?AVConfiguration@el@@@8 	 DATA
	??_R0?AVConfigurations@el@@@8 	 DATA
	??_R0?AVDefaultLogBuilder@base@el@@@8 	 DATA
	??_R0?AVDefaultLogDispatchCallback@base@el@@@8 	 DATA
	??_R0?AVHitCounter@base@el@@@8 	 DATA
	??_R0?AVLogBuilder@el@@@8 	 DATA
	??_R0?AVLogDispatchCallback@el@@@8 	 DATA
	??_R0?AVLogFormat@base@el@@@8 	 DATA
	??_R0?AVLoggable@el@@@8 	 DATA
	??_R0?AVLogger@el@@@8 	 DATA
	??_R0?AVMSE@@@8 	 DATA
	??_R0?AVMetric@@@8 	 DATA
	??_R0?AVNoCopy@base@el@@@8 	 DATA
	??_R0?AVNuSMOSolver@@@8 	 DATA
	??_R0?AVNuSVC@@@8 	 DATA
	??_R0?AVNuSVR@@@8 	 DATA
	??_R0?AVOneClassSVC@@@8 	 DATA
	??_R0?AVPErrorWriter@base@el@@@8 	 DATA
	??_R0?AVRegisteredHitCounters@base@el@@@8 	 DATA
	??_R0?AVRegisteredLoggers@base@el@@@8 	 DATA
	??_R0?AVSVC@@@8 	 DATA
	??_R0?AVSVR@@@8 	 DATA
	??_R0?AVStorage@base@el@@@8 	 DATA
	??_R0?AVSvmModel@@@8 	 DATA
	??_R0?AVThreadSafe@threading@base@el@@@8 	 DATA
	??_R0?AVTypedConfigurations@base@el@@@8 	 DATA
	??_R0?AVVRegistry@base@el@@@8 	 DATA
	??_R0?AVWriter@base@el@@@8 	 DATA
	??_R0?AV_Ref_count_base@std@@@8 	 DATA
	??_R0?AVbad_alloc@detail@system@thrust@@@8 	 DATA
	??_R0?AVbad_alloc@std@@@8 	 DATA
	??_R0?AVbad_array_new_length@std@@@8 	 DATA
	??_R0?AVbad_cast@std@@@8 	 DATA
	??_R0?AVcuda_error_category@detail@cuda_cub@system@thrust@@@8 	 DATA
	??_R0?AVerror_category@system@thrust@@@8 	 DATA
	??_R0?AVexception@std@@@8 	 DATA
	??_R0?AVgeneric_error_category@detail@system@thrust@@@8 	 DATA
	??_R0?AVios_base@std@@@8 	 DATA
	??_R0?AVruntime_error@std@@@8 	 DATA
	??_R0?AVsystem_error@system@thrust@@@8 	 DATA
	??_R0?AVsystem_error_category@detail@system@thrust@@@8 	 DATA
	??_R0P6AXPEBD_K@Z@8 	 DATA
	?_OptionsStorage@?1??__local_stdio_printf_options@@9@4_KA 	 DATA
	?_OptionsStorage@?1??__local_stdio_scanf_options@@9@4_KA 	 DATA
	?_Psave@?$_Facetptr@V?$codecvt@DDU_Mbstatet@@@std@@@std@@2PEBVfacet@locale@2@EB 	 DATA
	?_Psave@?$_Facetptr@V?$ctype@D@std@@@std@@2PEBVfacet@locale@2@EB 	 DATA
	?_Stinit@?1??_Init@?$basic_filebuf@DU?$char_traits@D@std@@@std@@IEAAXPEAU_iobuf@@W4_Initfl@23@@Z@4U_Mbstatet@@A 	 DATA
	?cusparse_init@svm_kernel@@3_NA 	 DATA
	?dataset_python@@3VDataSet@@A 	 DATA
	?descr@svm_kernel@@3PEAUcusparseMatDescr@@EA 	 DATA
	?elCrashHandler@el@@3VCrashHandler@debug@base@1@A 	 DATA
	?elStorage@base@el@@3V?$shared_ptr@VStorage@base@el@@@std@@A 	 DATA
	?handle@svm_kernel@@3PEAUcusparseContext@@EA 	 DATA
	?kernel_type_name@SvmParam@@2PAPEBDA 	 DATA
	?result@?1??cuda_category@system@thrust@@YAAEBVerror_category@23@XZ@4Vcuda_error_category@detail@cuda_cub@23@B 	 DATA
	?result@?1??generic_category@system@thrust@@YAAEBVerror_category@23@XZ@4Vgeneric_error_category@detail@23@B 	 DATA
	?result@?1??system_category@system@thrust@@YAAEBVerror_category@23@XZ@4Vsystem_error_category@detail@23@B 	 DATA
	?svm_type_name@SvmParam@@2PAPEBDA 	 DATA
	?total_memory_size@SyncMem@thunder@@0_KA 	 DATA
	?unknown_err@?1??message@generic_error_category@detail@system@thrust@@UEBA?AV?$basic_string@DU?$char_traits@D@std@@V?$allocator@D@2@@std@@H@Z@4V67@B 	 DATA
	??$?0$$CBV?$basic_string@DU?$char_traits@D@std@@V?$allocator@D@2@@std@@V?$shared_ptr@VLogDispatchCallback@el@@@1@$0A@@?$pair@V?$basic_string@DU?$char_traits@D@std@@V?$allocator@D@2@@std@@V?$shared_ptr@VLogDispatchCallback@el@@@2@@std@@QEAA@AEBU?$pair@$$CBV?$basic_string@DU?$char_traits@D@std@@V?$allocator@D@2@@std@@V?$shared_ptr@VLogDispatchCallback@el@@@2@@1@@Z
	??$?0$$CBV?$basic_string@DU?$char_traits@D@std@@V?$allocator@D@2@@std@@V?$shared_ptr@VLoggerRegistrationCallback@el@@@1@$0A@@?$pair@V?$basic_string@DU?$char_traits@D@std@@V?$allocator@D@2@@std@@V?$shared_ptr@VLoggerRegistrationCallback@el@@@2@@std@@QEAA@AEBU?$pair@$$CBV?$basic_string@DU?$char_traits@D@std@@V?$allocator@D@2@@std@@V?$shared_ptr@VLoggerRegistrationCallback@el@@@2@@1@@Z
	??$?0$$V@?$_Compressed_pair@V?$allocator@D@std@@V?$_String_val@U?$_Simple_types@D@std@@@2@$00@std@@QEAA@U_Zero_then_variadic_args_t@1@@Z
	??$?0$$V@?$_Compressed_pair@V?$allocator@H@std@@V?$_Vector_val@U?$_Simple_types@H@std@@@2@$00@std@@QEAA@U_Zero_then_variadic_args_t@1@@Z
	??$?0$$V@?$_Compressed_pair@V?$allocator@M@std@@V?$_Vector_val@U?$_Simple_types@M@std@@@2@$00@std@@QEAA@U_Zero_then_variadic_args_t@1@@Z
	??$?0$$V@?$_Compressed_pair@V?$allocator@N@std@@V?$_Vector_val@U?$_Simple_types@N@std@@@2@$00@std@@QEAA@U_Zero_then_variadic_args_t@1@@Z
	??$?0$$V@?$_Compressed_pair@V?$allocator@PEAVConfiguration@el@@@std@@V?$_Vector_val@U?$_Simple_types@PEAVConfiguration@el@@@std@@@2@$00@std@@QEAA@U_Zero_then_variadic_args_t@1@@Z
	??$?0$$V@?$_Compressed_pair@V?$allocator@PEAVHitCounter@base@el@@@std@@V?$_Vector_val@U?$_Simple_types@PEAVHitCounter@base@el@@@std@@@2@$00@std@@QEAA@U_Zero_then_variadic_args_t@1@@Z
	??$?0$$V@?$_Compressed_pair@V?$allocator@U?$_Tree_node@U?$pair@$$CBV?$basic_string@DU?$char_traits@D@std@@V?$allocator@D@2@@std@@G@std@@PEAX@std@@@std@@V?$_Tree_val@U?$_Tree_simple_types@U?$pair@$$CBV?$basic_string@DU?$char_traits@D@std@@V?$allocator@D@2@@std@@G@std@@@std@@@2@$00@std@@QEAA@U_Zero_then_variadic_args_t@1@@Z
	??$?0$$V@?$_Compressed_pair@V?$allocator@U?$_Tree_node@U?$pair@$$CBV?$basic_string@DU?$char_traits@D@std@@V?$allocator@D@2@@std@@PEAVLogger@el@@@std@@PEAX@std@@@std@@V?$_Tree_val@U?$_Tree_simple_types@U?$pair@$$CBV?$basic_string@DU?$char_traits@D@std@@V?$allocator@D@2@@std@@PEAVLogger@el@@@std@@@std@@@2@$00@std@@QEAA@U_Zero_then_variadic_args_t@1@@Z
	??$?0$$V@?$_Compressed_pair@V?$allocator@U?$_Tree_node@U?$pair@$$CBV?$basic_string@DU?$char_traits@D@std@@V?$allocator@D@2@@std@@V12@@std@@PEAX@std@@@std@@V?$_Tree_val@U?$_Tree_simple_types@U?$pair@$$CBV?$basic_string@DU?$char_traits@D@std@@V?$allocator@D@2@@std@@V12@@std@@@std@@@2@$00@std@@QEAA@U_Zero_then_variadic_args_t@1@@Z
	??$?0$$V@?$_Compressed_pair@V?$allocator@U?$_Tree_node@U?$pair@$$CBV?$basic_string@DU?$char_traits@D@std@@V?$allocator@D@2@@std@@V?$shared_ptr@V?$basic_fstream@DU?$char_traits@D@std@@@std@@@2@@std@@PEAX@std@@@std@@V?$_Tree_val@U?$_Tree_simple_types@U?$pair@$$CBV?$basic_string@DU?$char_traits@D@std@@V?$allocator@D@2@@std@@V?$shared_ptr@V?$basic_fstream@DU?$char_traits@D@std@@@std@@@2@@std@@@std@@@2@$00@std@@QEAA@U_Zero_then_variadic_args_t@1@@Z
	??$?0$$V@?$_Compressed_pair@V?$allocator@U?$_Tree_node@U?$pair@$$CBV?$basic_string@DU?$char_traits@D@std@@V?$allocator@D@2@@std@@V?$shared_ptr@VLogDispatchCallback@el@@@2@@std@@PEAX@std@@@std@@V?$_Tree_val@U?$_Tree_simple_types@U?$pair@$$CBV?$basic_string@DU?$char_traits@D@std@@V?$allocator@D@2@@std@@V?$shared_ptr@VLogDispatchCallback@el@@@2@@std@@@std@@@2@$00@std@@QEAA@U_Zero_then_variadic_args_t@1@@Z
	??$?0$$V@?$_Compressed_pair@V?$allocator@U?$_Tree_node@U?$pair@$$CBV?$basic_string@DU?$char_traits@D@std@@V?$allocator@D@2@@std@@V?$shared_ptr@VLoggerRegistrationCallback@el@@@2@@std@@PEAX@std@@@std@@V?$_Tree_val@U?$_Tree_simple_types@U?$pair@$$CBV?$basic_string@DU?$char_traits@D@std@@V?$allocator@D@2@@std@@V?$shared_ptr@VLoggerRegistrationCallback@el@@@2@@std@@@std@@@2@$00@std@@QEAA@U_Zero_then_variadic_args_t@1@@Z
	??$?0$$V@?$_Compressed_pair@V?$allocator@U?$_Tree_node@U?$pair@$$CBV?$basic_string@DU?$char_traits@D@std@@V?$allocator@D@2@@std@@V?$shared_ptr@VPerformanceTrackingCallback@el@@@2@@std@@PEAX@std@@@std@@V?$_Tree_val@U?$_Tree_simple_types@U?$pair@$$CBV?$basic_string@DU?$char_traits@D@std@@V?$allocator@D@2@@std@@V?$shared_ptr@VPerformanceTrackingCallback@el@@@2@@std@@@std@@@2@$00@std@@QEAA@U_Zero_then_variadic_args_t@1@@Z
	??$?0$$V@?$_Compressed_pair@V?$allocator@U?$_Tree_node@U?$pair@$$CBW4Level@el@@I@std@@PEAX@std@@@std@@V?$_Tree_val@U?$_Tree_simple_types@U?$pair@$$CBW4Level@el@@I@std@@@std@@@2@$00@std@@QEAA@U_Zero_then_variadic_args_t@1@@Z
	??$?0$$V@?$_Compressed_pair@V?$allocator@U?$_Tree_node@U?$pair@$$CBW4Level@el@@V?$basic_string@DU?$char_traits@D@std@@V?$allocator@D@2@@std@@@std@@PEAX@std@@@std@@V?$_Tree_val@U?$_Tree_simple_types@U?$pair@$$CBW4Level@el@@V?$basic_string@DU?$char_traits@D@std@@V?$allocator@D@2@@std@@@std@@@std@@@2@$00@std@@QEAA@U_Zero_then_variadic_args_t@1@@Z
	??$?0$$V@?$_Compressed_pair@V?$allocator@U?$_Tree_node@U?$pair@$$CBW4Level@el@@V?$shared_ptr@V?$basic_fstream@DU?$char_traits@D@std@@@std@@@std@@@std@@PEAX@std@@@std@@V?$_Tree_val@U?$_Tree_simple_types@U?$pair@$$CBW4Level@el@@V?$shared_ptr@V?$basic_fstream@DU?$char_traits@D@std@@@std@@@std@@@std@@@std@@@2@$00@std@@QEAA@U_Zero_then_variadic_args_t@1@@Z
	??$?0$$V@?$_Compressed_pair@V?$allocator@U?$_Tree_node@U?$pair@$$CBW4Level@el@@VLogFormat@base@2@@std@@PEAX@std@@@std@@V?$_Tree_val@U?$_Tree_simple_types@U?$pair@$$CBW4Level@el@@VLogFormat@base@2@@std@@@std@@@2@$00@std@@QEAA@U_Zero_then_variadic_args_t@1@@Z
	??$?0$$V@?$_Compressed_pair@V?$allocator@U?$_Tree_node@U?$pair@$$CBW4Level@el@@VSubsecondPrecision@base@2@@std@@PEAX@std@@@std@@V?$_Tree_val@U?$_Tree_simple_types@U?$pair@$$CBW4Level@el@@VSubsecondPrecision@base@2@@std@@@std@@@2@$00@std@@QEAA@U_Zero_then_variadic_args_t@1@@Z
	??$?0$$V@?$_Compressed_pair@V?$allocator@U?$_Tree_node@U?$pair@$$CBW4Level@el@@_K@std@@PEAX@std@@@std@@V?$_Tree_val@U?$_Tree_simple_types@U?$pair@$$CBW4Level@el@@_K@std@@@std@@@2@$00@std@@QEAA@U_Zero_then_variadic_args_t@1@@Z
	??$?0$$V@?$_Compressed_pair@V?$allocator@U?$_Tree_node@U?$pair@$$CBW4Level@el@@_N@std@@PEAX@std@@@std@@V?$_Tree_val@U?$_Tree_simple_types@U?$pair@$$CBW4Level@el@@_N@std@@@std@@@2@$00@std@@QEAA@U_Zero_then_variadic_args_t@1@@Z
	??$?0$$V@?$_Compressed_pair@V?$allocator@Unode@DataSet@@@std@@V?$_Vector_val@U?$_Simple_types@Unode@DataSet@@@std@@@2@$00@std@@QEAA@U_Zero_then_variadic_args_t@1@@Z
	??$?0$$V@?$_Compressed_pair@V?$allocator@V?$basic_string@DU?$char_traits@D@std@@V?$allocator@D@2@@std@@@std@@V?$_Vector_val@U?$_Simple_types@V?$basic_string@DU?$char_traits@D@std@@V?$allocator@D@2@@std@@@std@@@2@$00@std@@QEAA@U_Zero_then_variadic_args_t@1@@Z
	??$?0$$V@?$_Compressed_pair@V?$allocator@V?$vector@Unode@DataSet@@V?$allocator@Unode@DataSet@@@std@@@std@@@std@@V?$_Vector_val@U?$_Simple_types@V?$vector@Unode@DataSet@@V?$allocator@Unode@DataSet@@@std@@@std@@@std@@@2@$00@std@@QEAA@U_Zero_then_variadic_args_t@1@@Z
	??$?0$$V@?$_Compressed_pair@V?$allocator@VCustomFormatSpecifier@el@@@std@@V?$_Vector_val@U?$_Simple_types@VCustomFormatSpecifier@el@@@std@@@2@$00@std@@QEAA@U_Zero_then_variadic_args_t@1@@Z
	??$?0AEAPEAU?$_Tree_node@U?$pair@$$CBV?$basic_string@DU?$char_traits@D@std@@V?$allocator@D@2@@std@@G@std@@PEAX@std@@_N$0A@@?$pair@PEAU?$_Tree_node@U?$pair@$$CBV?$basic_string@DU?$char_traits@D@std@@V?$allocator@D@2@@std@@G@std@@PEAX@std@@_N@std@@QEAA@AEAPEAU?$_Tree_node@U?$pair@$$CBV?$basic_string@DU?$char_traits@D@std@@V?$allocator@D@2@@std@@G@std@@PEAX@1@$$QEA_N@Z
	??$?0AEAPEAU?$_Tree_node@U?$pair@$$CBV?$basic_string@DU?$char_traits@D@std@@V?$allocator@D@2@@std@@PEAVLogger@el@@@std@@PEAX@std@@AEAPEAU01@$0A@@?$pair@PEAU?$_Tree_node@U?$pair@$$CBV?$basic_string@DU?$char_traits@D@std@@V?$allocator@D@2@@std@@PEAVLogger@el@@@std@@PEAX@std@@PEAU12@@std@@QEAA@AEAPEAU?$_Tree_node@U?$pair@$$CBV?$basic_string@DU?$char_traits@D@std@@V?$allocator@D@2@@std@@PEAVLogger@el@@@std@@PEAX@1@0@Z
	??$?0AEAPEAU?$_Tree_node@U?$pair@$$CBV?$basic_string@DU?$char_traits@D@std@@V?$allocator@D@2@@std@@PEAVLogger@el@@@std@@PEAX@std@@_N$0A@@?$pair@PEAU?$_Tree_node@U?$pair@$$CBV?$basic_string@DU?$char_traits@D@std@@V?$allocator@D@2@@std@@PEAVLogger@el@@@std@@PEAX@std@@_N@std@@QEAA@AEAPEAU?$_Tree_node@U?$pair@$$CBV?$basic_string@DU?$char_traits@D@std@@V?$allocator@D@2@@std@@PEAVLogger@el@@@std@@PEAX@1@$$QEA_N@Z
	??$?0AEAPEAU?$_Tree_node@U?$pair@$$CBV?$basic_string@DU?$char_traits@D@std@@V?$allocator@D@2@@std@@V12@@std@@PEAX@std@@_N$0A@@?$pair@PEAU?$_Tree_node@U?$pair@$$CBV?$basic_string@DU?$char_traits@D@std@@V?$allocator@D@2@@std@@V12@@std@@PEAX@std@@_N@std@@QEAA@AEAPEAU?$_Tree_node@U?$pair@$$CBV?$basic_string@DU?$char_traits@D@std@@V?$allocator@D@2@@std@@V12@@std@@PEAX@1@$$QEA_N@Z
	??$?0AEAPEAU?$_Tree_node@U?$pair@$$CBV?$basic_string@DU?$char_traits@D@std@@V?$allocator@D@2@@std@@V?$shared_ptr@V?$basic_fstream@DU?$char_traits@D@std@@@std@@@2@@std@@PEAX@std@@_N$0A@@?$pair@PEAU?$_Tree_node@U?$pair@$$CBV?$basic_string@DU?$char_traits@D@std@@V?$allocator@D@2@@std@@V?$shared_ptr@V?$basic_fstream@DU?$char_traits@D@std@@@std@@@2@@std@@PEAX@std@@_N@std@@QEAA@AEAPEAU?$_Tree_node@U?$pair@$$CBV?$basic_string@DU?$char_traits@D@std@@V?$allocator@D@2@@std@@V?$shared_ptr@V?$basic_fstream@DU?$char_traits@D@std@@@std@@@2@@std@@PEAX@1@$$QEA_N@Z
	??$?0AEAPEAU?$_Tree_node@U?$pair@$$CBV?$basic_string@DU?$char_traits@D@std@@V?$allocator@D@2@@std@@V?$shared_ptr@VLogDispatchCallback@el@@@2@@std@@PEAX@std@@_N$0A@@?$pair@PEAU?$_Tree_node@U?$pair@$$CBV?$basic_string@DU?$char_traits@D@std@@V?$allocator@D@2@@std@@V?$shared_ptr@VLogDispatchCallback@el@@@2@@std@@PEAX@std@@_N@std@@QEAA@AEAPEAU?$_Tree_node@U?$pair@$$CBV?$basic_string@DU?$char_traits@D@std@@V?$allocator@D@2@@std@@V?$shared_ptr@VLogDispatchCallback@el@@@2@@std@@PEAX@1@$$QEA_N@Z
	??$?0AEAPEAU?$_Tree_node@U?$pair@$$CBW4Level@el@@I@std@@PEAX@std@@_N$0A@@?$pair@PEAU?$_Tree_node@U?$pair@$$CBW4Level@el@@I@std@@PEAX@std@@_N@std@@QEAA@AEAPEAU?$_Tree_node@U?$pair@$$CBW4Level@el@@I@std@@PEAX@1@$$QEA_N@Z
	??$?0AEAPEAU?$_Tree_node@U?$pair@$$CBW4Level@el@@V?$basic_string@DU?$char_traits@D@std@@V?$allocator@D@2@@std@@@std@@PEAX@std@@_N$0A@@?$pair@PEAU?$_Tree_node@U?$pair@$$CBW4Level@el@@V?$basic_string@DU?$char_traits@D@std@@V?$allocator@D@2@@std@@@std@@PEAX@std@@_N@std@@QEAA@AEAPEAU?$_Tree_node@U?$pair@$$CBW4Level@el@@V?$basic_string@DU?$char_traits@D@std@@V?$allocator@D@2@@std@@@std@@PEAX@1@$$QEA_N@Z
	??$?0AEAPEAU?$_Tree_node@U?$pair@$$CBW4Level@el@@V?$shared_ptr@V?$basic_fstream@DU?$char_traits@D@std@@@std@@@std@@@std@@PEAX@std@@_N$0A@@?$pair@PEAU?$_Tree_node@U?$pair@$$CBW4Level@el@@V?$shared_ptr@V?$basic_fstream@DU?$char_traits@D@std@@@std@@@std@@@std@@PEAX@std@@_N@std@@QEAA@AEAPEAU?$_Tree_node@U?$pair@$$CBW4Level@el@@V?$shared_ptr@V?$basic_fstream@DU?$char_traits@D@std@@@std@@@std@@@std@@PEAX@1@$$QEA_N@Z
	??$?0AEAPEAU?$_Tree_node@U?$pair@$$CBW4Level@el@@VLogFormat@base@2@@std@@PEAX@std@@_N$0A@@?$pair@PEAU?$_Tree_node@U?$pair@$$CBW4Level@el@@VLogFormat@base@2@@std@@PEAX@std@@_N@std@@QEAA@AEAPEAU?$_Tree_node@U?$pair@$$CBW4Level@el@@VLogFormat@base@2@@std@@PEAX@1@$$QEA_N@Z
	??$?0AEAPEAU?$_Tree_node@U?$pair@$$CBW4Level@el@@VSubsecondPrecision@base@2@@std@@PEAX@std@@_N$0A@@?$pair@PEAU?$_Tree_node@U?$pair@$$CBW4Level@el@@VSubsecondPrecision@base@2@@std@@PEAX@std@@_N@std@@QEAA@AEAPEAU?$_Tree_node@U?$pair@$$CBW4Level@el@@VSubsecondPrecision@base@2@@std@@PEAX@1@$$QEA_N@Z
	??$?0AEAPEAU?$_Tree_node@U?$pair@$$CBW4Level@el@@_K@std@@PEAX@std@@_N$0A@@?$pair@PEAU?$_Tree_node@U?$pair@$$CBW4Level@el@@_K@std@@PEAX@std@@_N@std@@QEAA@AEAPEAU?$_Tree_node@U?$pair@$$CBW4Level@el@@_K@std@@PEAX@1@$$QEA_N@Z
	??$?0AEAPEAU?$_Tree_node@U?$pair@$$CBW4Level@el@@_N@std@@PEAX@std@@_N$0A@@?$pair@PEAU?$_Tree_node@U?$pair@$$CBW4Level@el@@_N@std@@PEAX@std@@_N@std@@QEAA@AEAPEAU?$_Tree_node@U?$pair@$$CBW4Level@el@@_N@std@@PEAX@1@$$QEA_N@Z
	??$?0AEAPEAV_Facet_base@std@@@?$_Compressed_pair@U?$default_delete@V_Facet_base@std@@@std@@PEAV_Facet_base@2@$00@std@@QEAA@U_Zero_then_variadic_args_t@1@AEAPEAV_Facet_base@1@@Z
	??$?0AEAV?$basic_string@DU?$char_traits@D@std@@V?$allocator@D@2@@std@@V01@$0A@@?$pair@V?$basic_string@DU?$char_traits@D@std@@V?$allocator@D@2@@std@@V12@@std@@QEAA@AEAV?$basic_string@DU?$char_traits@D@std@@V?$allocator@D@2@@1@$$QEAV21@@Z
	??$?0AEAV?$basic_string@DU?$char_traits@D@std@@V?$allocator@D@2@@std@@V?$shared_ptr@V?$basic_fstream@DU?$char_traits@D@std@@@std@@@1@$0A@@?$pair@V?$basic_string@DU?$char_traits@D@std@@V?$allocator@D@2@@std@@V?$shared_ptr@V?$basic_fstream@DU?$char_traits@D@std@@@std@@@2@@std@@QEAA@AEAV?$basic_string@DU?$char_traits@D@std@@V?$allocator@D@2@@1@$$QEAV?$shared_ptr@V?$basic_fstream@DU?$char_traits@D@std@@@std@@@1@@Z
	??$?0AEAW4Level@el@@AEAV?$basic_string@DU?$char_traits@D@std@@V?$allocator@D@2@@std@@$0A@@?$pair@W4Level@el@@V?$basic_string@DU?$char_traits@D@std@@V?$allocator@D@2@@std@@@std@@QEAA@AEAW4Level@el@@AEAV?$basic_string@DU?$char_traits@D@std@@V?$allocator@D@2@@1@@Z
	??$?0AEAW4Level@el@@AEBV?$basic_string@DU?$char_traits@D@std@@V?$allocator@D@2@@std@@$0A@@?$pair@W4Level@el@@V?$basic_string@DU?$char_traits@D@std@@V?$allocator@D@2@@std@@@std@@QEAA@AEAW4Level@el@@AEBV?$basic_string@DU?$char_traits@D@std@@V?$allocator@D@2@@1@@Z
	??$?0AEAW4Level@el@@AEBVLogFormat@base@1@$0A@@?$pair@W4Level@el@@VLogFormat@base@2@@std@@QEAA@AEAW4Level@el@@AEBVLogFormat@base@3@@Z
	??$?0AEAW4Level@el@@AEBVSubsecondPrecision@base@1@$0A@@?$pair@W4Level@el@@VSubsecondPrecision@base@2@@std@@QEAA@AEAW4Level@el@@AEBVSubsecondPrecision@base@3@@Z
	??$?0AEAW4Level@el@@AEB_K$0A@@?$pair@W4Level@el@@_K@std@@QEAA@AEAW4Level@el@@AEB_K@Z
	??$?0AEAW4Level@el@@AEB_N$0A@@?$pair@W4Level@el@@_N@std@@QEAA@AEAW4Level@el@@AEB_N@Z
	??$?0AEAW4Level@el@@V?$shared_ptr@V?$basic_fstream@DU?$char_traits@D@std@@@std@@@std@@$0A@@?$pair@W4Level@el@@V?$shared_ptr@V?$basic_fstream@DU?$char_traits@D@std@@@std@@@std@@@std@@QEAA@AEAW4Level@el@@$$QEAV?$shared_ptr@V?$basic_fstream@DU?$char_traits@D@std@@@std@@@1@@Z
	??$?0AEBQ6AXPEBD_K@Z$0A@@?$_Func_impl_no_alloc@P6AXPEBD_K@ZXPEBD_K@std@@QEAA@AEBQ6AXPEBD_K@Z@Z
	??$?0AEBU?$less@V?$basic_string@DU?$char_traits@D@std@@V?$allocator@D@2@@std@@@std@@U_Zero_then_variadic_args_t@1@@?$_Compressed_pair@U?$less@V?$basic_string@DU?$char_traits@D@std@@V?$allocator@D@2@@std@@@std@@V?$_Compressed_pair@V?$allocator@U?$_Tree_node@U?$pair@$$CBV?$basic_string@DU?$char_traits@D@std@@V?$allocator@D@2@@std@@G@std@@PEAX@std@@@std@@V?$_Tree_val@U?$_Tree_simple_types@U?$pair@$$CBV?$basic_string@DU?$char_traits@D@std@@V?$allocator@D@2@@std@@G@std@@@std@@@2@$00@2@$00@std@@QEAA@U_One_then_variadic_args_t@1@AEBU?$less@V?$basic_string@DU?$char_traits@D@std@@V?$allocator@D@2@@std@@@1@$$QEAU_Zero_then_variadic_args_t@1@@Z
	??$?0AEBU?$less@V?$basic_string@DU?$char_traits@D@std@@V?$allocator@D@2@@std@@@std@@U_Zero_then_variadic_args_t@1@@?$_Compressed_pair@U?$less@V?$basic_string@DU?$char_traits@D@std@@V?$allocator@D@2@@std@@@std@@V?$_Compressed_pair@V?$allocator@U?$_Tree_node@U?$pair@$$CBV?$basic_string@DU?$char_traits@D@std@@V?$allocator@D@2@@std@@PEAVLogger@el@@@std@@PEAX@std@@@std@@V?$_Tree_val@U?$_Tree_simple_types@U?$pair@$$CBV?$basic_string@DU?$char_traits@D@std@@V?$allocator@D@2@@std@@PEAVLogger@el@@@std@@@std@@@2@$00@2@$00@std@@QEAA@U_One_then_variadic_args_t@1@AEBU?$less@V?$basic_string@DU?$char_traits@D@std@@V?$allocator@D@2@@std@@@1@$$QEAU_Zero_then_variadic_args_t@1@@Z
	??$?0AEBU?$less@V?$basic_string@DU?$char_traits@D@std@@V?$allocator@D@2@@std@@@std@@U_Zero_then_variadic_args_t@1@@?$_Compressed_pair@U?$less@V?$basic_string@DU?$char_traits@D@std@@V?$allocator@D@2@@std@@@std@@V?$_Compressed_pair@V?$allocator@U?$_Tree_node@U?$pair@$$CBV?$basic_string@DU?$char_traits@D@std@@V?$allocator@D@2@@std@@V12@@std@@PEAX@std@@@std@@V?$_Tree_val@U?$_Tree_simple_types@U?$pair@$$CBV?$basic_string@DU?$char_traits@D@std@@V?$allocator@D@2@@std@@V12@@std@@@std@@@2@$00@2@$00@std@@QEAA@U_One_then_variadic_args_t@1@AEBU?$less@V?$basic_string@DU?$char_traits@D@std@@V?$allocator@D@2@@std@@@1@$$QEAU_Zero_then_variadic_args_t@1@@Z
	??$?0AEBU?$less@V?$basic_string@DU?$char_traits@D@std@@V?$allocator@D@2@@std@@@std@@U_Zero_then_variadic_args_t@1@@?$_Compressed_pair@U?$less@V?$basic_string@DU?$char_traits@D@std@@V?$allocator@D@2@@std@@@std@@V?$_Compressed_pair@V?$allocator@U?$_Tree_node@U?$pair@$$CBV?$basic_string@DU?$char_traits@D@std@@V?$allocator@D@2@@std@@V?$shared_ptr@V?$basic_fstream@DU?$char_traits@D@std@@@std@@@2@@std@@PEAX@std@@@std@@V?$_Tree_val@U?$_Tree_simple_types@U?$pair@$$CBV?$basic_string@DU?$char_traits@D@std@@V?$allocator@D@2@@std@@V?$shared_ptr@V?$basic_fstream@DU?$char_traits@D@std@@@std@@@2@@std@@@std@@@2@$00@2@$00@std@@QEAA@U_One_then_variadic_args_t@1@AEBU?$less@V?$basic_string@DU?$char_traits@D@std@@V?$allocator@D@2@@std@@@1@$$QEAU_Zero_then_variadic_args_t@1@@Z
	??$?0AEBU?$less@V?$basic_string@DU?$char_traits@D@std@@V?$allocator@D@2@@std@@@std@@U_Zero_then_variadic_args_t@1@@?$_Compressed_pair@U?$less@V?$basic_string@DU?$char_traits@D@std@@V?$allocator@D@2@@std@@@std@@V?$_Compressed_pair@V?$allocator@U?$_Tree_node@U?$pair@$$CBV?$basic_string@DU?$char_traits@D@std@@V?$allocator@D@2@@std@@V?$shared_ptr@VLogDispatchCallback@el@@@2@@std@@PEAX@std@@@std@@V?$_Tree_val@U?$_Tree_simple_types@U?$pair@$$CBV?$basic_string@DU?$char_traits@D@std@@V?$allocator@D@2@@std@@V?$shared_ptr@VLogDispatchCallback@el@@@2@@std@@@std@@@2@$00@2@$00@std@@QEAA@U_One_then_variadic_args_t@1@AEBU?$less@V?$basic_string@DU?$char_traits@D@std@@V?$allocator@D@2@@std@@@1@$$QEAU_Zero_then_variadic_args_t@1@@Z
	??$?0AEBU?$less@V?$basic_string@DU?$char_traits@D@std@@V?$allocator@D@2@@std@@@std@@U_Zero_then_variadic_args_t@1@@?$_Compressed_pair@U?$less@V?$basic_string@DU?$char_traits@D@std@@V?$allocator@D@2@@std@@@std@@V?$_Compressed_pair@V?$allocator@U?$_Tree_node@U?$pair@$$CBV?$basic_string@DU?$char_traits@D@std@@V?$allocator@D@2@@std@@V?$shared_ptr@VLoggerRegistrationCallback@el@@@2@@std@@PEAX@std@@@std@@V?$_Tree_val@U?$_Tree_simple_types@U?$pair@$$CBV?$basic_string@DU?$char_traits@D@std@@V?$allocator@D@2@@std@@V?$shared_ptr@VLoggerRegistrationCallback@el@@@2@@std@@@std@@@2@$00@2@$00@std@@QEAA@U_One_then_variadic_args_t@1@AEBU?$less@V?$basic_string@DU?$char_traits@D@std@@V?$allocator@D@2@@std@@@1@$$QEAU_Zero_then_variadic_args_t@1@@Z
	??$?0AEBU?$less@V?$basic_string@DU?$char_traits@D@std@@V?$allocator@D@2@@std@@@std@@U_Zero_then_variadic_args_t@1@@?$_Compressed_pair@U?$less@V?$basic_string@DU?$char_traits@D@std@@V?$allocator@D@2@@std@@@std@@V?$_Compressed_pair@V?$allocator@U?$_Tree_node@U?$pair@$$CBV?$basic_string@DU?$char_traits@D@std@@V?$allocator@D@2@@std@@V?$shared_ptr@VPerformanceTrackingCallback@el@@@2@@std@@PEAX@std@@@std@@V?$_Tree_val@U?$_Tree_simple_types@U?$pair@$$CBV?$basic_string@DU?$char_traits@D@std@@V?$allocator@D@2@@std@@V?$shared_ptr@VPerformanceTrackingCallback@el@@@2@@std@@@std@@@2@$00@2@$00@std@@QEAA@U_One_then_variadic_args_t@1@AEBU?$less@V?$basic_string@DU?$char_traits@D@std@@V?$allocator@D@2@@std@@@1@$$QEAU_Zero_then_variadic_args_t@1@@Z
	??$?0AEBU?$less@W4Level@el@@@std@@U_Zero_then_variadic_args_t@1@@?$_Compressed_pair@U?$less@W4Level@el@@@std@@V?$_Compressed_pair@V?$allocator@U?$_Tree_node@U?$pair@$$CBW4Level@el@@I@std@@PEAX@std@@@std@@V?$_Tree_val@U?$_Tree_simple_types@U?$pair@$$CBW4Level@el@@I@std@@@std@@@2@$00@2@$00@std@@QEAA@U_One_then_variadic_args_t@1@AEBU?$less@W4Level@el@@@1@$$QEAU_Zero_then_variadic_args_t@1@@Z
	??$?0AEBU?$less@W4Level@el@@@std@@U_Zero_then_variadic_args_t@1@@?$_Compressed_pair@U?$less@W4Level@el@@@std@@V?$_Compressed_pair@V?$allocator@U?$_Tree_node@U?$pair@$$CBW4Level@el@@V?$basic_string@DU?$char_traits@D@std@@V?$allocator@D@2@@std@@@std@@PEAX@std@@@std@@V?$_Tree_val@U?$_Tree_simple_types@U?$pair@$$CBW4Level@el@@V?$basic_string@DU?$char_traits@D@std@@V?$allocator@D@2@@std@@@std@@@std@@@2@$00@2@$00@std@@QEAA@U_One_then_variadic_args_t@1@AEBU?$less@W4Level@el@@@1@$$QEAU_Zero_then_variadic_args_t@1@@Z
	??$?0AEBU?$less@W4Level@el@@@std@@U_Zero_then_variadic_args_t@1@@?$_Compressed_pair@U?$less@W4Level@el@@@std@@V?$_Compressed_pair@V?$allocator@U?$_Tree_node@U?$pair@$$CBW4Level@el@@V?$shared_ptr@V?$basic_fstream@DU?$char_traits@D@std@@@std@@@std@@@std@@PEAX@std@@@std@@V?$_Tree_val@U?$_Tree_simple_types@U?$pair@$$CBW4Level@el@@V?$shared_ptr@V?$basic_fstream@DU?$char_traits@D@std@@@std@@@std@@@std@@@std@@@2@$00@2@$00@std@@QEAA@U_One_then_variadic_args_t@1@AEBU?$less@W4Level@el@@@1@$$QEAU_Zero_then_variadic_args_t@1@@Z
	??$?0AEBU?$less@W4Level@el@@@std@@U_Zero_then_variadic_args_t@1@@?$_Compressed_pair@U?$less@W4Level@el@@@std@@V?$_Compressed_pair@V?$allocator@U?$_Tree_node@U?$pair@$$CBW4Level@el@@VLogFormat@base@2@@std@@PEAX@std@@@std@@V?$_Tree_val@U?$_Tree_simple_types@U?$pair@$$CBW4Level@el@@VLogFormat@base@2@@std@@@std@@@2@$00@2@$00@std@@QEAA@U_One_then_variadic_args_t@1@AEBU?$less@W4Level@el@@@1@$$QEAU_Zero_then_variadic_args_t@1@@Z
	??$?0AEBU?$less@W4Level@el@@@std@@U_Zero_then_variadic_args_t@1@@?$_Compressed_pair@U?$less@W4Level@el@@@std@@V?$_Compressed_pair@V?$allocator@U?$_Tree_node@U?$pair@$$CBW4Level@el@@VSubsecondPrecision@base@2@@std@@PEAX@std@@@std@@V?$_Tree_val@U?$_Tree_simple_types@U?$pair@$$CBW4Level@el@@VSubsecondPrecision@base@2@@std@@@std@@@2@$00@2@$00@std@@QEAA@U_One_then_variadic_args_t@1@AEBU?$less@W4Level@el@@@1@$$QEAU_Zero_then_variadic_args_t@1@@Z
	??$?0AEBU?$less@W4Level@el@@@std@@U_Zero_then_variadic_args_t@1@@?$_Compressed_pair@U?$less@W4Level@el@@@std@@V?$_Compressed_pair@V?$allocator@U?$_Tree_node@U?$pair@$$CBW4Level@el@@_K@std@@PEAX@std@@@std@@V?$_Tree_val@U?$_Tree_simple_types@U?$pair@$$CBW4Level@el@@_K@std@@@std@@@2@$00@2@$00@std@@QEAA@U_One_then_variadic_args_t@1@AEBU?$less@W4Level@el@@@1@$$QEAU_Zero_then_variadic_args_t@1@@Z
	??$?0AEBU?$less@W4Level@el@@@std@@U_Zero_then_variadic_args_t@1@@?$_Compressed_pair@U?$less@W4Level@el@@@std@@V?$_Compressed_pair@V?$allocator@U?$_Tree_node@U?$pair@$$CBW4Level@el@@_N@std@@PEAX@std@@@std@@V?$_Tree_val@U?$_Tree_simple_types@U?$pair@$$CBW4Level@el@@_N@std@@@std@@@2@$00@2@$00@std@@QEAA@U_One_then_variadic_args_t@1@AEBU?$less@W4Level@el@@@1@$$QEAU_Zero_then_variadic_args_t@1@@Z
	??$?0AEBV?$allocator@D@std@@$$V@?$_Compressed_pair@V?$allocator@D@std@@V?$_String_val@U?$_Simple_types@D@std@@@2@$00@std@@QEAA@U_One_then_variadic_args_t@1@AEBV?$allocator@D@1@@Z
	??$?0AEBV?$allocator@H@std@@$$V@?$_Compressed_pair@V?$allocator@H@std@@V?$_Vector_val@U?$_Simple_types@H@std@@@2@$00@std@@QEAA@U_One_then_variadic_args_t@1@AEBV?$allocator@H@1@@Z
	??$?0AEBV?$allocator@I@std@@$$V@?$_Compressed_pair@V?$allocator@I@std@@V?$_Vector_val@U?$_Simple_types@I@std@@@2@$00@std@@QEAA@U_One_then_variadic_args_t@1@AEBV?$allocator@I@1@@Z
	??$?0AEBV?$allocator@N@std@@$$V@?$_Compressed_pair@V?$allocator@N@std@@V?$_Vector_val@U?$_Simple_types@N@std@@@2@$00@std@@QEAA@U_One_then_variadic_args_t@1@AEBV?$allocator@N@1@@Z
	??$?0AEBV?$allocator@V?$SyncArray@N@@@std@@$$V@?$_Compressed_pair@V?$allocator@V?$SyncArray@N@@@std@@V?$_Vector_val@U?$_Simple_types@V?$SyncArray@N@@@std@@@2@$00@std@@QEAA@U_One_then_variadic_args_t@1@AEBV?$allocator@V?$SyncArray@N@@@1@@Z
	??$?0AEBV?$allocator@V?$vector@NV?$allocator@N@std@@@std@@@std@@$$V@?$_Compressed_pair@V?$allocator@V?$vector@NV?$allocator@N@std@@@std@@@std@@V?$_Vector_val@U?$_Simple_types@V?$vector@NV?$allocator@N@std@@@std@@@std@@@2@$00@std@@QEAA@U_One_then_variadic_args_t@1@AEBV?$allocator@V?$vector@NV?$allocator@N@std@@@std@@@1@@Z
	??$?0AEBV?$allocator@V?$vector@Unode@DataSet@@V?$allocator@Unode@DataSet@@@std@@@std@@@std@@$$V@?$_Compressed_pair@V?$allocator@V?$vector@Unode@DataSet@@V?$allocator@Unode@DataSet@@@std@@@std@@@std@@V?$_Vector_val@U?$_Simple_types@V?$vector@Unode@DataSet@@V?$allocator@Unode@DataSet@@@std@@@std@@@std@@@2@$00@std@@QEAA@U_One_then_variadic_args_t@1@AEBV?$allocator@V?$vector@Unode@DataSet@@V?$allocator@Unode@DataSet@@@std@@@std@@@1@@Z
	??$?0AEBV?$allocator@V?$vector@V?$vector@Unode@DataSet@@V?$allocator@Unode@DataSet@@@std@@@std@@V?$allocator@V?$vector@Unode@DataSet@@V?$allocator@Unode@DataSet@@@std@@@std@@@2@@std@@@std@@$$V@?$_Compressed_pair@V?$allocator@V?$vector@V?$vector@Unode@DataSet@@V?$allocator@Unode@DataSet@@@std@@@std@@V?$allocator@V?$vector@Unode@DataSet@@V?$allocator@Unode@DataSet@@@std@@@std@@@2@@std@@@std@@V?$_Vector_val@U?$_Simple_types@V?$vector@V?$vector@Unode@DataSet@@V?$allocator@Unode@DataSet@@@std@@@std@@V?$allocator@V?$vector@Unode@DataSet@@V?$allocator@Unode@DataSet@@@std@@@std@@@2@@std@@@std@@@2@$00@std@@QEAA@U_One_then_variadic_args_t@1@AEBV?$allocator@V?$vector@V?$vector@Unode@DataSet@@V?$allocator@Unode@DataSet@@@std@@@std@@V?$allocator@V?$vector@Unode@DataSet@@V?$allocator@Unode@DataSet@@@std@@@std@@@2@@std@@@1@@Z
	??$?0AEBV?$basic_string@DU?$char_traits@D@std@@V?$allocator@D@2@@std@@AEAPEAVLogger@el@@$0A@@?$pair@V?$basic_string@DU?$char_traits@D@std@@V?$allocator@D@2@@std@@PEAVLogger@el@@@std@@QEAA@AEBV?$basic_string@DU?$char_traits@D@std@@V?$allocator@D@2@@1@AEAPEAVLogger@el@@@Z
	??$?0AEBV?$basic_string@DU?$char_traits@D@std@@V?$allocator@D@2@@std@@V?$shared_ptr@VLogDispatchCallback@el@@@1@$0A@@?$pair@V?$basic_string@DU?$char_traits@D@std@@V?$allocator@D@2@@std@@V?$shared_ptr@VLogDispatchCallback@el@@@2@@std@@QEAA@AEBV?$basic_string@DU?$char_traits@D@std@@V?$allocator@D@2@@1@$$QEAV?$shared_ptr@VLogDispatchCallback@el@@@1@@Z
	??$?0D@?$allocator@U_Container_proxy@std@@@std@@QEAA@AEBV?$allocator@D@1@@Z
	??$?0E@?$pointer@EUpar_t@cuda_cub@thrust@@Uuse_default@3@U43@@thrust@@QEAA@PEAE@Z
	??$?0H@?$allocator@U_Container_proxy@std@@@std@@QEAA@AEBV?$allocator@H@1@@Z
	??$?0I@?$allocator@U_Container_proxy@std@@@std@@QEAA@AEBV?$allocator@I@1@@Z
	??$?0M@?$allocator@U_Container_proxy@std@@@std@@QEAA@AEBV?$allocator@M@1@@Z
	??$?0N@?$allocator@U_Container_proxy@std@@@std@@QEAA@AEBV?$allocator@N@1@@Z
	??$?0P6AXPEBD_K@Z$0A@@?$_Func_impl_no_alloc@P6AXPEBD_K@ZXPEBD_K@std@@QEAA@$$QEAP6AXPEBD_K@Z@Z
	??$?0P6AXPEBD_K@Z$0A@@?$function@$$A6AXPEBD_K@Z@std@@QEAA@P6AXPEBD_K@Z@Z
	??$?0PEAD$0A@@?$basic_string@DU?$char_traits@D@std@@V?$allocator@D@2@@std@@QEAA@PEAD0AEBV?$allocator@D@1@@Z
	??$?0PEAU?$_Tree_node@U?$pair@$$CBV?$basic_string@DU?$char_traits@D@std@@V?$allocator@D@2@@std@@G@std@@PEAX@std@@_N$0A@@?$pair@PEAU?$_Tree_node@U?$pair@$$CBV?$basic_string@DU?$char_traits@D@std@@V?$allocator@D@2@@std@@G@std@@PEAX@std@@_N@std@@QEAA@$$QEAPEAU?$_Tree_node@U?$pair@$$CBV?$basic_string@DU?$char_traits@D@std@@V?$allocator@D@2@@std@@G@std@@PEAX@1@$$QEA_N@Z
	??$?0PEAU?$_Tree_node@U?$pair@$$CBV?$basic_string@DU?$char_traits@D@std@@V?$allocator@D@2@@std@@PEAVLogger@el@@@std@@PEAX@std@@_N$0A@@?$pair@PEAU?$_Tree_node@U?$pair@$$CBV?$basic_string@DU?$char_traits@D@std@@V?$allocator@D@2@@std@@PEAVLogger@el@@@std@@PEAX@std@@_N@std@@QEAA@$$QEAPEAU?$_Tree_node@U?$pair@$$CBV?$basic_string@DU?$char_traits@D@std@@V?$allocator@D@2@@std@@PEAVLogger@el@@@std@@PEAX@1@$$QEA_N@Z
	??$?0PEAU?$_Tree_node@U?$pair@$$CBV?$basic_string@DU?$char_traits@D@std@@V?$allocator@D@2@@std@@V12@@std@@PEAX@std@@_N$0A@@?$pair@PEAU?$_Tree_node@U?$pair@$$CBV?$basic_string@DU?$char_traits@D@std@@V?$allocator@D@2@@std@@V12@@std@@PEAX@std@@_N@std@@QEAA@$$QEAPEAU?$_Tree_node@U?$pair@$$CBV?$basic_string@DU?$char_traits@D@std@@V?$allocator@D@2@@std@@V12@@std@@PEAX@1@$$QEA_N@Z
	??$?0PEAU?$_Tree_node@U?$pair@$$CBV?$basic_string@DU?$char_traits@D@std@@V?$allocator@D@2@@std@@V?$shared_ptr@V?$basic_fstream@DU?$char_traits@D@std@@@std@@@2@@std@@PEAX@std@@_N$0A@@?$pair@PEAU?$_Tree_node@U?$pair@$$CBV?$basic_string@DU?$char_traits@D@std@@V?$allocator@D@2@@std@@V?$shared_ptr@V?$basic_fstream@DU?$char_traits@D@std@@@std@@@2@@std@@PEAX@std@@_N@std@@QEAA@$$QEAPEAU?$_Tree_node@U?$pair@$$CBV?$basic_string@DU?$char_traits@D@std@@V?$allocator@D@2@@std@@V?$shared_ptr@V?$basic_fstream@DU?$char_traits@D@std@@@std@@@2@@std@@PEAX@1@$$QEA_N@Z
	??$?0PEAU?$_Tree_node@U?$pair@$$CBV?$basic_string@DU?$char_traits@D@std@@V?$allocator@D@2@@std@@V?$shared_ptr@VLogDispatchCallback@el@@@2@@std@@PEAX@std@@_N$0A@@?$pair@PEAU?$_Tree_node@U?$pair@$$CBV?$basic_string@DU?$char_traits@D@std@@V?$allocator@D@2@@std@@V?$shared_ptr@VLogDispatchCallback@el@@@2@@std@@PEAX@std@@_N@std@@QEAA@$$QEAPEAU?$_Tree_node@U?$pair@$$CBV?$basic_string@DU?$char_traits@D@std@@V?$allocator@D@2@@std@@V?$shared_ptr@VLogDispatchCallback@el@@@2@@std@@PEAX@1@$$QEA_N@Z
	??$?0PEAU?$_Tree_node@U?$pair@$$CBW4Level@el@@I@std@@PEAX@std@@_N$0A@@?$pair@PEAU?$_Tree_node@U?$pair@$$CBW4Level@el@@I@std@@PEAX@std@@_N@std@@QEAA@$$QEAPEAU?$_Tree_node@U?$pair@$$CBW4Level@el@@I@std@@PEAX@1@$$QEA_N@Z
	??$?0PEAU?$_Tree_node@U?$pair@$$CBW4Level@el@@V?$basic_string@DU?$char_traits@D@std@@V?$allocator@D@2@@std@@@std@@PEAX@std@@_N$0A@@?$pair@PEAU?$_Tree_node@U?$pair@$$CBW4Level@el@@V?$basic_string@DU?$char_traits@D@std@@V?$allocator@D@2@@std@@@std@@PEAX@std@@_N@std@@QEAA@$$QEAPEAU?$_Tree_node@U?$pair@$$CBW4Level@el@@V?$basic_string@DU?$char_traits@D@std@@V?$allocator@D@2@@std@@@std@@PEAX@1@$$QEA_N@Z
	??$?0PEAU?$_Tree_node@U?$pair@$$CBW4Level@el@@V?$shared_ptr@V?$basic_fstream@DU?$char_traits@D@std@@@std@@@std@@@std@@PEAX@std@@_N$0A@@?$pair@PEAU?$_Tree_node@U?$pair@$$CBW4Level@el@@V?$shared_ptr@V?$basic_fstream@DU?$char_traits@D@std@@@std@@@std@@@std@@PEAX@std@@_N@std@@QEAA@$$QEAPEAU?$_Tree_node@U?$pair@$$CBW4Level@el@@V?$shared_ptr@V?$basic_fstream@DU?$char_traits@D@std@@@std@@@std@@@std@@PEAX@1@$$QEA_N@Z
	??$?0PEAU?$_Tree_node@U?$pair@$$CBW4Level@el@@VLogFormat@base@2@@std@@PEAX@std@@_N$0A@@?$pair@PEAU?$_Tree_node@U?$pair@$$CBW4Level@el@@VLogFormat@base@2@@std@@PEAX@std@@_N@std@@QEAA@$$QEAPEAU?$_Tree_node@U?$pair@$$CBW4Level@el@@VLogFormat@base@2@@std@@PEAX@1@$$QEA_N@Z
	??$?0PEAU?$_Tree_node@U?$pair@$$CBW4Level@el@@VSubsecondPrecision@base@2@@std@@PEAX@std@@_N$0A@@?$pair@PEAU?$_Tree_node@U?$pair@$$CBW4Level@el@@VSubsecondPrecision@base@2@@std@@PEAX@std@@_N@std@@QEAA@$$QEAPEAU?$_Tree_node@U?$pair@$$CBW4Level@el@@VSubsecondPrecision@base@2@@std@@PEAX@1@$$QEA_N@Z
	??$?0PEAU?$_Tree_node@U?$pair@$$CBW4Level@el@@_K@std@@PEAX@std@@_N$0A@@?$pair@PEAU?$_Tree_node@U?$pair@$$CBW4Level@el@@_K@std@@PEAX@std@@_N@std@@QEAA@$$QEAPEAU?$_Tree_node@U?$pair@$$CBW4Level@el@@_K@std@@PEAX@1@$$QEA_N@Z
	??$?0PEAU?$_Tree_node@U?$pair@$$CBW4Level@el@@_N@std@@PEAX@std@@_N$0A@@?$pair@PEAU?$_Tree_node@U?$pair@$$CBW4Level@el@@_N@std@@PEAX@std@@_N@std@@QEAA@$$QEAPEAU?$_Tree_node@U?$pair@$$CBW4Level@el@@_N@std@@PEAX@1@$$QEA_N@Z
	??$?0PEAVConfiguration@el@@@?$allocator@U_Container_proxy@std@@@std@@QEAA@AEBV?$allocator@PEAVConfiguration@el@@@1@@Z
	??$?0PEAVHitCounter@base@el@@@?$allocator@U_Container_proxy@std@@@std@@QEAA@AEBV?$allocator@PEAVHitCounter@base@el@@@1@@Z
	??$?0U?$_Tree_node@U?$pair@$$CBV?$basic_string@DU?$char_traits@D@std@@V?$allocator@D@2@@std@@G@std@@PEAX@std@@@?$allocator@U_Container_proxy@std@@@std@@QEAA@AEBV?$allocator@U?$_Tree_node@U?$pair@$$CBV?$basic_string@DU?$char_traits@D@std@@V?$allocator@D@2@@std@@G@std@@PEAX@std@@@1@@Z
	??$?0U?$_Tree_node@U?$pair@$$CBV?$basic_string@DU?$char_traits@D@std@@V?$allocator@D@2@@std@@PEAVLogger@el@@@std@@PEAX@std@@@?$allocator@U_Container_proxy@std@@@std@@QEAA@AEBV?$allocator@U?$_Tree_node@U?$pair@$$CBV?$basic_string@DU?$char_traits@D@std@@V?$allocator@D@2@@std@@PEAVLogger@el@@@std@@PEAX@std@@@1@@Z
	??$?0U?$_Tree_node@U?$pair@$$CBV?$basic_string@DU?$char_traits@D@std@@V?$allocator@D@2@@std@@V12@@std@@PEAX@std@@@?$allocator@U_Container_proxy@std@@@std@@QEAA@AEBV?$allocator@U?$_Tree_node@U?$pair@$$CBV?$basic_string@DU?$char_traits@D@std@@V?$allocator@D@2@@std@@V12@@std@@PEAX@std@@@1@@Z
	??$?0U?$_Tree_node@U?$pair@$$CBV?$basic_string@DU?$char_traits@D@std@@V?$allocator@D@2@@std@@V?$shared_ptr@V?$basic_fstream@DU?$char_traits@D@std@@@std@@@2@@std@@PEAX@std@@@?$allocator@U_Container_proxy@std@@@std@@QEAA@AEBV?$allocator@U?$_Tree_node@U?$pair@$$CBV?$basic_string@DU?$char_traits@D@std@@V?$allocator@D@2@@std@@V?$shared_ptr@V?$basic_fstream@DU?$char_traits@D@std@@@std@@@2@@std@@PEAX@std@@@1@@Z
	??$?0U?$_Tree_node@U?$pair@$$CBV?$basic_string@DU?$char_traits@D@std@@V?$allocator@D@2@@std@@V?$shared_ptr@VLogDispatchCallback@el@@@2@@std@@PEAX@std@@@?$allocator@U_Container_proxy@std@@@std@@QEAA@AEBV?$allocator@U?$_Tree_node@U?$pair@$$CBV?$basic_string@DU?$char_traits@D@std@@V?$allocator@D@2@@std@@V?$shared_ptr@VLogDispatchCallback@el@@@2@@std@@PEAX@std@@@1@@Z
	??$?0U?$_Tree_node@U?$pair@$$CBV?$basic_string@DU?$char_traits@D@std@@V?$allocator@D@2@@std@@V?$shared_ptr@VLoggerRegistrationCallback@el@@@2@@std@@PEAX@std@@@?$allocator@U_Container_proxy@std@@@std@@QEAA@AEBV?$allocator@U?$_Tree_node@U?$pair@$$CBV?$basic_string@DU?$char_traits@D@std@@V?$allocator@D@2@@std@@V?$shared_ptr@VLoggerRegistrationCallback@el@@@2@@std@@PEAX@std@@@1@@Z
	??$?0U?$_Tree_node@U?$pair@$$CBV?$basic_string@DU?$char_traits@D@std@@V?$allocator@D@2@@std@@V?$shared_ptr@VPerformanceTrackingCallback@el@@@2@@std@@PEAX@std@@@?$allocator@U_Container_proxy@std@@@std@@QEAA@AEBV?$allocator@U?$_Tree_node@U?$pair@$$CBV?$basic_string@DU?$char_traits@D@std@@V?$allocator@D@2@@std@@V?$shared_ptr@VPerformanceTrackingCallback@el@@@2@@std@@PEAX@std@@@1@@Z
	??$?0U?$_Tree_node@U?$pair@$$CBW4Level@el@@I@std@@PEAX@std@@@?$allocator@U_Container_proxy@std@@@std@@QEAA@AEBV?$allocator@U?$_Tree_node@U?$pair@$$CBW4Level@el@@I@std@@PEAX@std@@@1@@Z
	??$?0U?$_Tree_node@U?$pair@$$CBW4Level@el@@V?$basic_string@DU?$char_traits@D@std@@V?$allocator@D@2@@std@@@std@@PEAX@std@@@?$allocator@U_Container_proxy@std@@@std@@QEAA@AEBV?$allocator@U?$_Tree_node@U?$pair@$$CBW4Level@el@@V?$basic_string@DU?$char_traits@D@std@@V?$allocator@D@2@@std@@@std@@PEAX@std@@@1@@Z
	??$?0U?$_Tree_node@U?$pair@$$CBW4Level@el@@V?$shared_ptr@V?$basic_fstream@DU?$char_traits@D@std@@@std@@@std@@@std@@PEAX@std@@@?$allocator@U_Container_proxy@std@@@std@@QEAA@AEBV?$allocator@U?$_Tree_node@U?$pair@$$CBW4Level@el@@V?$shared_ptr@V?$basic_fstream@DU?$char_traits@D@std@@@std@@@std@@@std@@PEAX@std@@@1@@Z
	??$?0U?$_Tree_node@U?$pair@$$CBW4Level@el@@VLogFormat@base@2@@std@@PEAX@std@@@?$allocator@U_Container_proxy@std@@@std@@QEAA@AEBV?$allocator@U?$_Tree_node@U?$pair@$$CBW4Level@el@@VLogFormat@base@2@@std@@PEAX@std@@@1@@Z
	??$?0U?$_Tree_node@U?$pair@$$CBW4Level@el@@VSubsecondPrecision@base@2@@std@@PEAX@std@@@?$allocator@U_Container_proxy@std@@@std@@QEAA@AEBV?$allocator@U?$_Tree_node@U?$pair@$$CBW4Level@el@@VSubsecondPrecision@base@2@@std@@PEAX@std@@@1@@Z
	??$?0U?$_Tree_node@U?$pair@$$CBW4Level@el@@_K@std@@PEAX@std@@@?$allocator@U_Container_proxy@std@@@std@@QEAA@AEBV?$allocator@U?$_Tree_node@U?$pair@$$CBW4Level@el@@_K@std@@PEAX@std@@@1@@Z
	??$?0U?$_Tree_node@U?$pair@$$CBW4Level@el@@_N@std@@PEAX@std@@@?$allocator@U_Container_proxy@std@@@std@@QEAA@AEBV?$allocator@U?$_Tree_node@U?$pair@$$CBW4Level@el@@_N@std@@PEAX@std@@@1@@Z
	??$?0U?$default_delete@V_Facet_base@std@@@std@@$0A@@?$unique_ptr@V_Facet_base@std@@U?$default_delete@V_Facet_base@std@@@2@@std@@QEAA@PEAV_Facet_base@1@@Z
	??$?0U?$pair@V?$basic_string@DU?$char_traits@D@std@@V?$allocator@D@2@@std@@G@std@@@?$_Tree_temp_node@V?$allocator@U?$_Tree_node@U?$pair@$$CBV?$basic_string@DU?$char_traits@D@std@@V?$allocator@D@2@@std@@G@std@@PEAX@std@@@std@@@std@@QEAA@AEAV?$allocator@U?$_Tree_node@U?$pair@$$CBV?$basic_string@DU?$char_traits@D@std@@V?$allocator@D@2@@std@@G@std@@PEAX@std@@@1@PEAU?$_Tree_node@U?$pair@$$CBV?$basic_string@DU?$char_traits@D@std@@V?$allocator@D@2@@std@@G@std@@PEAX@1@$$QEAU?$pair@V?$basic_string@DU?$char_traits@D@std@@V?$allocator@D@2@@std@@G@1@@Z
	??$?0U?$pair@V?$basic_string@DU?$char_traits@D@std@@V?$allocator@D@2@@std@@PEAVLogger@el@@@std@@@?$_Tree_temp_node@V?$allocator@U?$_Tree_node@U?$pair@$$CBV?$basic_string@DU?$char_traits@D@std@@V?$allocator@D@2@@std@@PEAVLogger@el@@@std@@PEAX@std@@@std@@@std@@QEAA@AEAV?$allocator@U?$_Tree_node@U?$pair@$$CBV?$basic_string@DU?$char_traits@D@std@@V?$allocator@D@2@@std@@PEAVLogger@el@@@std@@PEAX@std@@@1@PEAU?$_Tree_node@U?$pair@$$CBV?$basic_string@DU?$char_traits@D@std@@V?$allocator@D@2@@std@@PEAVLogger@el@@@std@@PEAX@1@$$QEAU?$pair@V?$basic_string@DU?$char_traits@D@std@@V?$allocator@D@2@@std@@PEAVLogger@el@@@1@@Z
	??$?0U?$pair@V?$basic_string@DU?$char_traits@D@std@@V?$allocator@D@2@@std@@V12@@std@@@?$_Tree_temp_node@V?$allocator@U?$_Tree_node@U?$pair@$$CBV?$basic_string@DU?$char_traits@D@std@@V?$allocator@D@2@@std@@V12@@std@@PEAX@std@@@std@@@std@@QEAA@AEAV?$allocator@U?$_Tree_node@U?$pair@$$CBV?$basic_string@DU?$char_traits@D@std@@V?$allocator@D@2@@std@@V12@@std@@PEAX@std@@@1@PEAU?$_Tree_node@U?$pair@$$CBV?$basic_string@DU?$char_traits@D@std@@V?$allocator@D@2@@std@@V12@@std@@PEAX@1@$$QEAU?$pair@V?$basic_string@DU?$char_traits@D@std@@V?$allocator@D@2@@std@@V12@@1@@Z
	??$?0U?$pair@V?$basic_string@DU?$char_traits@D@std@@V?$allocator@D@2@@std@@V?$shared_ptr@V?$basic_fstream@DU?$char_traits@D@std@@@std@@@2@@std@@@?$_Tree_temp_node@V?$allocator@U?$_Tree_node@U?$pair@$$CBV?$basic_string@DU?$char_traits@D@std@@V?$allocator@D@2@@std@@V?$shared_ptr@V?$basic_fstream@DU?$char_traits@D@std@@@std@@@2@@std@@PEAX@std@@@std@@@std@@QEAA@AEAV?$allocator@U?$_Tree_node@U?$pair@$$CBV?$basic_string@DU?$char_traits@D@std@@V?$allocator@D@2@@std@@V?$shared_ptr@V?$basic_fstream@DU?$char_traits@D@std@@@std@@@2@@std@@PEAX@std@@@1@PEAU?$_Tree_node@U?$pair@$$CBV?$basic_string@DU?$char_traits@D@std@@V?$allocator@D@2@@std@@V?$shared_ptr@V?$basic_fstream@DU?$char_traits@D@std@@@std@@@2@@std@@PEAX@1@$$QEAU?$pair@V?$basic_string@DU?$char_traits@D@std@@V?$allocator@D@2@@std@@V?$shared_ptr@V?$basic_fstream@DU?$char_traits@D@std@@@std@@@2@@1@@Z
	??$?0U?$pair@V?$basic_string@DU?$char_traits@D@std@@V?$allocator@D@2@@std@@V?$shared_ptr@VLogDispatchCallback@el@@@2@@std@@@?$_Tree_temp_node@V?$allocator@U?$_Tree_node@U?$pair@$$CBV?$basic_string@DU?$char_traits@D@std@@V?$allocator@D@2@@std@@V?$shared_ptr@VLogDispatchCallback@el@@@2@@std@@PEAX@std@@@std@@@std@@QEAA@AEAV?$allocator@U?$_Tree_node@U?$pair@$$CBV?$basic_string@DU?$char_traits@D@std@@V?$allocator@D@2@@std@@V?$shared_ptr@VLogDispatchCallback@el@@@2@@std@@PEAX@std@@@1@PEAU?$_Tree_node@U?$pair@$$CBV?$basic_string@DU?$char_traits@D@std@@V?$allocator@D@2@@std@@V?$shared_ptr@VLogDispatchCallback@el@@@2@@std@@PEAX@1@$$QEAU?$pair@V?$basic_string@DU?$char_traits@D@std@@V?$allocator@D@2@@std@@V?$shared_ptr@VLogDispatchCallback@el@@@2@@1@@Z
	??$?0U?$pair@W4Level@el@@H@std@@@?$_Tree_temp_node@V?$allocator@U?$_Tree_node@U?$pair@$$CBW4Level@el@@I@std@@PEAX@std@@@std@@@std@@QEAA@AEAV?$allocator@U?$_Tree_node@U?$pair@$$CBW4Level@el@@I@std@@PEAX@std@@@1@PEAU?$_Tree_node@U?$pair@$$CBW4Level@el@@I@std@@PEAX@1@$$QEAU?$pair@W4Level@el@@H@1@@Z
	??$?0U?$pair@W4Level@el@@V?$basic_string@DU?$char_traits@D@std@@V?$allocator@D@2@@std@@@std@@@?$_Tree_temp_node@V?$allocator@U?$_Tree_node@U?$pair@$$CBW4Level@el@@V?$basic_string@DU?$char_traits@D@std@@V?$allocator@D@2@@std@@@std@@PEAX@std@@@std@@@std@@QEAA@AEAV?$allocator@U?$_Tree_node@U?$pair@$$CBW4Level@el@@V?$basic_string@DU?$char_traits@D@std@@V?$allocator@D@2@@std@@@std@@PEAX@std@@@1@PEAU?$_Tree_node@U?$pair@$$CBW4Level@el@@V?$basic_string@DU?$char_traits@D@std@@V?$allocator@D@2@@std@@@std@@PEAX@1@$$QEAU?$pair@W4Level@el@@V?$basic_string@DU?$char_traits@D@std@@V?$allocator@D@2@@std@@@1@@Z
	??$?0U?$pair@W4Level@el@@V?$shared_ptr@V?$basic_fstream@DU?$char_traits@D@std@@@std@@@std@@@std@@@?$_Tree_temp_node@V?$allocator@U?$_Tree_node@U?$pair@$$CBW4Level@el@@V?$shared_ptr@V?$basic_fstream@DU?$char_traits@D@std@@@std@@@std@@@std@@PEAX@std@@@std@@@std@@QEAA@AEAV?$allocator@U?$_Tree_node@U?$pair@$$CBW4Level@el@@V?$shared_ptr@V?$basic_fstream@DU?$char_traits@D@std@@@std@@@std@@@std@@PEAX@std@@@1@PEAU?$_Tree_node@U?$pair@$$CBW4Level@el@@V?$shared_ptr@V?$basic_fstream@DU?$char_traits@D@std@@@std@@@std@@@std@@PEAX@1@$$QEAU?$pair@W4Level@el@@V?$shared_ptr@V?$basic_fstream@DU?$char_traits@D@std@@@std@@@std@@@1@@Z
	??$?0U?$pair@W4Level@el@@VLogFormat@base@2@@std@@@?$_Tree_temp_node@V?$allocator@U?$_Tree_node@U?$pair@$$CBW4Level@el@@VLogFormat@base@2@@std@@PEAX@std@@@std@@@std@@QEAA@AEAV?$allocator@U?$_Tree_node@U?$pair@$$CBW4Level@el@@VLogFormat@base@2@@std@@PEAX@std@@@1@PEAU?$_Tree_node@U?$pair@$$CBW4Level@el@@VLogFormat@base@2@@std@@PEAX@1@$$QEAU?$pair@W4Level@el@@VLogFormat@base@2@@1@@Z
	??$?0U?$pair@W4Level@el@@VSubsecondPrecision@base@2@@std@@@?$_Tree_temp_node@V?$allocator@U?$_Tree_node@U?$pair@$$CBW4Level@el@@VSubsecondPrecision@base@2@@std@@PEAX@std@@@std@@@std@@QEAA@AEAV?$allocator@U?$_Tree_node@U?$pair@$$CBW4Level@el@@VSubsecondPrecision@base@2@@std@@PEAX@std@@@1@PEAU?$_Tree_node@U?$pair@$$CBW4Level@el@@VSubsecondPrecision@base@2@@std@@PEAX@1@$$QEAU?$pair@W4Level@el@@VSubsecondPrecision@base@2@@1@@Z
	??$?0U?$pair@W4Level@el@@_K@std@@@?$_Tree_temp_node@V?$allocator@U?$_Tree_node@U?$pair@$$CBW4Level@el@@_K@std@@PEAX@std@@@std@@@std@@QEAA@AEAV?$allocator@U?$_Tree_node@U?$pair@$$CBW4Level@el@@_K@std@@PEAX@std@@@1@PEAU?$_Tree_node@U?$pair@$$CBW4Level@el@@_K@std@@PEAX@1@$$QEAU?$pair@W4Level@el@@_K@1@@Z
	??$?0U?$pair@W4Level@el@@_N@std@@@?$_Tree_temp_node@V?$allocator@U?$_Tree_node@U?$pair@$$CBW4Level@el@@_N@std@@PEAX@std@@@std@@@std@@QEAA@AEAV?$allocator@U?$_Tree_node@U?$pair@$$CBW4Level@el@@_N@std@@PEAX@std@@@1@PEAU?$_Tree_node@U?$pair@$$CBW4Level@el@@_N@std@@PEAX@1@$$QEAU?$pair@W4Level@el@@_N@1@@Z
	??$?0U?$specialize_plan@UPtxPlan@?$ParallelForAgent@U?$unary_transform_f@PEAHPEAHUno_stencil_tag@__transform@cuda_cub@thrust@@U?$identity@H@4@Ualways_true_predicate@234@@__transform@cuda_cub@thrust@@_J@__parallel_for@cuda_cub@thrust@@Usm30@core@45@@core@cuda_cub@thrust@@@AgentPlan@core@cuda_cub@thrust@@QEAA@U?$specialize_plan@UPtxPlan@?$ParallelForAgent@U?$unary_transform_f@PEAHPEAHUno_stencil_tag@__transform@cuda_cub@thrust@@U?$identity@H@4@Ualways_true_predicate@234@@__transform@cuda_cub@thrust@@_J@__parallel_for@cuda_cub@thrust@@Usm30@core@45@@123@PEAX@Z
	??$?0U?$specialize_plan@UPtxPlan@?$ParallelForAgent@U?$unary_transform_f@PEAHPEAHUno_stencil_tag@__transform@cuda_cub@thrust@@U?$identity@H@4@Ualways_true_predicate@234@@__transform@cuda_cub@thrust@@_J@__parallel_for@cuda_cub@thrust@@Usm35@core@45@@core@cuda_cub@thrust@@@AgentPlan@core@cuda_cub@thrust@@QEAA@U?$specialize_plan@UPtxPlan@?$ParallelForAgent@U?$unary_transform_f@PEAHPEAHUno_stencil_tag@__transform@cuda_cub@thrust@@U?$identity@H@4@Ualways_true_predicate@234@@__transform@cuda_cub@thrust@@_J@__parallel_for@cuda_cub@thrust@@Usm35@core@45@@123@PEAX@Z
	??$?0U?$specialize_plan@UPtxPlan@?$ParallelForAgent@U?$unary_transform_f@PEAHPEAHUno_stencil_tag@__transform@cuda_cub@thrust@@U?$identity@H@4@Ualways_true_predicate@234@@__transform@cuda_cub@thrust@@_J@__parallel_for@cuda_cub@thrust@@Usm52@core@45@@core@cuda_cub@thrust@@@AgentPlan@core@cuda_cub@thrust@@QEAA@U?$specialize_plan@UPtxPlan@?$ParallelForAgent@U?$unary_transform_f@PEAHPEAHUno_stencil_tag@__transform@cuda_cub@thrust@@U?$identity@H@4@Ualways_true_predicate@234@@__transform@cuda_cub@thrust@@_J@__parallel_for@cuda_cub@thrust@@Usm52@core@45@@123@PEAX@Z
	??$?0U?$specialize_plan@UPtxPlan@?$ParallelForAgent@U?$unary_transform_f@PEAHPEAHUno_stencil_tag@__transform@cuda_cub@thrust@@U?$identity@H@4@Ualways_true_predicate@234@@__transform@cuda_cub@thrust@@_J@__parallel_for@cuda_cub@thrust@@Usm60@core@45@@core@cuda_cub@thrust@@@AgentPlan@core@cuda_cub@thrust@@QEAA@U?$specialize_plan@UPtxPlan@?$ParallelForAgent@U?$unary_transform_f@PEAHPEAHUno_stencil_tag@__transform@cuda_cub@thrust@@U?$identity@H@4@Ualways_true_predicate@234@@__transform@cuda_cub@thrust@@_J@__parallel_for@cuda_cub@thrust@@Usm60@core@45@@123@PEAX@Z
	??$?0U?$specialize_plan@UPtxPlan@?$ParallelForAgent@U?$unary_transform_f@PEANPEANUno_stencil_tag@__transform@cuda_cub@thrust@@U?$identity@N@4@Ualways_true_predicate@234@@__transform@cuda_cub@thrust@@_J@__parallel_for@cuda_cub@thrust@@Usm30@core@45@@core@cuda_cub@thrust@@@AgentPlan@core@cuda_cub@thrust@@QEAA@U?$specialize_plan@UPtxPlan@?$ParallelForAgent@U?$unary_transform_f@PEANPEANUno_stencil_tag@__transform@cuda_cub@thrust@@U?$identity@N@4@Ualways_true_predicate@234@@__transform@cuda_cub@thrust@@_J@__parallel_for@cuda_cub@thrust@@Usm30@core@45@@123@PEAX@Z
	??$?0U?$specialize_plan@UPtxPlan@?$ParallelForAgent@U?$unary_transform_f@PEANPEANUno_stencil_tag@__transform@cuda_cub@thrust@@U?$identity@N@4@Ualways_true_predicate@234@@__transform@cuda_cub@thrust@@_J@__parallel_for@cuda_cub@thrust@@Usm35@core@45@@core@cuda_cub@thrust@@@AgentPlan@core@cuda_cub@thrust@@QEAA@U?$specialize_plan@UPtxPlan@?$ParallelForAgent@U?$unary_transform_f@PEANPEANUno_stencil_tag@__transform@cuda_cub@thrust@@U?$identity@N@4@Ualways_true_predicate@234@@__transform@cuda_cub@thrust@@_J@__parallel_for@cuda_cub@thrust@@Usm35@core@45@@123@PEAX@Z
	??$?0U?$specialize_plan@UPtxPlan@?$ParallelForAgent@U?$unary_transform_f@PEANPEANUno_stencil_tag@__transform@cuda_cub@thrust@@U?$identity@N@4@Ualways_true_predicate@234@@__transform@cuda_cub@thrust@@_J@__parallel_for@cuda_cub@thrust@@Usm52@core@45@@core@cuda_cub@thrust@@@AgentPlan@core@cuda_cub@thrust@@QEAA@U?$specialize_plan@UPtxPlan@?$ParallelForAgent@U?$unary_transform_f@PEANPEANUno_stencil_tag@__transform@cuda_cub@thrust@@U?$identity@N@4@Ualways_true_predicate@234@@__transform@cuda_cub@thrust@@_J@__parallel_for@cuda_cub@thrust@@Usm52@core@45@@123@PEAX@Z
	??$?0U?$specialize_plan@UPtxPlan@?$ParallelForAgent@U?$unary_transform_f@PEANPEANUno_stencil_tag@__transform@cuda_cub@thrust@@U?$identity@N@4@Ualways_true_predicate@234@@__transform@cuda_cub@thrust@@_J@__parallel_for@cuda_cub@thrust@@Usm60@core@45@@core@cuda_cub@thrust@@@AgentPlan@core@cuda_cub@thrust@@QEAA@U?$specialize_plan@UPtxPlan@?$ParallelForAgent@U?$unary_transform_f@PEANPEANUno_stencil_tag@__transform@cuda_cub@thrust@@U?$identity@N@4@Ualways_true_predicate@234@@__transform@cuda_cub@thrust@@_J@__parallel_for@cuda_cub@thrust@@Usm60@core@45@@123@PEAX@Z
	??$?0Unode@DataSet@@@?$allocator@U_Container_proxy@std@@@std@@QEAA@AEBV?$allocator@Unode@DataSet@@@1@@Z
	??$?0V?$SyncArray@N@@@?$allocator@U_Container_proxy@std@@@std@@QEAA@AEBV?$allocator@V?$SyncArray@N@@@1@@Z
	??$?0V?$_String_const_iterator@V?$_String_val@U?$_Simple_types@D@std@@@std@@@std@@$0A@@?$basic_string@DU?$char_traits@D@std@@V?$allocator@D@2@@std@@QEAA@V?$_String_const_iterator@V?$_String_val@U?$_Simple_types@D@std@@@std@@@1@0AEBV?$allocator@D@1@@Z
	??$?0V?$_String_iterator@V?$_String_val@U?$_Simple_types@D@std@@@std@@@std@@$0A@@?$basic_string@DU?$char_traits@D@std@@V?$allocator@D@2@@std@@QEAA@V?$_String_iterator@V?$_String_val@U?$_Simple_types@D@std@@@std@@@1@0AEBV?$allocator@D@1@@Z
	??$?0V?$_Tree_iterator@V?$_Tree_val@U?$_Tree_simple_types@U?$pair@$$CBV?$basic_string@DU?$char_traits@D@std@@V?$allocator@D@2@@std@@G@std@@@std@@@std@@@std@@AEB_N$0A@@?$pair@V?$_Tree_iterator@V?$_Tree_val@U?$_Tree_simple_types@U?$pair@$$CBV?$basic_string@DU?$char_traits@D@std@@V?$allocator@D@2@@std@@G@std@@@std@@@std@@@std@@_N@std@@QEAA@$$QEAV?$_Tree_iterator@V?$_Tree_val@U?$_Tree_simple_types@U?$pair@$$CBV?$basic_string@DU?$char_traits@D@std@@V?$allocator@D@2@@std@@G@std@@@std@@@std@@@1@AEB_N@Z
	??$?0V?$_Tree_iterator@V?$_Tree_val@U?$_Tree_simple_types@U?$pair@$$CBV?$basic_string@DU?$char_traits@D@std@@V?$allocator@D@2@@std@@PEAVLogger@el@@@std@@@std@@@std@@@std@@AEB_N$0A@@?$pair@V?$_Tree_iterator@V?$_Tree_val@U?$_Tree_simple_types@U?$pair@$$CBV?$basic_string@DU?$char_traits@D@std@@V?$allocator@D@2@@std@@PEAVLogger@el@@@std@@@std@@@std@@@std@@_N@std@@QEAA@$$QEAV?$_Tree_iterator@V?$_Tree_val@U?$_Tree_simple_types@U?$pair@$$CBV?$basic_string@DU?$char_traits@D@std@@V?$allocator@D@2@@std@@PEAVLogger@el@@@std@@@std@@@std@@@1@AEB_N@Z
	??$?0V?$_Tree_iterator@V?$_Tree_val@U?$_Tree_simple_types@U?$pair@$$CBV?$basic_string@DU?$char_traits@D@std@@V?$allocator@D@2@@std@@V12@@std@@@std@@@std@@@std@@AEB_N$0A@@?$pair@V?$_Tree_iterator@V?$_Tree_val@U?$_Tree_simple_types@U?$pair@$$CBV?$basic_string@DU?$char_traits@D@std@@V?$allocator@D@2@@std@@V12@@std@@@std@@@std@@@std@@_N@std@@QEAA@$$QEAV?$_Tree_iterator@V?$_Tree_val@U?$_Tree_simple_types@U?$pair@$$CBV?$basic_string@DU?$char_traits@D@std@@V?$allocator@D@2@@std@@V12@@std@@@std@@@std@@@1@AEB_N@Z
	??$?0V?$_Tree_iterator@V?$_Tree_val@U?$_Tree_simple_types@U?$pair@$$CBV?$basic_string@DU?$char_traits@D@std@@V?$allocator@D@2@@std@@V?$shared_ptr@V?$basic_fstream@DU?$char_traits@D@std@@@std@@@2@@std@@@std@@@std@@@std@@AEB_N$0A@@?$pair@V?$_Tree_iterator@V?$_Tree_val@U?$_Tree_simple_types@U?$pair@$$CBV?$basic_string@DU?$char_traits@D@std@@V?$allocator@D@2@@std@@V?$shared_ptr@V?$basic_fstream@DU?$char_traits@D@std@@@std@@@2@@std@@@std@@@std@@@std@@_N@std@@QEAA@$$QEAV?$_Tree_iterator@V?$_Tree_val@U?$_Tree_simple_types@U?$pair@$$CBV?$basic_string@DU?$char_traits@D@std@@V?$allocator@D@2@@std@@V?$shared_ptr@V?$basic_fstream@DU?$char_traits@D@std@@@std@@@2@@std@@@std@@@std@@@1@AEB_N@Z
	??$?0V?$_Tree_iterator@V?$_Tree_val@U?$_Tree_simple_types@U?$pair@$$CBV?$basic_string@DU?$char_traits@D@std@@V?$allocator@D@2@@std@@V?$shared_ptr@VLogDispatchCallback@el@@@2@@std@@@std@@@std@@@std@@AEB_N$0A@@?$pair@V?$_Tree_iterator@V?$_Tree_val@U?$_Tree_simple_types@U?$pair@$$CBV?$basic_string@DU?$char_traits@D@std@@V?$allocator@D@2@@std@@V?$shared_ptr@VLogDispatchCallback@el@@@2@@std@@@std@@@std@@@std@@_N@std@@QEAA@$$QEAV?$_Tree_iterator@V?$_Tree_val@U?$_Tree_simple_types@U?$pair@$$CBV?$basic_string@DU?$char_traits@D@std@@V?$allocator@D@2@@std@@V?$shared_ptr@VLogDispatchCallback@el@@@2@@std@@@std@@@std@@@1@AEB_N@Z
	??$?0V?$_Tree_iterator@V?$_Tree_val@U?$_Tree_simple_types@U?$pair@$$CBW4Level@el@@I@std@@@std@@@std@@@std@@AEB_N$0A@@?$pair@V?$_Tree_iterator@V?$_Tree_val@U?$_Tree_simple_types@U?$pair@$$CBW4Level@el@@I@std@@@std@@@std@@@std@@_N@std@@QEAA@$$QEAV?$_Tree_iterator@V?$_Tree_val@U?$_Tree_simple_types@U?$pair@$$CBW4Level@el@@I@std@@@std@@@std@@@1@AEB_N@Z
	??$?0V?$_Tree_iterator@V?$_Tree_val@U?$_Tree_simple_types@U?$pair@$$CBW4Level@el@@V?$basic_string@DU?$char_traits@D@std@@V?$allocator@D@2@@std@@@std@@@std@@@std@@@std@@AEB_N$0A@@?$pair@V?$_Tree_iterator@V?$_Tree_val@U?$_Tree_simple_types@U?$pair@$$CBW4Level@el@@V?$basic_string@DU?$char_traits@D@std@@V?$allocator@D@2@@std@@@std@@@std@@@std@@@std@@_N@std@@QEAA@$$QEAV?$_Tree_iterator@V?$_Tree_val@U?$_Tree_simple_types@U?$pair@$$CBW4Level@el@@V?$basic_string@DU?$char_traits@D@std@@V?$allocator@D@2@@std@@@std@@@std@@@std@@@1@AEB_N@Z
	??$?0V?$_Tree_iterator@V?$_Tree_val@U?$_Tree_simple_types@U?$pair@$$CBW4Level@el@@V?$shared_ptr@V?$basic_fstream@DU?$char_traits@D@std@@@std@@@std@@@std@@@std@@@std@@@std@@AEB_N$0A@@?$pair@V?$_Tree_iterator@V?$_Tree_val@U?$_Tree_simple_types@U?$pair@$$CBW4Level@el@@V?$shared_ptr@V?$basic_fstream@DU?$char_traits@D@std@@@std@@@std@@@std@@@std@@@std@@@std@@_N@std@@QEAA@$$QEAV?$_Tree_iterator@V?$_Tree_val@U?$_Tree_simple_types@U?$pair@$$CBW4Level@el@@V?$shared_ptr@V?$basic_fstream@DU?$char_traits@D@std@@@std@@@std@@@std@@@std@@@std@@@1@AEB_N@Z
	??$?0V?$_Tree_iterator@V?$_Tree_val@U?$_Tree_simple_types@U?$pair@$$CBW4Level@el@@VLogFormat@base@2@@std@@@std@@@std@@@std@@AEB_N$0A@@?$pair@V?$_Tree_iterator@V?$_Tree_val@U?$_Tree_simple_types@U?$pair@$$CBW4Level@el@@VLogFormat@base@2@@std@@@std@@@std@@@std@@_N@std@@QEAA@$$QEAV?$_Tree_iterator@V?$_Tree_val@U?$_Tree_simple_types@U?$pair@$$CBW4Level@el@@VLogFormat@base@2@@std@@@std@@@std@@@1@AEB_N@Z
	??$?0V?$_Tree_iterator@V?$_Tree_val@U?$_Tree_simple_types@U?$pair@$$CBW4Level@el@@VSubsecondPrecision@base@2@@std@@@std@@@std@@@std@@AEB_N$0A@@?$pair@V?$_Tree_iterator@V?$_Tree_val@U?$_Tree_simple_types@U?$pair@$$CBW4Level@el@@VSubsecondPrecision@base@2@@std@@@std@@@std@@@std@@_N@std@@QEAA@$$QEAV?$_Tree_iterator@V?$_Tree_val@U?$_Tree_simple_types@U?$pair@$$CBW4Level@el@@VSubsecondPrecision@base@2@@std@@@std@@@std@@@1@AEB_N@Z
	??$?0V?$_Tree_iterator@V?$_Tree_val@U?$_Tree_simple_types@U?$pair@$$CBW4Level@el@@_K@std@@@std@@@std@@@std@@AEB_N$0A@@?$pair@V?$_Tree_iterator@V?$_Tree_val@U?$_Tree_simple_types@U?$pair@$$CBW4Level@el@@_K@std@@@std@@@std@@@std@@_N@std@@QEAA@$$QEAV?$_Tree_iterator@V?$_Tree_val@U?$_Tree_simple_types@U?$pair@$$CBW4Level@el@@_K@std@@@std@@@std@@@1@AEB_N@Z
	??$?0V?$_Tree_iterator@V?$_Tree_val@U?$_Tree_simple_types@U?$pair@$$CBW4Level@el@@_N@std@@@std@@@std@@@std@@AEB_N$0A@@?$pair@V?$_Tree_iterator@V?$_Tree_val@U?$_Tree_simple_types@U?$pair@$$CBW4Level@el@@_N@std@@@std@@@std@@@std@@_N@std@@QEAA@$$QEAV?$_Tree_iterator@V?$_Tree_val@U?$_Tree_simple_types@U?$pair@$$CBW4Level@el@@_N@std@@@std@@@std@@@1@AEB_N@Z
	??$?0V?$_Vector_const_iterator@V?$_Vector_val@U?$_Simple_types@H@std@@@std@@@std@@$0A@@?$vector@HV?$allocator@H@std@@@std@@QEAA@V?$_Vector_const_iterator@V?$_Vector_val@U?$_Simple_types@H@std@@@std@@@1@0AEBV?$allocator@H@1@@Z
	??$?0V?$_Vector_const_iterator@V?$_Vector_val@U?$_Simple_types@V?$vector@Unode@DataSet@@V?$allocator@Unode@DataSet@@@std@@@std@@@std@@@std@@@std@@$0A@@?$vector@V?$vector@Unode@DataSet@@V?$allocator@Unode@DataSet@@@std@@@std@@V?$allocator@V?$vector@Unode@DataSet@@V?$allocator@Unode@DataSet@@@std@@@std@@@2@@std@@QEAA@V?$_Vector_const_iterator@V?$_Vector_val@U?$_Simple_types@V?$vector@Unode@DataSet@@V?$allocator@Unode@DataSet@@@std@@@std@@@std@@@std@@@1@0AEBV?$allocator@V?$vector@Unode@DataSet@@V?$allocator@Unode@DataSet@@@std@@@std@@@1@@Z
	??$?0V?$_Vector_iterator@V?$_Vector_val@U?$_Simple_types@H@std@@@std@@@std@@$0A@@?$vector@HV?$allocator@H@std@@@std@@QEAA@V?$_Vector_iterator@V?$_Vector_val@U?$_Simple_types@H@std@@@std@@@1@0AEBV?$allocator@H@1@@Z
	??$?0V?$allocator@D@std@@$$V@?$_Compressed_pair@V?$allocator@D@std@@V?$_String_val@U?$_Simple_types@D@std@@@2@$00@std@@QEAA@U_One_then_variadic_args_t@1@$$QEAV?$allocator@D@1@@Z
	??$?0V?$allocator@H@std@@$$V@?$_Compressed_pair@V?$allocator@H@std@@V?$_Vector_val@U?$_Simple_types@H@std@@@2@$00@std@@QEAA@U_One_then_variadic_args_t@1@$$QEAV?$allocator@H@1@@Z
	??$?0V?$allocator@H@std@@PEAHPEAHPEAH@?$_Compressed_pair@V?$allocator@H@std@@V?$_Vector_val@U?$_Simple_types@H@std@@@2@$00@std@@QEAA@U_One_then_variadic_args_t@1@$$QEAV?$allocator@H@1@$$QEAPEAH22@Z
	??$?0V?$allocator@N@std@@$$V@?$_Compressed_pair@V?$allocator@N@std@@V?$_Vector_val@U?$_Simple_types@N@std@@@2@$00@std@@QEAA@U_One_then_variadic_args_t@1@$$QEAV?$allocator@N@1@@Z
	??$?0V?$allocator@N@std@@PEANPEANPEAN@?$_Compressed_pair@V?$allocator@N@std@@V?$_Vector_val@U?$_Simple_types@N@std@@@2@$00@std@@QEAA@U_One_then_variadic_args_t@1@$$QEAV?$allocator@N@1@$$QEAPEAN22@Z
	??$?0V?$allocator@Unode@DataSet@@@std@@$$V@?$_Compressed_pair@V?$allocator@Unode@DataSet@@@std@@V?$_Vector_val@U?$_Simple_types@Unode@DataSet@@@std@@@2@$00@std@@QEAA@U_One_then_variadic_args_t@1@$$QEAV?$allocator@Unode@DataSet@@@1@@Z
	??$?0V?$allocator@Unode@DataSet@@@std@@PEAUnode@DataSet@@PEAU23@PEAU23@@?$_Compressed_pair@V?$allocator@Unode@DataSet@@@std@@V?$_Vector_val@U?$_Simple_types@Unode@DataSet@@@std@@@2@$00@std@@QEAA@U_One_then_variadic_args_t@1@$$QEAV?$allocator@Unode@DataSet@@@1@$$QEAPEAUnode@DataSet@@22@Z
	??$?0V?$allocator@V?$vector@Unode@DataSet@@V?$allocator@Unode@DataSet@@@std@@@std@@@std@@$$V@?$_Compressed_pair@V?$allocator@V?$vector@Unode@DataSet@@V?$allocator@Unode@DataSet@@@std@@@std@@@std@@V?$_Vector_val@U?$_Simple_types@V?$vector@Unode@DataSet@@V?$allocator@Unode@DataSet@@@std@@@std@@@std@@@2@$00@std@@QEAA@U_One_then_variadic_args_t@1@$$QEAV?$allocator@V?$vector@Unode@DataSet@@V?$allocator@Unode@DataSet@@@std@@@std@@@1@@Z
	??$?0V?$allocator@V?$vector@Unode@DataSet@@V?$allocator@Unode@DataSet@@@std@@@std@@@std@@PEAV?$vector@Unode@DataSet@@V?$allocator@Unode@DataSet@@@std@@@1@PEAV21@PEAV21@@?$_Compressed_pair@V?$allocator@V?$vector@Unode@DataSet@@V?$allocator@Unode@DataSet@@@std@@@std@@@std@@V?$_Vector_val@U?$_Simple_types@V?$vector@Unode@DataSet@@V?$allocator@Unode@DataSet@@@std@@@std@@@std@@@2@$00@std@@QEAA@U_One_then_variadic_args_t@1@$$QEAV?$allocator@V?$vector@Unode@DataSet@@V?$allocator@Unode@DataSet@@@std@@@std@@@1@$$QEAPEAV?$vector@Unode@DataSet@@V?$allocator@Unode@DataSet@@@std@@@1@22@Z
	??$?0V?$basic_fstream@DU?$char_traits@D@std@@@std@@$0A@@?$shared_ptr@V?$basic_fstream@DU?$char_traits@D@std@@@std@@@std@@QEAA@PEAV?$basic_fstream@DU?$char_traits@D@std@@@1@@Z
	??$?0V?$basic_string@DU?$char_traits@D@std@@V?$allocator@D@2@@std@@@?$allocator@U_Container_proxy@std@@@std@@QEAA@AEBV?$allocator@V?$basic_string@DU?$char_traits@D@std@@V?$allocator@D@2@@std@@@1@@Z
	??$?0V?$basic_string@DU?$char_traits@D@std@@V?$allocator@D@2@@std@@AEAG$0A@@?$pair@V?$basic_string@DU?$char_traits@D@std@@V?$allocator@D@2@@std@@G@std@@QEAA@$$QEAV?$basic_string@DU?$char_traits@D@std@@V?$allocator@D@2@@1@AEAG@Z
	??$?0V?$basic_string@DU?$char_traits@D@std@@V?$allocator@D@2@@std@@G$0A@@?$pair@$$CBV?$basic_string@DU?$char_traits@D@std@@V?$allocator@D@2@@std@@G@std@@QEAA@$$QEAU?$pair@V?$basic_string@DU?$char_traits@D@std@@V?$allocator@D@2@@std@@G@1@@Z
	??$?0V?$basic_string@DU?$char_traits@D@std@@V?$allocator@D@2@@std@@PEAVLogger@el@@$0A@@?$pair@$$CBV?$basic_string@DU?$char_traits@D@std@@V?$allocator@D@2@@std@@PEAVLogger@el@@@std@@QEAA@$$QEAU?$pair@V?$basic_string@DU?$char_traits@D@std@@V?$allocator@D@2@@std@@PEAVLogger@el@@@1@@Z
	??$?0V?$basic_string@DU?$char_traits@D@std@@V?$allocator@D@2@@std@@V01@$0A@@?$pair@$$CBV?$basic_string@DU?$char_traits@D@std@@V?$allocator@D@2@@std@@V12@@std@@QEAA@$$QEAU?$pair@V?$basic_string@DU?$char_traits@D@std@@V?$allocator@D@2@@std@@V12@@1@@Z
	??$?0V?$basic_string@DU?$char_traits@D@std@@V?$allocator@D@2@@std@@V?$shared_ptr@V?$basic_fstream@DU?$char_traits@D@std@@@std@@@1@$0A@@?$pair@$$CBV?$basic_string@DU?$char_traits@D@std@@V?$allocator@D@2@@std@@V?$shared_ptr@V?$basic_fstream@DU?$char_traits@D@std@@@std@@@2@@std@@QEAA@$$QEAU?$pair@V?$basic_string@DU?$char_traits@D@std@@V?$allocator@D@2@@std@@V?$shared_ptr@V?$basic_fstream@DU?$char_traits@D@std@@@std@@@2@@1@@Z
	??$?0V?$basic_string@DU?$char_traits@D@std@@V?$allocator@D@2@@std@@V?$shared_ptr@VLogDispatchCallback@el@@@1@$0A@@?$pair@$$CBV?$basic_string@DU?$char_traits@D@std@@V?$allocator@D@2@@std@@V?$shared_ptr@VLogDispatchCallback@el@@@2@@std@@QEAA@$$QEAU?$pair@V?$basic_string@DU?$char_traits@D@std@@V?$allocator@D@2@@std@@V?$shared_ptr@VLogDispatchCallback@el@@@2@@1@@Z
	??$?0V?$pointer@EUpar_t@cuda_cub@thrust@@Uuse_default@3@U43@@thrust@@_J@?$pair@V?$pointer@EUpar_t@cuda_cub@thrust@@Uuse_default@3@U43@@thrust@@_K@thrust@@QEAA@AEBU?$pair@V?$pointer@EUpar_t@cuda_cub@thrust@@Uuse_default@3@U43@@thrust@@_J@1@@Z
	??$?0V?$vector@NV?$allocator@N@std@@@std@@@?$allocator@U_Container_proxy@std@@@std@@QEAA@AEBV?$allocator@V?$vector@NV?$allocator@N@std@@@std@@@1@@Z
	??$?0V?$vector@Unode@DataSet@@V?$allocator@Unode@DataSet@@@std@@@std@@@?$allocator@U_Container_proxy@std@@@std@@QEAA@AEBV?$allocator@V?$vector@Unode@DataSet@@V?$allocator@Unode@DataSet@@@std@@@std@@@1@@Z
	??$?0V?$vector@V?$vector@Unode@DataSet@@V?$allocator@Unode@DataSet@@@std@@@std@@V?$allocator@V?$vector@Unode@DataSet@@V?$allocator@Unode@DataSet@@@std@@@std@@@2@@std@@@?$allocator@U_Container_proxy@std@@@std@@QEAA@AEBV?$allocator@V?$vector@V?$vector@Unode@DataSet@@V?$allocator@Unode@DataSet@@@std@@@std@@V?$allocator@V?$vector@Unode@DataSet@@V?$allocator@Unode@DataSet@@@std@@@std@@@2@@std@@@1@@Z
	??$?0VCustomFormatSpecifier@el@@@?$allocator@U_Container_proxy@std@@@std@@QEAA@AEBV?$allocator@VCustomFormatSpecifier@el@@@1@@Z
	??$?0VDefaultLogBuilder@base@el@@$0A@@?$shared_ptr@VLogBuilder@el@@@std@@QEAA@PEAVDefaultLogBuilder@base@el@@@Z
	??$?0VDefaultLogDispatchCallback@base@el@@$0A@@?$shared_ptr@VLogDispatchCallback@el@@@std@@QEAA@PEAVDefaultLogDispatchCallback@base@el@@@Z
	??$?0VStorage@base@el@@$0A@@?$shared_ptr@VStorage@base@el@@@std@@QEAA@PEAVStorage@base@el@@@Z
	??$?0W4Level@el@@AEBVLogFormat@base@1@$0A@@?$pair@W4Level@el@@VLogFormat@base@2@@std@@QEAA@$$QEAW4Level@el@@AEBVLogFormat@base@3@@Z
	??$?0W4Level@el@@AEBVSubsecondPrecision@base@1@$0A@@?$pair@W4Level@el@@VSubsecondPrecision@base@2@@std@@QEAA@$$QEAW4Level@el@@AEBVSubsecondPrecision@base@3@@Z
	??$?0W4Level@el@@AEB_K$0A@@?$pair@W4Level@el@@_K@std@@QEAA@$$QEAW4Level@el@@AEB_K@Z
	??$?0W4Level@el@@AEB_N$0A@@?$pair@W4Level@el@@_N@std@@QEAA@$$QEAW4Level@el@@AEB_N@Z
	??$?0W4Level@el@@H$0A@@?$pair@$$CBW4Level@el@@I@std@@QEAA@$$QEAU?$pair@W4Level@el@@H@1@@Z
	??$?0W4Level@el@@H$0A@@?$pair@W4Level@el@@H@std@@QEAA@$$QEAW4Level@el@@$$QEAH@Z
	??$?0W4Level@el@@V?$basic_string@DU?$char_traits@D@std@@V?$allocator@D@2@@std@@$0A@@?$pair@$$CBW4Level@el@@V?$basic_string@DU?$char_traits@D@std@@V?$allocator@D@2@@std@@@std@@QEAA@$$QEAU?$pair@W4Level@el@@V?$basic_string@DU?$char_traits@D@std@@V?$allocator@D@2@@std@@@1@@Z
	??$?0W4Level@el@@V?$shared_ptr@V?$basic_fstream@DU?$char_traits@D@std@@@std@@@std@@$0A@@?$pair@$$CBW4Level@el@@V?$shared_ptr@V?$basic_fstream@DU?$char_traits@D@std@@@std@@@std@@@std@@QEAA@$$QEAU?$pair@W4Level@el@@V?$shared_ptr@V?$basic_fstream@DU?$char_traits@D@std@@@std@@@std@@@1@@Z
	??$?0W4Level@el@@VLogFormat@base@1@$0A@@?$pair@$$CBW4Level@el@@VLogFormat@base@2@@std@@QEAA@$$QEAU?$pair@W4Level@el@@VLogFormat@base@2@@1@@Z
	??$?0W4Level@el@@VSubsecondPrecision@base@1@$0A@@?$pair@$$CBW4Level@el@@VSubsecondPrecision@base@2@@std@@QEAA@$$QEAU?$pair@W4Level@el@@VSubsecondPrecision@base@2@@1@@Z
	??$?0W4Level@el@@_K$0A@@?$pair@$$CBW4Level@el@@_K@std@@QEAA@$$QEAU?$pair@W4Level@el@@_K@1@@Z
	??$?0W4Level@el@@_N$0A@@?$pair@$$CBW4Level@el@@_N@std@@QEAA@$$QEAU?$pair@W4Level@el@@_N@1@@Z
	??$?0X@?$pointer@XUpar_t@cuda_cub@thrust@@Uuse_default@3@U43@@thrust@@QEAA@PEAX@Z
	??$?0_J@?$AgentLauncher@U?$ParallelForAgent@U?$unary_transform_f@PEAHPEAHUno_stencil_tag@__transform@cuda_cub@thrust@@U?$identity@H@4@Ualways_true_predicate@234@@__transform@cuda_cub@thrust@@_J@__parallel_for@cuda_cub@thrust@@@core@cuda_cub@thrust@@QEAA@UAgentPlan@123@_JPEAUCUstream_st@@PEBD_N@Z
	??$?0_J@?$AgentLauncher@U?$ParallelForAgent@U?$unary_transform_f@PEANPEANUno_stencil_tag@__transform@cuda_cub@thrust@@U?$identity@N@4@Ualways_true_predicate@234@@__transform@cuda_cub@thrust@@_J@__parallel_for@cuda_cub@thrust@@@core@cuda_cub@thrust@@QEAA@UAgentPlan@123@_JPEAUCUstream_st@@PEBD_N@Z
	??$?0_N@?$allocator@I@std@@QEAA@AEBV?$allocator@_N@1@@Z
	??$?5DU?$char_traits@D@std@@V?$allocator@D@1@@std@@YAAEAV?$basic_istream@DU?$char_traits@D@std@@@0@$$QEAV10@AEAV?$basic_string@DU?$char_traits@D@std@@V?$allocator@D@2@@0@@Z
	??$?5DU?$char_traits@D@std@@V?$allocator@D@1@@std@@YAAEAV?$basic_istream@DU?$char_traits@D@std@@@0@AEAV10@AEAV?$basic_string@DU?$char_traits@D@std@@V?$allocator@D@2@@0@@Z
	??$?6$$BY01D@Writer@base@el@@QEAAAEAV012@AEAY01$$CBD@Z
	??$?6$$BY02D@Writer@base@el@@QEAAAEAV012@AEAY02$$CBD@Z
	??$?6$$BY03D@Writer@base@el@@QEAAAEAV012@AEAY03$$CBD@Z
	??$?6$$BY05D@Writer@base@el@@QEAAAEAV012@AEAY05$$CBD@Z
	??$?6$$BY06D@Writer@base@el@@QEAAAEAV012@AEAY06$$CBD@Z
	??$?6$$BY08D@Writer@base@el@@QEAAAEAV012@AEAY08$$CBD@Z
	??$?6$$BY09D@Writer@base@el@@QEAAAEAV012@AEAY09$$CBD@Z
	??$?6$$BY0BA@D@Writer@base@el@@QEAAAEAV012@AEAY0BA@$$CBD@Z
	??$?6$$BY0BB@D@Writer@base@el@@QEAAAEAV012@AEAY0BB@$$CBD@Z
	??$?6$$BY0BC@D@Writer@base@el@@QEAAAEAV012@AEAY0BC@$$CBD@Z
	??$?6$$BY0BD@D@Writer@base@el@@QEAAAEAV012@AEAY0BD@$$CBD@Z
	??$?6$$BY0BE@D@Writer@base@el@@QEAAAEAV012@AEAY0BE@$$CBD@Z
	??$?6$$BY0BF@D@Writer@base@el@@QEAAAEAV012@AEAY0BF@$$CBD@Z
	??$?6$$BY0BG@D@Writer@base@el@@QEAAAEAV012@AEAY0BG@$$CBD@Z
	??$?6$$BY0BI@D@Writer@base@el@@QEAAAEAV012@AEAY0BI@$$CBD@Z
	??$?6$$BY0BJ@D@Writer@base@el@@QEAAAEAV012@AEAY0BJ@$$CBD@Z
	??$?6$$BY0BK@D@Writer@base@el@@QEAAAEAV012@AEAY0BK@$$CBD@Z
	??$?6$$BY0BL@D@Writer@base@el@@QEAAAEAV012@AEAY0BL@$$CBD@Z
	??$?6$$BY0BM@D@Writer@base@el@@QEAAAEAV012@AEAY0BM@$$CBD@Z
	??$?6$$BY0BN@D@Writer@base@el@@QEAAAEAV012@AEAY0BN@$$CBD@Z
	??$?6$$BY0BO@D@Writer@base@el@@QEAAAEAV012@AEAY0BO@$$CBD@Z
	??$?6$$BY0BP@D@Writer@base@el@@QEAAAEAV012@AEAY0BP@$$CBD@Z
	??$?6$$BY0CA@D@Writer@base@el@@QEAAAEAV012@AEAY0CA@$$CBD@Z
	??$?6$$BY0CE@D@Writer@base@el@@QEAAAEAV012@AEAY0CE@$$CBD@Z
	??$?6$$BY0CF@D@Writer@base@el@@QEAAAEAV012@AEAY0CF@$$CBD@Z
	??$?6$$BY0CG@D@Writer@base@el@@QEAAAEAV012@AEAY0CG@$$CBD@Z
	??$?6$$BY0CJ@D@Writer@base@el@@QEAAAEAV012@AEAY0CJ@$$CBD@Z
	??$?6$$BY0CL@D@Writer@base@el@@QEAAAEAV012@AEAY0CL@$$CBD@Z
	??$?6$$BY0CM@D@Writer@base@el@@QEAAAEAV012@AEAY0CM@$$CBD@Z
	??$?6$$BY0CN@D@Writer@base@el@@QEAAAEAV012@AEAY0CN@$$CBD@Z
	??$?6$$BY0CO@D@Writer@base@el@@QEAAAEAV012@AEAY0CO@$$CBD@Z
	??$?6$$BY0CP@D@Writer@base@el@@QEAAAEAV012@AEAY0CP@$$CBD@Z
	??$?6$$BY0DA@D@Writer@base@el@@QEAAAEAV012@AEAY0DA@$$CBD@Z
	??$?6$$BY0DG@D@Writer@base@el@@QEAAAEAV012@AEAY0DG@$$CBD@Z
	??$?6$$BY0DL@D@Writer@base@el@@QEAAAEAV012@AEAY0DL@$$CBD@Z
	??$?6$$BY0FG@D@Writer@base@el@@QEAAAEAV012@AEAY0FG@$$CBD@Z
	??$?6$$BY0FHJ@D@Writer@base@el@@QEAAAEAV012@AEAY0FHJ@$$CBD@Z
	??$?6$$BY0L@D@Writer@base@el@@QEAAAEAV012@AEAY0L@$$CBD@Z
	??$?6$$BY0LP@D@Writer@base@el@@QEAAAEAV012@AEAY0LP@$$CBD@Z
	??$?6$$BY0M@D@Writer@base@el@@QEAAAEAV012@AEAY0M@$$CBD@Z
	??$?6$$BY0N@D@Writer@base@el@@QEAAAEAV012@AEAY0N@$$CBD@Z
	??$?6$$BY0O@D@Writer@base@el@@QEAAAEAV012@AEAY0O@$$CBD@Z
	??$?6$$BY0P@D@Writer@base@el@@QEAAAEAV012@AEAY0P@$$CBD@Z
	??$?6DU?$char_traits@D@std@@V?$allocator@D@1@@std@@YAAEAV?$basic_ostream@DU?$char_traits@D@std@@@0@AEAV10@AEBV?$basic_string@DU?$char_traits@D@std@@V?$allocator@D@2@@0@@Z
	??$?6DU?$char_traits@D@std@@_J@std@@YAAEAV?$basic_ostream@DU?$char_traits@D@std@@@0@AEAV10@AEBU?$_Smanip@_J@0@@Z
	??$?6H@Writer@base@el@@QEAAAEAV012@AEBH@Z
	??$?6K@Writer@base@el@@QEAAAEAV012@AEBK@Z
	??$?6N@Writer@base@el@@QEAAAEAV012@AEBN@Z
	??$?6PEBD@Writer@base@el@@QEAAAEAV012@AEBQEBD@Z
	??$?6U?$char_traits@D@std@@@std@@YAAEAV?$basic_ostream@DU?$char_traits@D@std@@@0@AEAV10@D@Z
	??$?6U?$char_traits@D@std@@@std@@YAAEAV?$basic_ostream@DU?$char_traits@D@std@@@0@AEAV10@PEBD@Z
	??$?6V?$basic_string@DU?$char_traits@D@std@@V?$allocator@D@2@@std@@@Writer@base@el@@QEAAAEAV012@AEBV?$basic_string@DU?$char_traits@D@std@@V?$allocator@D@2@@std@@@Z
	??$?6_J@MessageBuilder@base@el@@QEAAAEAV012@AEB_J@Z
	??$?6_J@Writer@base@el@@QEAAAEAV012@AEB_J@Z
	??$?6_K@MessageBuilder@base@el@@QEAAAEAV012@AEB_K@Z
	??$?6_K@Writer@base@el@@QEAAAEAV012@AEB_K@Z
	??$?8DU?$char_traits@D@std@@V?$allocator@D@1@@std@@YA_NAEBV?$basic_string@DU?$char_traits@D@std@@V?$allocator@D@2@@0@0@Z
	??$?8DU?$char_traits@D@std@@V?$allocator@D@1@@std@@YA_NAEBV?$basic_string@DU?$char_traits@D@std@@V?$allocator@D@2@@0@QEBD@Z
	??$?9DU?$char_traits@D@std@@V?$allocator@D@1@@std@@YA_NAEBV?$basic_string@DU?$char_traits@D@std@@V?$allocator@D@2@@0@QEBD@Z
	??$?9PEADPEAD@std@@YA_NAEBV?$reverse_iterator@PEAD@0@0@Z
	??$?CV?$basic_fstream@DU?$char_traits@D@std@@@std@@$0A@@?$shared_ptr@V?$basic_fstream@DU?$char_traits@D@std@@@std@@@std@@QEBAPEAV?$basic_fstream@DU?$char_traits@D@std@@@1@XZ
	??$?CVStorage@base@el@@$0A@@?$shared_ptr@VStorage@base@el@@@std@@QEBAPEAVStorage@base@el@@XZ
	??$?GV?$normal_iterator@V?$pointer@EUpar_t@cuda_cub@thrust@@Uuse_default@3@U43@@thrust@@@detail@thrust@@EUpar_t@cuda_cub@2@Urandom_access_traversal_tag@2@V?$reference@EV?$pointer@EUpar_t@cuda_cub@thrust@@Uuse_default@3@U43@@thrust@@Uuse_default@2@@2@_JV012@EU342@U52@V62@_J@thrust@@YA_JAEBV?$iterator_facade@V?$normal_iterator@V?$pointer@EUpar_t@cuda_cub@thrust@@Uuse_default@3@U43@@thrust@@@detail@thrust@@EUpar_t@cuda_cub@3@Urandom_access_traversal_tag@3@V?$reference@EV?$pointer@EUpar_t@cuda_cub@thrust@@Uuse_default@3@U43@@thrust@@Uuse_default@2@@3@_J@0@0@Z
	??$?GV?$pointer@EUpar_t@cuda_cub@thrust@@Uuse_default@3@U43@@thrust@@EUpar_t@cuda_cub@1@Urandom_access_traversal_tag@1@V?$reference@EV?$pointer@EUpar_t@cuda_cub@thrust@@Uuse_default@3@U43@@thrust@@Uuse_default@2@@1@_JV01@EU231@U41@V51@_J@thrust@@YA_JAEBV?$iterator_facade@V?$pointer@EUpar_t@cuda_cub@thrust@@Uuse_default@3@U43@@thrust@@EUpar_t@cuda_cub@2@Urandom_access_traversal_tag@2@V?$reference@EV?$pointer@EUpar_t@cuda_cub@thrust@@Uuse_default@3@U43@@thrust@@Uuse_default@2@@2@_J@0@0@Z
	??$?HDU?$char_traits@D@std@@V?$allocator@D@1@@std@@YA?AV?$basic_string@DU?$char_traits@D@std@@V?$allocator@D@2@@0@$$QEAV10@QEBD@Z
	??$?HDU?$char_traits@D@std@@V?$allocator@D@1@@std@@YA?AV?$basic_string@DU?$char_traits@D@std@@V?$allocator@D@2@@0@QEBD$$QEAV10@@Z
	??$?HDU?$char_traits@D@std@@V?$allocator@D@1@@std@@YA?AV?$basic_string@DU?$char_traits@D@std@@V?$allocator@D@2@@0@QEBDAEBV10@@Z
	??$?HV?$normal_iterator@V?$pointer@EUpar_t@cuda_cub@thrust@@Uuse_default@3@U43@@thrust@@@detail@thrust@@EUpar_t@cuda_cub@2@Urandom_access_traversal_tag@2@V?$reference@EV?$pointer@EUpar_t@cuda_cub@thrust@@Uuse_default@3@U43@@thrust@@Uuse_default@2@@2@_J@thrust@@YA?AV?$normal_iterator@V?$pointer@EUpar_t@cuda_cub@thrust@@Uuse_default@3@U43@@thrust@@@detail@0@AEBV?$iterator_facade@V?$normal_iterator@V?$pointer@EUpar_t@cuda_cub@thrust@@Uuse_default@3@U43@@thrust@@@detail@thrust@@EUpar_t@cuda_cub@3@Urandom_access_traversal_tag@3@V?$reference@EV?$pointer@EUpar_t@cuda_cub@thrust@@Uuse_default@3@U43@@thrust@@Uuse_default@2@@3@_J@0@_J@Z
	??$?MDU?$char_traits@D@std@@V?$allocator@D@1@@std@@YA_NAEBV?$basic_string@DU?$char_traits@D@std@@V?$allocator@D@2@@0@0@Z
	??$AliasTemporaries@$02@cub@cuda_cub@thrust@@YA?AW4cudaError@@PEAXAEA_KAEAY02PEAXAEAY02_K@Z
	??$DeviceRadixSortDownsweepKernel@UPolicy700@?$DeviceRadixSortPolicy@NHH@cub@cuda_cub@thrust@@$00$0A@NHH@cub@cuda_cub@thrust@@YAXPEBNPEANPEBHPEAH3HHHU?$GridEvenShare@H@012@@Z
	??$DeviceRadixSortDownsweepKernel@UPolicy700@?$DeviceRadixSortPolicy@NHH@cub@cuda_cub@thrust@@$0A@$0A@NHH@cub@cuda_cub@thrust@@YAXPEBNPEANPEBHPEAH3HHHU?$GridEvenShare@H@012@@Z
	??$DeviceRadixSortDownsweepKernel@UPolicy700@?$DeviceRadixSortPolicy@NNH@cub@cuda_cub@thrust@@$00$0A@NNH@cub@cuda_cub@thrust@@YAXPEBNPEAN01PEAHHHHU?$GridEvenShare@H@012@@Z
	??$DeviceRadixSortDownsweepKernel@UPolicy700@?$DeviceRadixSortPolicy@NNH@cub@cuda_cub@thrust@@$0A@$0A@NNH@cub@cuda_cub@thrust@@YAXPEBNPEAN01PEAHHHHU?$GridEvenShare@H@012@@Z
	??$DeviceRadixSortSingleTileKernel@UPolicy700@?$DeviceRadixSortPolicy@NHH@cub@cuda_cub@thrust@@$0A@NHH@cub@cuda_cub@thrust@@YAXPEBNPEANPEBHPEAHHHH@Z
	??$DeviceRadixSortSingleTileKernel@UPolicy700@?$DeviceRadixSortPolicy@NNH@cub@cuda_cub@thrust@@$0A@NNH@cub@cuda_cub@thrust@@YAXPEBNPEAN01HHH@Z
	??$DeviceRadixSortUpsweepKernel@UPolicy700@?$DeviceRadixSortPolicy@NHH@cub@cuda_cub@thrust@@$00$0A@NH@cub@cuda_cub@thrust@@YAXPEBNPEAHHHHU?$GridEvenShare@H@012@@Z
	??$DeviceRadixSortUpsweepKernel@UPolicy700@?$DeviceRadixSortPolicy@NHH@cub@cuda_cub@thrust@@$0A@$0A@NH@cub@cuda_cub@thrust@@YAXPEBNPEAHHHHU?$GridEvenShare@H@012@@Z
	??$DeviceRadixSortUpsweepKernel@UPolicy700@?$DeviceRadixSortPolicy@NNH@cub@cuda_cub@thrust@@$00$0A@NH@cub@cuda_cub@thrust@@YAXPEBNPEAHHHHU?$GridEvenShare@H@012@@Z
	??$DeviceRadixSortUpsweepKernel@UPolicy700@?$DeviceRadixSortPolicy@NNH@cub@cuda_cub@thrust@@$0A@$0A@NH@cub@cuda_cub@thrust@@YAXPEBNPEAHHHHU?$GridEvenShare@H@012@@Z
	??$EmptyKernel@X@cub@cuda_cub@thrust@@YAXXZ
	??$Init@U?$AgentRadixSortDownsweepPolicy@$0EA@$08$02$04$01$01$05@cub@cuda_cub@thrust@@P6AXPEBNPEAHHHHU?$GridEvenShare@H@234@@Z@KernelConfig@cub@cuda_cub@thrust@@QEAA?AW4cudaError@@P6AXPEBNPEAHHHHU?$GridEvenShare@H@123@@Z@Z
	??$Init@U?$AgentRadixSortDownsweepPolicy@$0EA@$08$02$04$01$01$05@cub@cuda_cub@thrust@@P6AXPEBNPEAN01PEAHHHHU?$GridEvenShare@H@234@@Z@KernelConfig@cub@cuda_cub@thrust@@QEAA?AW4cudaError@@P6AXPEBNPEAN01PEAHHHHU?$GridEvenShare@H@123@@Z@Z
	??$Init@U?$AgentRadixSortDownsweepPolicy@$0EA@$08$02$04$01$01$05@cub@cuda_cub@thrust@@P6AXPEBNPEANPEBHPEAH3HHHU?$GridEvenShare@H@234@@Z@KernelConfig@cub@cuda_cub@thrust@@QEAA?AW4cudaError@@P6AXPEBNPEANPEBHPEAH3HHHU?$GridEvenShare@H@123@@Z@Z
	??$Init@U?$AgentRadixSortDownsweepPolicy@$0EA@$0DA@$02$0A@$0A@$01$06@cub@cuda_cub@thrust@@P6AXPEBNPEAHHHHU?$GridEvenShare@H@234@@Z@KernelConfig@cub@cuda_cub@thrust@@QEAA?AW4cudaError@@P6AXPEBNPEAHHHHU?$GridEvenShare@H@123@@Z@Z
	??$Init@U?$AgentRadixSortDownsweepPolicy@$0EA@$0DA@$02$0A@$0A@$01$06@cub@cuda_cub@thrust@@P6AXPEBNPEAN01PEAHHHHU?$GridEvenShare@H@234@@Z@KernelConfig@cub@cuda_cub@thrust@@QEAA?AW4cudaError@@P6AXPEBNPEAN01PEAHHHHU?$GridEvenShare@H@123@@Z@Z
	??$Init@U?$AgentRadixSortDownsweepPolicy@$0EA@$0DA@$02$0A@$0A@$01$06@cub@cuda_cub@thrust@@P6AXPEBNPEANPEBHPEAH3HHHU?$GridEvenShare@H@234@@Z@KernelConfig@cub@cuda_cub@thrust@@QEAA?AW4cudaError@@P6AXPEBNPEANPEBHPEAH3HHHU?$GridEvenShare@H@123@@Z@Z
	??$Init@U?$AgentRadixSortDownsweepPolicy@$0EA@$0P@$0A@$04$00$01$04@cub@cuda_cub@thrust@@P6AXPEBNPEAHHHHU?$GridEvenShare@H@234@@Z@KernelConfig@cub@cuda_cub@thrust@@QEAA?AW4cudaError@@P6AXPEBNPEAHHHHU?$GridEvenShare@H@123@@Z@Z
	??$Init@U?$AgentRadixSortDownsweepPolicy@$0EA@$0P@$0A@$04$00$01$04@cub@cuda_cub@thrust@@P6AXPEBNPEAN01PEAHHHHU?$GridEvenShare@H@234@@Z@KernelConfig@cub@cuda_cub@thrust@@QEAA?AW4cudaError@@P6AXPEBNPEAN01PEAHHHHU?$GridEvenShare@H@123@@Z@Z
	??$Init@U?$AgentRadixSortDownsweepPolicy@$0EA@$0P@$0A@$04$00$01$04@cub@cuda_cub@thrust@@P6AXPEBNPEANPEBHPEAH3HHHU?$GridEvenShare@H@234@@Z@KernelConfig@cub@cuda_cub@thrust@@QEAA?AW4cudaError@@P6AXPEBNPEANPEBHPEAH3HHHU?$GridEvenShare@H@123@@Z@Z
	??$Init@U?$AgentRadixSortDownsweepPolicy@$0GA@$0CH@$01$0A@$00$01$05@cub@cuda_cub@thrust@@P6AXPEBNPEAHHHHU?$GridEvenShare@H@234@@Z@KernelConfig@cub@cuda_cub@thrust@@QEAA?AW4cudaError@@P6AXPEBNPEAHHHHU?$GridEvenShare@H@123@@Z@Z
	??$Init@U?$AgentRadixSortDownsweepPolicy@$0GA@$0CH@$01$0A@$00$01$05@cub@cuda_cub@thrust@@P6AXPEBNPEAN01PEAHHHHU?$GridEvenShare@H@234@@Z@KernelConfig@cub@cuda_cub@thrust@@QEAA?AW4cudaError@@P6AXPEBNPEAN01PEAHHHHU?$GridEvenShare@H@123@@Z@Z
	??$Init@U?$AgentRadixSortDownsweepPolicy@$0GA@$0CH@$01$0A@$00$01$05@cub@cuda_cub@thrust@@P6AXPEBNPEANPEBHPEAH3HHHU?$GridEvenShare@H@234@@Z@KernelConfig@cub@cuda_cub@thrust@@QEAA?AW4cudaError@@P6AXPEBNPEANPEBHPEAH3HHHU?$GridEvenShare@H@123@@Z@Z
	??$Init@U?$AgentRadixSortDownsweepPolicy@$0IA@$04$01$0A@$0A@$01$03@cub@cuda_cub@thrust@@P6AXPEBNPEAN01PEAHHHHU?$GridEvenShare@H@234@@Z@KernelConfig@cub@cuda_cub@thrust@@QEAA?AW4cudaError@@P6AXPEBNPEAN01PEAHHHHU?$GridEvenShare@H@123@@Z@Z
	??$Init@U?$AgentRadixSortDownsweepPolicy@$0IA@$04$01$0A@$0A@$01$03@cub@cuda_cub@thrust@@P6AXPEBNPEANPEBHPEAH3HHHU?$GridEvenShare@H@234@@Z@KernelConfig@cub@cuda_cub@thrust@@QEAA?AW4cudaError@@P6AXPEBNPEANPEBHPEAH3HHHU?$GridEvenShare@H@123@@Z@Z
	??$Init@U?$AgentRadixSortDownsweepPolicy@$0IA@$04$01$0A@$0A@$01$04@cub@cuda_cub@thrust@@P6AXPEBNPEAN01PEAHHHHU?$GridEvenShare@H@234@@Z@KernelConfig@cub@cuda_cub@thrust@@QEAA?AW4cudaError@@P6AXPEBNPEAN01PEAHHHHU?$GridEvenShare@H@123@@Z@Z
	??$Init@U?$AgentRadixSortDownsweepPolicy@$0IA@$04$01$0A@$0A@$01$04@cub@cuda_cub@thrust@@P6AXPEBNPEANPEBHPEAH3HHHU?$GridEvenShare@H@234@@Z@KernelConfig@cub@cuda_cub@thrust@@QEAA?AW4cudaError@@P6AXPEBNPEANPEBHPEAH3HHHU?$GridEvenShare@H@123@@Z@Z
	??$Init@U?$AgentRadixSortDownsweepPolicy@$0IA@$05$02$0A@$0A@$01$03@cub@cuda_cub@thrust@@P6AXPEBNPEAN01PEAHHHHU?$GridEvenShare@H@234@@Z@KernelConfig@cub@cuda_cub@thrust@@QEAA?AW4cudaError@@P6AXPEBNPEAN01PEAHHHHU?$GridEvenShare@H@123@@Z@Z
	??$Init@U?$AgentRadixSortDownsweepPolicy@$0IA@$05$02$0A@$0A@$01$03@cub@cuda_cub@thrust@@P6AXPEBNPEANPEBHPEAH3HHHU?$GridEvenShare@H@234@@Z@KernelConfig@cub@cuda_cub@thrust@@QEAA?AW4cudaError@@P6AXPEBNPEANPEBHPEAH3HHHU?$GridEvenShare@H@123@@Z@Z
	??$Init@U?$AgentRadixSortDownsweepPolicy@$0IA@$05$02$0A@$0A@$01$04@cub@cuda_cub@thrust@@P6AXPEBNPEAN01PEAHHHHU?$GridEvenShare@H@234@@Z@KernelConfig@cub@cuda_cub@thrust@@QEAA?AW4cudaError@@P6AXPEBNPEAN01PEAHHHHU?$GridEvenShare@H@123@@Z@Z
	??$Init@U?$AgentRadixSortDownsweepPolicy@$0IA@$05$02$0A@$0A@$01$04@cub@cuda_cub@thrust@@P6AXPEBNPEANPEBHPEAH3HHHU?$GridEvenShare@H@234@@Z@KernelConfig@cub@cuda_cub@thrust@@QEAA?AW4cudaError@@P6AXPEBNPEANPEBHPEAH3HHHU?$GridEvenShare@H@123@@Z@Z
	??$Init@U?$AgentRadixSortDownsweepPolicy@$0IA@$0BA@$01$0A@$00$00$03@cub@cuda_cub@thrust@@P6AXPEBNPEAHHHHU?$GridEvenShare@H@234@@Z@KernelConfig@cub@cuda_cub@thrust@@QEAA?AW4cudaError@@P6AXPEBNPEAHHHHU?$GridEvenShare@H@123@@Z@Z
	??$Init@U?$AgentRadixSortDownsweepPolicy@$0IA@$0BA@$01$0A@$00$00$03@cub@cuda_cub@thrust@@P6AXPEBNPEAN01PEAHHHHU?$GridEvenShare@H@234@@Z@KernelConfig@cub@cuda_cub@thrust@@QEAA?AW4cudaError@@P6AXPEBNPEAN01PEAHHHHU?$GridEvenShare@H@123@@Z@Z
	??$Init@U?$AgentRadixSortDownsweepPolicy@$0IA@$0BA@$01$0A@$00$00$03@cub@cuda_cub@thrust@@P6AXPEBNPEANPEBHPEAH3HHHU?$GridEvenShare@H@234@@Z@KernelConfig@cub@cuda_cub@thrust@@QEAA?AW4cudaError@@P6AXPEBNPEANPEBHPEAH3HHHU?$GridEvenShare@H@123@@Z@Z
	??$Init@U?$AgentRadixSortDownsweepPolicy@$0IA@$0BA@$01$0A@$00$00$04@cub@cuda_cub@thrust@@P6AXPEBNPEAHHHHU?$GridEvenShare@H@234@@Z@KernelConfig@cub@cuda_cub@thrust@@QEAA?AW4cudaError@@P6AXPEBNPEAHHHHU?$GridEvenShare@H@123@@Z@Z
	??$Init@U?$AgentRadixSortDownsweepPolicy@$0IA@$0BA@$01$0A@$00$00$04@cub@cuda_cub@thrust@@P6AXPEBNPEAN01PEAHHHHU?$GridEvenShare@H@234@@Z@KernelConfig@cub@cuda_cub@thrust@@QEAA?AW4cudaError@@P6AXPEBNPEAN01PEAHHHHU?$GridEvenShare@H@123@@Z@Z
	??$Init@U?$AgentRadixSortDownsweepPolicy@$0IA@$0BA@$01$0A@$00$00$04@cub@cuda_cub@thrust@@P6AXPEBNPEANPEBHPEAH3HHHU?$GridEvenShare@H@234@@Z@KernelConfig@cub@cuda_cub@thrust@@QEAA?AW4cudaError@@P6AXPEBNPEANPEBHPEAH3HHHU?$GridEvenShare@H@123@@Z@Z
	??$Init@U?$AgentRadixSortDownsweepPolicy@$0IA@$0BA@$0A@$04$00$00$05@cub@cuda_cub@thrust@@P6AXPEBNPEAHHHHU?$GridEvenShare@H@234@@Z@KernelConfig@cub@cuda_cub@thrust@@QEAA?AW4cudaError@@P6AXPEBNPEAHHHHU?$GridEvenShare@H@123@@Z@Z
	??$Init@U?$AgentRadixSortDownsweepPolicy@$0IA@$0BA@$0A@$04$00$00$05@cub@cuda_cub@thrust@@P6AXPEBNPEAN01PEAHHHHU?$GridEvenShare@H@234@@Z@KernelConfig@cub@cuda_cub@thrust@@QEAA?AW4cudaError@@P6AXPEBNPEAN01PEAHHHHU?$GridEvenShare@H@123@@Z@Z
	??$Init@U?$AgentRadixSortDownsweepPolicy@$0IA@$0BA@$0A@$04$00$00$05@cub@cuda_cub@thrust@@P6AXPEBNPEANPEBHPEAH3HHHU?$GridEvenShare@H@234@@Z@KernelConfig@cub@cuda_cub@thrust@@QEAA?AW4cudaError@@P6AXPEBNPEANPEBHPEAH3HHHU?$GridEvenShare@H@123@@Z@Z
	??$Init@U?$AgentRadixSortDownsweepPolicy@$0IA@$0BJ@$01$0A@$00$01$05@cub@cuda_cub@thrust@@P6AXPEBNPEAHHHHU?$GridEvenShare@H@234@@Z@KernelConfig@cub@cuda_cub@thrust@@QEAA?AW4cudaError@@P6AXPEBNPEAHHHHU?$GridEvenShare@H@123@@Z@Z
	??$Init@U?$AgentRadixSortDownsweepPolicy@$0IA@$0BJ@$01$0A@$00$01$05@cub@cuda_cub@thrust@@P6AXPEBNPEAN01PEAHHHHU?$GridEvenShare@H@234@@Z@KernelConfig@cub@cuda_cub@thrust@@QEAA?AW4cudaError@@P6AXPEBNPEAN01PEAHHHHU?$GridEvenShare@H@123@@Z@Z
	??$Init@U?$AgentRadixSortDownsweepPolicy@$0IA@$0BJ@$01$0A@$00$01$05@cub@cuda_cub@thrust@@P6AXPEBNPEANPEBHPEAH3HHHU?$GridEvenShare@H@234@@Z@KernelConfig@cub@cuda_cub@thrust@@QEAA?AW4cudaError@@P6AXPEBNPEANPEBHPEAH3HHHU?$GridEvenShare@H@123@@Z@Z
	??$Init@U?$AgentRadixSortDownsweepPolicy@$0IA@$0BJ@$01$0A@$01$01$06@cub@cuda_cub@thrust@@P6AXPEBNPEAHHHHU?$GridEvenShare@H@234@@Z@KernelConfig@cub@cuda_cub@thrust@@QEAA?AW4cudaError@@P6AXPEBNPEAHHHHU?$GridEvenShare@H@123@@Z@Z
	??$Init@U?$AgentRadixSortDownsweepPolicy@$0IA@$0BJ@$01$0A@$01$01$06@cub@cuda_cub@thrust@@P6AXPEBNPEAN01PEAHHHHU?$GridEvenShare@H@234@@Z@KernelConfig@cub@cuda_cub@thrust@@QEAA?AW4cudaError@@P6AXPEBNPEAN01PEAHHHHU?$GridEvenShare@H@123@@Z@Z
	??$Init@U?$AgentRadixSortDownsweepPolicy@$0IA@$0BJ@$01$0A@$01$01$06@cub@cuda_cub@thrust@@P6AXPEBNPEANPEBHPEAH3HHHU?$GridEvenShare@H@234@@Z@KernelConfig@cub@cuda_cub@thrust@@QEAA?AW4cudaError@@P6AXPEBNPEANPEBHPEAH3HHHU?$GridEvenShare@H@123@@Z@Z
	??$Init@U?$AgentRadixSortDownsweepPolicy@$0IA@$0CD@$01$0A@$00$00$05@cub@cuda_cub@thrust@@P6AXPEBNPEAN01PEAHHHHU?$GridEvenShare@H@234@@Z@KernelConfig@cub@cuda_cub@thrust@@QEAA?AW4cudaError@@P6AXPEBNPEAN01PEAHHHHU?$GridEvenShare@H@123@@Z@Z
	??$Init@U?$AgentRadixSortDownsweepPolicy@$0IA@$0CD@$01$0A@$00$00$05@cub@cuda_cub@thrust@@P6AXPEBNPEANPEBHPEAH3HHHU?$GridEvenShare@H@234@@Z@KernelConfig@cub@cuda_cub@thrust@@QEAA?AW4cudaError@@P6AXPEBNPEANPEBHPEAH3HHHU?$GridEvenShare@H@123@@Z@Z
	??$Init@U?$AgentRadixSortDownsweepPolicy@$0MA@$0BP@$01$0A@$01$00$06@cub@cuda_cub@thrust@@P6AXPEBNPEAN01PEAHHHHU?$GridEvenShare@H@234@@Z@KernelConfig@cub@cuda_cub@thrust@@QEAA?AW4cudaError@@P6AXPEBNPEAN01PEAHHHHU?$GridEvenShare@H@123@@Z@Z
	??$Init@U?$AgentRadixSortDownsweepPolicy@$0MA@$0BP@$01$0A@$01$00$06@cub@cuda_cub@thrust@@P6AXPEBNPEANPEBHPEAH3HHHU?$GridEvenShare@H@234@@Z@KernelConfig@cub@cuda_cub@thrust@@QEAA?AW4cudaError@@P6AXPEBNPEANPEBHPEAH3HHHU?$GridEvenShare@H@123@@Z@Z
	??$Init@U?$AgentRadixSortUpsweepPolicy@$0BAA@$01$0A@$03@cub@cuda_cub@thrust@@P6AXPEBNPEAHHHHU?$GridEvenShare@H@234@@Z@KernelConfig@cub@cuda_cub@thrust@@QEAA?AW4cudaError@@P6AXPEBNPEAHHHHU?$GridEvenShare@H@123@@Z@Z
	??$Init@U?$AgentRadixSortUpsweepPolicy@$0BAA@$01$0A@$04@cub@cuda_cub@thrust@@P6AXPEBNPEAHHHHU?$GridEvenShare@H@234@@Z@KernelConfig@cub@cuda_cub@thrust@@QEAA?AW4cudaError@@P6AXPEBNPEAHHHHU?$GridEvenShare@H@123@@Z@Z
	??$Init@U?$AgentRadixSortUpsweepPolicy@$0EA@$0BA@$04$05@cub@cuda_cub@thrust@@P6AXPEBNPEAHHHHU?$GridEvenShare@H@234@@Z@KernelConfig@cub@cuda_cub@thrust@@QEAA?AW4cudaError@@P6AXPEBNPEAHHHHU?$GridEvenShare@H@123@@Z@Z
	??$Init@U?$AgentRadixSortUpsweepPolicy@$0EA@$0BA@$04$06@cub@cuda_cub@thrust@@P6AXPEBNPEAHHHHU?$GridEvenShare@H@234@@Z@KernelConfig@cub@cuda_cub@thrust@@QEAA?AW4cudaError@@P6AXPEBNPEAHHHHU?$GridEvenShare@H@123@@Z@Z
	??$Init@U?$AgentRadixSortUpsweepPolicy@$0IA@$05$0A@$03@cub@cuda_cub@thrust@@P6AXPEBNPEAHHHHU?$GridEvenShare@H@234@@Z@KernelConfig@cub@cuda_cub@thrust@@QEAA?AW4cudaError@@P6AXPEBNPEAHHHHU?$GridEvenShare@H@123@@Z@Z
	??$Init@U?$AgentRadixSortUpsweepPolicy@$0IA@$05$0A@$04@cub@cuda_cub@thrust@@P6AXPEBNPEAHHHHU?$GridEvenShare@H@234@@Z@KernelConfig@cub@cuda_cub@thrust@@QEAA?AW4cudaError@@P6AXPEBNPEAHHHHU?$GridEvenShare@H@123@@Z@Z
	??$Init@U?$AgentScanPolicy@$0CAA@$03$00$0A@$00$00@cub@cuda_cub@thrust@@P6AXPEAHH@Z@KernelConfig@cub@cuda_cub@thrust@@QEAA?AW4cudaError@@P6AXPEAHH@Z@Z
	??$Init@U?$AgentScanPolicy@$0CAA@$0BH@$02$0A@$02$00@cub@cuda_cub@thrust@@P6AXPEAHH@Z@KernelConfig@cub@cuda_cub@thrust@@QEAA?AW4cudaError@@P6AXPEAHH@Z@Z
	??$Init@U?$AgentScanPolicy@$0EAA@$03$00$0A@$00$01@cub@cuda_cub@thrust@@P6AXPEAHH@Z@KernelConfig@cub@cuda_cub@thrust@@QEAA?AW4cudaError@@P6AXPEAHH@Z@Z
	??$InitPassConfig@U?$AgentRadixSortDownsweepPolicy@$0EA@$08$02$04$01$01$05@cub@cuda_cub@thrust@@U?$AgentScanPolicy@$0EAA@$03$00$0A@$00$01@234@U1234@@?$PassConfig@P6AXPEBNPEAHHHHU?$GridEvenShare@H@cub@cuda_cub@thrust@@@ZP6AX1H@ZP6AX0PEAN031HHH2@Z@?$DispatchRadixSort@$0A@NNH@cub@cuda_cub@thrust@@QEAA?AW4cudaError@@P6AXPEBNPEAHHHHU?$GridEvenShare@H@234@@ZP6AX1H@ZP6AX0PEAN051HHH2@ZHHH@Z
	??$InitPassConfig@U?$AgentRadixSortDownsweepPolicy@$0EA@$08$02$04$01$01$05@cub@cuda_cub@thrust@@U?$AgentScanPolicy@$0EAA@$03$00$0A@$00$01@234@U1234@@?$PassConfig@P6AXPEBNPEAHHHHU?$GridEvenShare@H@cub@cuda_cub@thrust@@@ZP6AX1H@ZP6AX0PEANPEBH11HHH2@Z@?$DispatchRadixSort@$0A@NHH@cub@cuda_cub@thrust@@QEAA?AW4cudaError@@P6AXPEBNPEAHHHHU?$GridEvenShare@H@234@@ZP6AX1H@ZP6AX0PEANPEBH11HHH2@ZHHH@Z
	??$InitPassConfig@U?$AgentRadixSortDownsweepPolicy@$0EA@$0DA@$02$0A@$0A@$01$06@cub@cuda_cub@thrust@@U?$AgentScanPolicy@$0CAA@$0BH@$02$0A@$02$00@234@U1234@@?$PassConfig@P6AXPEBNPEAHHHHU?$GridEvenShare@H@cub@cuda_cub@thrust@@@ZP6AX1H@ZP6AX0PEAN031HHH2@Z@?$DispatchRadixSort@$0A@NNH@cub@cuda_cub@thrust@@QEAA?AW4cudaError@@P6AXPEBNPEAHHHHU?$GridEvenShare@H@234@@ZP6AX1H@ZP6AX0PEAN051HHH2@ZHHH@Z
	??$InitPassConfig@U?$AgentRadixSortDownsweepPolicy@$0EA@$0DA@$02$0A@$0A@$01$06@cub@cuda_cub@thrust@@U?$AgentScanPolicy@$0CAA@$0BH@$02$0A@$02$00@234@U1234@@?$PassConfig@P6AXPEBNPEAHHHHU?$GridEvenShare@H@cub@cuda_cub@thrust@@@ZP6AX1H@ZP6AX0PEANPEBH11HHH2@Z@?$DispatchRadixSort@$0A@NHH@cub@cuda_cub@thrust@@QEAA?AW4cudaError@@P6AXPEBNPEAHHHHU?$GridEvenShare@H@234@@ZP6AX1H@ZP6AX0PEANPEBH11HHH2@ZHHH@Z
	??$InitPassConfig@U?$AgentRadixSortDownsweepPolicy@$0EA@$0P@$0A@$04$00$01$04@cub@cuda_cub@thrust@@U?$AgentScanPolicy@$0EAA@$03$00$0A@$00$01@234@U1234@@?$PassConfig@P6AXPEBNPEAHHHHU?$GridEvenShare@H@cub@cuda_cub@thrust@@@ZP6AX1H@ZP6AX0PEAN031HHH2@Z@?$DispatchRadixSort@$0A@NNH@cub@cuda_cub@thrust@@QEAA?AW4cudaError@@P6AXPEBNPEAHHHHU?$GridEvenShare@H@234@@ZP6AX1H@ZP6AX0PEAN051HHH2@ZHHH@Z
	??$InitPassConfig@U?$AgentRadixSortDownsweepPolicy@$0EA@$0P@$0A@$04$00$01$04@cub@cuda_cub@thrust@@U?$AgentScanPolicy@$0EAA@$03$00$0A@$00$01@234@U1234@@?$PassConfig@P6AXPEBNPEAHHHHU?$GridEvenShare@H@cub@cuda_cub@thrust@@@ZP6AX1H@ZP6AX0PEANPEBH11HHH2@Z@?$DispatchRadixSort@$0A@NHH@cub@cuda_cub@thrust@@QEAA?AW4cudaError@@P6AXPEBNPEAHHHHU?$GridEvenShare@H@234@@ZP6AX1H@ZP6AX0PEANPEBH11HHH2@ZHHH@Z
	??$InitPassConfig@U?$AgentRadixSortDownsweepPolicy@$0GA@$0CH@$01$0A@$00$01$05@cub@cuda_cub@thrust@@U?$AgentScanPolicy@$0CAA@$0BH@$02$0A@$02$00@234@U1234@@?$PassConfig@P6AXPEBNPEAHHHHU?$GridEvenShare@H@cub@cuda_cub@thrust@@@ZP6AX1H@ZP6AX0PEAN031HHH2@Z@?$DispatchRadixSort@$0A@NNH@cub@cuda_cub@thrust@@QEAA?AW4cudaError@@P6AXPEBNPEAHHHHU?$GridEvenShare@H@234@@ZP6AX1H@ZP6AX0PEAN051HHH2@ZHHH@Z
	??$InitPassConfig@U?$AgentRadixSortDownsweepPolicy@$0GA@$0CH@$01$0A@$00$01$05@cub@cuda_cub@thrust@@U?$AgentScanPolicy@$0CAA@$0BH@$02$0A@$02$00@234@U1234@@?$PassConfig@P6AXPEBNPEAHHHHU?$GridEvenShare@H@cub@cuda_cub@thrust@@@ZP6AX1H@ZP6AX0PEANPEBH11HHH2@Z@?$DispatchRadixSort@$0A@NHH@cub@cuda_cub@thrust@@QEAA?AW4cudaError@@P6AXPEBNPEAHHHHU?$GridEvenShare@H@234@@ZP6AX1H@ZP6AX0PEANPEBH11HHH2@ZHHH@Z
	??$InitPassConfig@U?$AgentRadixSortDownsweepPolicy@$0IA@$0BA@$01$0A@$00$00$03@cub@cuda_cub@thrust@@U?$AgentScanPolicy@$0CAA@$0BH@$02$0A@$02$00@234@U1234@@?$PassConfig@P6AXPEBNPEAHHHHU?$GridEvenShare@H@cub@cuda_cub@thrust@@@ZP6AX1H@ZP6AX0PEAN031HHH2@Z@?$DispatchRadixSort@$0A@NNH@cub@cuda_cub@thrust@@QEAA?AW4cudaError@@P6AXPEBNPEAHHHHU?$GridEvenShare@H@234@@ZP6AX1H@ZP6AX0PEAN051HHH2@ZHHH@Z
	??$InitPassConfig@U?$AgentRadixSortDownsweepPolicy@$0IA@$0BA@$01$0A@$00$00$03@cub@cuda_cub@thrust@@U?$AgentScanPolicy@$0CAA@$0BH@$02$0A@$02$00@234@U1234@@?$PassConfig@P6AXPEBNPEAHHHHU?$GridEvenShare@H@cub@cuda_cub@thrust@@@ZP6AX1H@ZP6AX0PEANPEBH11HHH2@Z@?$DispatchRadixSort@$0A@NHH@cub@cuda_cub@thrust@@QEAA?AW4cudaError@@P6AXPEBNPEAHHHHU?$GridEvenShare@H@234@@ZP6AX1H@ZP6AX0PEANPEBH11HHH2@ZHHH@Z
	??$InitPassConfig@U?$AgentRadixSortDownsweepPolicy@$0IA@$0BA@$01$0A@$00$00$04@cub@cuda_cub@thrust@@U?$AgentScanPolicy@$0CAA@$0BH@$02$0A@$02$00@234@U1234@@?$PassConfig@P6AXPEBNPEAHHHHU?$GridEvenShare@H@cub@cuda_cub@thrust@@@ZP6AX1H@ZP6AX0PEAN031HHH2@Z@?$DispatchRadixSort@$0A@NNH@cub@cuda_cub@thrust@@QEAA?AW4cudaError@@P6AXPEBNPEAHHHHU?$GridEvenShare@H@234@@ZP6AX1H@ZP6AX0PEAN051HHH2@ZHHH@Z
	??$InitPassConfig@U?$AgentRadixSortDownsweepPolicy@$0IA@$0BA@$01$0A@$00$00$04@cub@cuda_cub@thrust@@U?$AgentScanPolicy@$0CAA@$0BH@$02$0A@$02$00@234@U1234@@?$PassConfig@P6AXPEBNPEAHHHHU?$GridEvenShare@H@cub@cuda_cub@thrust@@@ZP6AX1H@ZP6AX0PEANPEBH11HHH2@Z@?$DispatchRadixSort@$0A@NHH@cub@cuda_cub@thrust@@QEAA?AW4cudaError@@P6AXPEBNPEAHHHHU?$GridEvenShare@H@234@@ZP6AX1H@ZP6AX0PEANPEBH11HHH2@ZHHH@Z
	??$InitPassConfig@U?$AgentRadixSortDownsweepPolicy@$0IA@$0BA@$0A@$04$00$00$05@cub@cuda_cub@thrust@@U?$AgentScanPolicy@$0CAA@$0BH@$02$0A@$02$00@234@U1234@@?$PassConfig@P6AXPEBNPEAHHHHU?$GridEvenShare@H@cub@cuda_cub@thrust@@@ZP6AX1H@ZP6AX0PEAN031HHH2@Z@?$DispatchRadixSort@$0A@NNH@cub@cuda_cub@thrust@@QEAA?AW4cudaError@@P6AXPEBNPEAHHHHU?$GridEvenShare@H@234@@ZP6AX1H@ZP6AX0PEAN051HHH2@ZHHH@Z
	??$InitPassConfig@U?$AgentRadixSortDownsweepPolicy@$0IA@$0BA@$0A@$04$00$00$05@cub@cuda_cub@thrust@@U?$AgentScanPolicy@$0CAA@$0BH@$02$0A@$02$00@234@U1234@@?$PassConfig@P6AXPEBNPEAHHHHU?$GridEvenShare@H@cub@cuda_cub@thrust@@@ZP6AX1H@ZP6AX0PEANPEBH11HHH2@Z@?$DispatchRadixSort@$0A@NHH@cub@cuda_cub@thrust@@QEAA?AW4cudaError@@P6AXPEBNPEAHHHHU?$GridEvenShare@H@234@@ZP6AX1H@ZP6AX0PEANPEBH11HHH2@ZHHH@Z
	??$InitPassConfig@U?$AgentRadixSortDownsweepPolicy@$0IA@$0BJ@$01$0A@$00$01$05@cub@cuda_cub@thrust@@U?$AgentScanPolicy@$0CAA@$0BH@$02$0A@$02$00@234@U1234@@?$PassConfig@P6AXPEBNPEAHHHHU?$GridEvenShare@H@cub@cuda_cub@thrust@@@ZP6AX1H@ZP6AX0PEAN031HHH2@Z@?$DispatchRadixSort@$0A@NNH@cub@cuda_cub@thrust@@QEAA?AW4cudaError@@P6AXPEBNPEAHHHHU?$GridEvenShare@H@234@@ZP6AX1H@ZP6AX0PEAN051HHH2@ZHHH@Z
	??$InitPassConfig@U?$AgentRadixSortDownsweepPolicy@$0IA@$0BJ@$01$0A@$00$01$05@cub@cuda_cub@thrust@@U?$AgentScanPolicy@$0CAA@$0BH@$02$0A@$02$00@234@U1234@@?$PassConfig@P6AXPEBNPEAHHHHU?$GridEvenShare@H@cub@cuda_cub@thrust@@@ZP6AX1H@ZP6AX0PEANPEBH11HHH2@Z@?$DispatchRadixSort@$0A@NHH@cub@cuda_cub@thrust@@QEAA?AW4cudaError@@P6AXPEBNPEAHHHHU?$GridEvenShare@H@234@@ZP6AX1H@ZP6AX0PEANPEBH11HHH2@ZHHH@Z
	??$InitPassConfig@U?$AgentRadixSortDownsweepPolicy@$0IA@$0BJ@$01$0A@$01$01$06@cub@cuda_cub@thrust@@U?$AgentScanPolicy@$0CAA@$0BH@$02$0A@$02$00@234@U1234@@?$PassConfig@P6AXPEBNPEAHHHHU?$GridEvenShare@H@cub@cuda_cub@thrust@@@ZP6AX1H@ZP6AX0PEAN031HHH2@Z@?$DispatchRadixSort@$0A@NNH@cub@cuda_cub@thrust@@QEAA?AW4cudaError@@P6AXPEBNPEAHHHHU?$GridEvenShare@H@234@@ZP6AX1H@ZP6AX0PEAN051HHH2@ZHHH@Z
	??$InitPassConfig@U?$AgentRadixSortDownsweepPolicy@$0IA@$0BJ@$01$0A@$01$01$06@cub@cuda_cub@thrust@@U?$AgentScanPolicy@$0CAA@$0BH@$02$0A@$02$00@234@U1234@@?$PassConfig@P6AXPEBNPEAHHHHU?$GridEvenShare@H@cub@cuda_cub@thrust@@@ZP6AX1H@ZP6AX0PEANPEBH11HHH2@Z@?$DispatchRadixSort@$0A@NHH@cub@cuda_cub@thrust@@QEAA?AW4cudaError@@P6AXPEBNPEAHHHHU?$GridEvenShare@H@234@@ZP6AX1H@ZP6AX0PEANPEBH11HHH2@ZHHH@Z
	??$InitPassConfig@U?$AgentRadixSortUpsweepPolicy@$0BAA@$01$0A@$03@cub@cuda_cub@thrust@@U?$AgentScanPolicy@$0EAA@$03$00$0A@$00$01@234@U?$AgentRadixSortDownsweepPolicy@$0IA@$04$01$0A@$0A@$01$03@234@@?$PassConfig@P6AXPEBNPEAHHHHU?$GridEvenShare@H@cub@cuda_cub@thrust@@@ZP6AX1H@ZP6AX0PEAN031HHH2@Z@?$DispatchRadixSort@$0A@NNH@cub@cuda_cub@thrust@@QEAA?AW4cudaError@@P6AXPEBNPEAHHHHU?$GridEvenShare@H@234@@ZP6AX1H@ZP6AX0PEAN051HHH2@ZHHH@Z
	??$InitPassConfig@U?$AgentRadixSortUpsweepPolicy@$0BAA@$01$0A@$03@cub@cuda_cub@thrust@@U?$AgentScanPolicy@$0EAA@$03$00$0A@$00$01@234@U?$AgentRadixSortDownsweepPolicy@$0IA@$04$01$0A@$0A@$01$03@234@@?$PassConfig@P6AXPEBNPEAHHHHU?$GridEvenShare@H@cub@cuda_cub@thrust@@@ZP6AX1H@ZP6AX0PEANPEBH11HHH2@Z@?$DispatchRadixSort@$0A@NHH@cub@cuda_cub@thrust@@QEAA?AW4cudaError@@P6AXPEBNPEAHHHHU?$GridEvenShare@H@234@@ZP6AX1H@ZP6AX0PEANPEBH11HHH2@ZHHH@Z
	??$InitPassConfig@U?$AgentRadixSortUpsweepPolicy@$0BAA@$01$0A@$04@cub@cuda_cub@thrust@@U?$AgentScanPolicy@$0EAA@$03$00$0A@$00$01@234@U?$AgentRadixSortDownsweepPolicy@$0IA@$04$01$0A@$0A@$01$04@234@@?$PassConfig@P6AXPEBNPEAHHHHU?$GridEvenShare@H@cub@cuda_cub@thrust@@@ZP6AX1H@ZP6AX0PEAN031HHH2@Z@?$DispatchRadixSort@$0A@NNH@cub@cuda_cub@thrust@@QEAA?AW4cudaError@@P6AXPEBNPEAHHHHU?$GridEvenShare@H@234@@ZP6AX1H@ZP6AX0PEAN051HHH2@ZHHH@Z
	??$InitPassConfig@U?$AgentRadixSortUpsweepPolicy@$0BAA@$01$0A@$04@cub@cuda_cub@thrust@@U?$AgentScanPolicy@$0EAA@$03$00$0A@$00$01@234@U?$AgentRadixSortDownsweepPolicy@$0IA@$04$01$0A@$0A@$01$04@234@@?$PassConfig@P6AXPEBNPEAHHHHU?$GridEvenShare@H@cub@cuda_cub@thrust@@@ZP6AX1H@ZP6AX0PEANPEBH11HHH2@Z@?$DispatchRadixSort@$0A@NHH@cub@cuda_cub@thrust@@QEAA?AW4cudaError@@P6AXPEBNPEAHHHHU?$GridEvenShare@H@234@@ZP6AX1H@ZP6AX0PEANPEBH11HHH2@ZHHH@Z
	??$InitPassConfig@U?$AgentRadixSortUpsweepPolicy@$0EA@$0BA@$04$05@cub@cuda_cub@thrust@@U?$AgentScanPolicy@$0CAA@$0BH@$02$0A@$02$00@234@U?$AgentRadixSortDownsweepPolicy@$0IA@$0CD@$01$0A@$00$00$05@234@@?$PassConfig@P6AXPEBNPEAHHHHU?$GridEvenShare@H@cub@cuda_cub@thrust@@@ZP6AX1H@ZP6AX0PEAN031HHH2@Z@?$DispatchRadixSort@$0A@NNH@cub@cuda_cub@thrust@@QEAA?AW4cudaError@@P6AXPEBNPEAHHHHU?$GridEvenShare@H@234@@ZP6AX1H@ZP6AX0PEAN051HHH2@ZHHH@Z
	??$InitPassConfig@U?$AgentRadixSortUpsweepPolicy@$0EA@$0BA@$04$05@cub@cuda_cub@thrust@@U?$AgentScanPolicy@$0CAA@$0BH@$02$0A@$02$00@234@U?$AgentRadixSortDownsweepPolicy@$0IA@$0CD@$01$0A@$00$00$05@234@@?$PassConfig@P6AXPEBNPEAHHHHU?$GridEvenShare@H@cub@cuda_cub@thrust@@@ZP6AX1H@ZP6AX0PEANPEBH11HHH2@Z@?$DispatchRadixSort@$0A@NHH@cub@cuda_cub@thrust@@QEAA?AW4cudaError@@P6AXPEBNPEAHHHHU?$GridEvenShare@H@234@@ZP6AX1H@ZP6AX0PEANPEBH11HHH2@ZHHH@Z
	??$InitPassConfig@U?$AgentRadixSortUpsweepPolicy@$0EA@$0BA@$04$06@cub@cuda_cub@thrust@@U?$AgentScanPolicy@$0CAA@$0BH@$02$0A@$02$00@234@U?$AgentRadixSortDownsweepPolicy@$0MA@$0BP@$01$0A@$01$00$06@234@@?$PassConfig@P6AXPEBNPEAHHHHU?$GridEvenShare@H@cub@cuda_cub@thrust@@@ZP6AX1H@ZP6AX0PEAN031HHH2@Z@?$DispatchRadixSort@$0A@NNH@cub@cuda_cub@thrust@@QEAA?AW4cudaError@@P6AXPEBNPEAHHHHU?$GridEvenShare@H@234@@ZP6AX1H@ZP6AX0PEAN051HHH2@ZHHH@Z
	??$InitPassConfig@U?$AgentRadixSortUpsweepPolicy@$0EA@$0BA@$04$06@cub@cuda_cub@thrust@@U?$AgentScanPolicy@$0CAA@$0BH@$02$0A@$02$00@234@U?$AgentRadixSortDownsweepPolicy@$0MA@$0BP@$01$0A@$01$00$06@234@@?$PassConfig@P6AXPEBNPEAHHHHU?$GridEvenShare@H@cub@cuda_cub@thrust@@@ZP6AX1H@ZP6AX0PEANPEBH11HHH2@Z@?$DispatchRadixSort@$0A@NHH@cub@cuda_cub@thrust@@QEAA?AW4cudaError@@P6AXPEBNPEAHHHHU?$GridEvenShare@H@234@@ZP6AX1H@ZP6AX0PEANPEBH11HHH2@ZHHH@Z
	??$InitPassConfig@U?$AgentRadixSortUpsweepPolicy@$0IA@$05$0A@$03@cub@cuda_cub@thrust@@U?$AgentScanPolicy@$0CAA@$03$00$0A@$00$00@234@U?$AgentRadixSortDownsweepPolicy@$0IA@$05$02$0A@$0A@$01$03@234@@?$PassConfig@P6AXPEBNPEAHHHHU?$GridEvenShare@H@cub@cuda_cub@thrust@@@ZP6AX1H@ZP6AX0PEAN031HHH2@Z@?$DispatchRadixSort@$0A@NNH@cub@cuda_cub@thrust@@QEAA?AW4cudaError@@P6AXPEBNPEAHHHHU?$GridEvenShare@H@234@@ZP6AX1H@ZP6AX0PEAN051HHH2@ZHHH@Z
	??$InitPassConfig@U?$AgentRadixSortUpsweepPolicy@$0IA@$05$0A@$03@cub@cuda_cub@thrust@@U?$AgentScanPolicy@$0CAA@$03$00$0A@$00$00@234@U?$AgentRadixSortDownsweepPolicy@$0IA@$05$02$0A@$0A@$01$03@234@@?$PassConfig@P6AXPEBNPEAHHHHU?$GridEvenShare@H@cub@cuda_cub@thrust@@@ZP6AX1H@ZP6AX0PEANPEBH11HHH2@Z@?$DispatchRadixSort@$0A@NHH@cub@cuda_cub@thrust@@QEAA?AW4cudaError@@P6AXPEBNPEAHHHHU?$GridEvenShare@H@234@@ZP6AX1H@ZP6AX0PEANPEBH11HHH2@ZHHH@Z
	??$InitPassConfig@U?$AgentRadixSortUpsweepPolicy@$0IA@$05$0A@$04@cub@cuda_cub@thrust@@U?$AgentScanPolicy@$0CAA@$03$00$0A@$00$00@234@U?$AgentRadixSortDownsweepPolicy@$0IA@$05$02$0A@$0A@$01$04@234@@?$PassConfig@P6AXPEBNPEAHHHHU?$GridEvenShare@H@cub@cuda_cub@thrust@@@ZP6AX1H@ZP6AX0PEAN031HHH2@Z@?$DispatchRadixSort@$0A@NNH@cub@cuda_cub@thrust@@QEAA?AW4cudaError@@P6AXPEBNPEAHHHHU?$GridEvenShare@H@234@@ZP6AX1H@ZP6AX0PEAN051HHH2@ZHHH@Z
	??$InitPassConfig@U?$AgentRadixSortUpsweepPolicy@$0IA@$05$0A@$04@cub@cuda_cub@thrust@@U?$AgentScanPolicy@$0CAA@$03$00$0A@$00$00@234@U?$AgentRadixSortDownsweepPolicy@$0IA@$05$02$0A@$0A@$01$04@234@@?$PassConfig@P6AXPEBNPEAHHHHU?$GridEvenShare@H@cub@cuda_cub@thrust@@@ZP6AX1H@ZP6AX0PEANPEBH11HHH2@Z@?$DispatchRadixSort@$0A@NHH@cub@cuda_cub@thrust@@QEAA?AW4cudaError@@P6AXPEBNPEAHHHHU?$GridEvenShare@H@234@@ZP6AX1H@ZP6AX0PEANPEBH11HHH2@ZHHH@Z
	??$Invoke@U?$DispatchRadixSort@$0A@NHH@cub@cuda_cub@thrust@@@?$ChainedPolicy@$0BCM@UPolicy300@?$DeviceRadixSortPolicy@NHH@cub@cuda_cub@thrust@@UPolicy200@2345@@cub@cuda_cub@thrust@@SA?AW4cudaError@@HAEAU?$DispatchRadixSort@$0A@NHH@123@@Z
	??$Invoke@U?$DispatchRadixSort@$0A@NHH@cub@cuda_cub@thrust@@@?$ChainedPolicy@$0BFO@UPolicy350@?$DeviceRadixSortPolicy@NHH@cub@cuda_cub@thrust@@UPolicy300@2345@@cub@cuda_cub@thrust@@SA?AW4cudaError@@HAEAU?$DispatchRadixSort@$0A@NHH@123@@Z
	??$Invoke@U?$DispatchRadixSort@$0A@NHH@cub@cuda_cub@thrust@@@?$ChainedPolicy@$0BPE@UPolicy500@?$DeviceRadixSortPolicy@NHH@cub@cuda_cub@thrust@@UPolicy350@2345@@cub@cuda_cub@thrust@@SA?AW4cudaError@@HAEAU?$DispatchRadixSort@$0A@NHH@123@@Z
	??$Invoke@U?$DispatchRadixSort@$0A@NHH@cub@cuda_cub@thrust@@@?$ChainedPolicy@$0CFI@UPolicy600@?$DeviceRadixSortPolicy@NHH@cub@cuda_cub@thrust@@UPolicy500@2345@@cub@cuda_cub@thrust@@SA?AW4cudaError@@HAEAU?$DispatchRadixSort@$0A@NHH@123@@Z
	??$Invoke@U?$DispatchRadixSort@$0A@NHH@cub@cuda_cub@thrust@@@?$ChainedPolicy@$0CGC@UPolicy610@?$DeviceRadixSortPolicy@NHH@cub@cuda_cub@thrust@@UPolicy600@2345@@cub@cuda_cub@thrust@@SA?AW4cudaError@@HAEAU?$DispatchRadixSort@$0A@NHH@123@@Z
	??$Invoke@U?$DispatchRadixSort@$0A@NHH@cub@cuda_cub@thrust@@@?$ChainedPolicy@$0CGM@UPolicy620@?$DeviceRadixSortPolicy@NHH@cub@cuda_cub@thrust@@UPolicy610@2345@@cub@cuda_cub@thrust@@SA?AW4cudaError@@HAEAU?$DispatchRadixSort@$0A@NHH@123@@Z
	??$Invoke@U?$DispatchRadixSort@$0A@NHH@cub@cuda_cub@thrust@@@?$ChainedPolicy@$0CLM@UPolicy700@?$DeviceRadixSortPolicy@NHH@cub@cuda_cub@thrust@@UPolicy620@2345@@cub@cuda_cub@thrust@@SA?AW4cudaError@@HAEAU?$DispatchRadixSort@$0A@NHH@123@@Z
	??$Invoke@U?$DispatchRadixSort@$0A@NHH@cub@cuda_cub@thrust@@@?$ChainedPolicy@$0MI@UPolicy200@?$DeviceRadixSortPolicy@NHH@cub@cuda_cub@thrust@@U12345@@cub@cuda_cub@thrust@@SA?AW4cudaError@@HAEAU?$DispatchRadixSort@$0A@NHH@123@@Z
	??$Invoke@U?$DispatchRadixSort@$0A@NNH@cub@cuda_cub@thrust@@@?$ChainedPolicy@$0BCM@UPolicy300@?$DeviceRadixSortPolicy@NNH@cub@cuda_cub@thrust@@UPolicy200@2345@@cub@cuda_cub@thrust@@SA?AW4cudaError@@HAEAU?$DispatchRadixSort@$0A@NNH@123@@Z
	??$Invoke@U?$DispatchRadixSort@$0A@NNH@cub@cuda_cub@thrust@@@?$ChainedPolicy@$0BFO@UPolicy350@?$DeviceRadixSortPolicy@NNH@cub@cuda_cub@thrust@@UPolicy300@2345@@cub@cuda_cub@thrust@@SA?AW4cudaError@@HAEAU?$DispatchRadixSort@$0A@NNH@123@@Z
	??$Invoke@U?$DispatchRadixSort@$0A@NNH@cub@cuda_cub@thrust@@@?$ChainedPolicy@$0BPE@UPolicy500@?$DeviceRadixSortPolicy@NNH@cub@cuda_cub@thrust@@UPolicy350@2345@@cub@cuda_cub@thrust@@SA?AW4cudaError@@HAEAU?$DispatchRadixSort@$0A@NNH@123@@Z
	??$Invoke@U?$DispatchRadixSort@$0A@NNH@cub@cuda_cub@thrust@@@?$ChainedPolicy@$0CFI@UPolicy600@?$DeviceRadixSortPolicy@NNH@cub@cuda_cub@thrust@@UPolicy500@2345@@cub@cuda_cub@thrust@@SA?AW4cudaError@@HAEAU?$DispatchRadixSort@$0A@NNH@123@@Z
	??$Invoke@U?$DispatchRadixSort@$0A@NNH@cub@cuda_cub@thrust@@@?$ChainedPolicy@$0CGC@UPolicy610@?$DeviceRadixSortPolicy@NNH@cub@cuda_cub@thrust@@UPolicy600@2345@@cub@cuda_cub@thrust@@SA?AW4cudaError@@HAEAU?$DispatchRadixSort@$0A@NNH@123@@Z
	??$Invoke@U?$DispatchRadixSort@$0A@NNH@cub@cuda_cub@thrust@@@?$ChainedPolicy@$0CGM@UPolicy620@?$DeviceRadixSortPolicy@NNH@cub@cuda_cub@thrust@@UPolicy610@2345@@cub@cuda_cub@thrust@@SA?AW4cudaError@@HAEAU?$DispatchRadixSort@$0A@NNH@123@@Z
	??$Invoke@U?$DispatchRadixSort@$0A@NNH@cub@cuda_cub@thrust@@@?$ChainedPolicy@$0CLM@UPolicy700@?$DeviceRadixSortPolicy@NNH@cub@cuda_cub@thrust@@UPolicy620@2345@@cub@cuda_cub@thrust@@SA?AW4cudaError@@HAEAU?$DispatchRadixSort@$0A@NNH@123@@Z
	??$Invoke@U?$DispatchRadixSort@$0A@NNH@cub@cuda_cub@thrust@@@?$ChainedPolicy@$0MI@UPolicy200@?$DeviceRadixSortPolicy@NNH@cub@cuda_cub@thrust@@U12345@@cub@cuda_cub@thrust@@SA?AW4cudaError@@HAEAU?$DispatchRadixSort@$0A@NNH@123@@Z
	??$Invoke@UPolicy200@?$DeviceRadixSortPolicy@NHH@cub@cuda_cub@thrust@@@?$DispatchRadixSort@$0A@NHH@cub@cuda_cub@thrust@@QEAA?AW4cudaError@@XZ
	??$Invoke@UPolicy200@?$DeviceRadixSortPolicy@NNH@cub@cuda_cub@thrust@@@?$DispatchRadixSort@$0A@NNH@cub@cuda_cub@thrust@@QEAA?AW4cudaError@@XZ
	??$Invoke@UPolicy300@?$DeviceRadixSortPolicy@NHH@cub@cuda_cub@thrust@@@?$DispatchRadixSort@$0A@NHH@cub@cuda_cub@thrust@@QEAA?AW4cudaError@@XZ
	??$Invoke@UPolicy300@?$DeviceRadixSortPolicy@NNH@cub@cuda_cub@thrust@@@?$DispatchRadixSort@$0A@NNH@cub@cuda_cub@thrust@@QEAA?AW4cudaError@@XZ
	??$Invoke@UPolicy350@?$DeviceRadixSortPolicy@NHH@cub@cuda_cub@thrust@@@?$DispatchRadixSort@$0A@NHH@cub@cuda_cub@thrust@@QEAA?AW4cudaError@@XZ
	??$Invoke@UPolicy350@?$DeviceRadixSortPolicy@NNH@cub@cuda_cub@thrust@@@?$DispatchRadixSort@$0A@NNH@cub@cuda_cub@thrust@@QEAA?AW4cudaError@@XZ
	??$Invoke@UPolicy500@?$DeviceRadixSortPolicy@NHH@cub@cuda_cub@thrust@@@?$DispatchRadixSort@$0A@NHH@cub@cuda_cub@thrust@@QEAA?AW4cudaError@@XZ
	??$Invoke@UPolicy500@?$DeviceRadixSortPolicy@NNH@cub@cuda_cub@thrust@@@?$DispatchRadixSort@$0A@NNH@cub@cuda_cub@thrust@@QEAA?AW4cudaError@@XZ
	??$Invoke@UPolicy600@?$DeviceRadixSortPolicy@NHH@cub@cuda_cub@thrust@@@?$DispatchRadixSort@$0A@NHH@cub@cuda_cub@thrust@@QEAA?AW4cudaError@@XZ
	??$Invoke@UPolicy600@?$DeviceRadixSortPolicy@NNH@cub@cuda_cub@thrust@@@?$DispatchRadixSort@$0A@NNH@cub@cuda_cub@thrust@@QEAA?AW4cudaError@@XZ
	??$Invoke@UPolicy610@?$DeviceRadixSortPolicy@NHH@cub@cuda_cub@thrust@@@?$DispatchRadixSort@$0A@NHH@cub@cuda_cub@thrust@@QEAA?AW4cudaError@@XZ
	??$Invoke@UPolicy610@?$DeviceRadixSortPolicy@NNH@cub@cuda_cub@thrust@@@?$DispatchRadixSort@$0A@NNH@cub@cuda_cub@thrust@@QEAA?AW4cudaError@@XZ
	??$Invoke@UPolicy620@?$DeviceRadixSortPolicy@NHH@cub@cuda_cub@thrust@@@?$DispatchRadixSort@$0A@NHH@cub@cuda_cub@thrust@@QEAA?AW4cudaError@@XZ
	??$Invoke@UPolicy620@?$DeviceRadixSortPolicy@NNH@cub@cuda_cub@thrust@@@?$DispatchRadixSort@$0A@NNH@cub@cuda_cub@thrust@@QEAA?AW4cudaError@@XZ
	??$Invoke@UPolicy700@?$DeviceRadixSortPolicy@NHH@cub@cuda_cub@thrust@@@?$DispatchRadixSort@$0A@NHH@cub@cuda_cub@thrust@@QEAA?AW4cudaError@@XZ
	??$Invoke@UPolicy700@?$DeviceRadixSortPolicy@NNH@cub@cuda_cub@thrust@@@?$DispatchRadixSort@$0A@NNH@cub@cuda_cub@thrust@@QEAA?AW4cudaError@@XZ
	??$InvokePass@U?$PassConfig@P6AXPEBNPEAHHHHU?$GridEvenShare@H@cub@cuda_cub@thrust@@@ZP6AX1H@ZP6AX0PEAN031HHH2@Z@?$DispatchRadixSort@$0A@NNH@cub@cuda_cub@thrust@@@?$DispatchRadixSort@$0A@NNH@cub@cuda_cub@thrust@@QEAA?AW4cudaError@@PEBNPEAN01PEAHHAEAHAEAU?$PassConfig@P6AXPEBNPEAHHHHU?$GridEvenShare@H@cub@cuda_cub@thrust@@@ZP6AX1H@ZP6AX0PEAN031HHH2@Z@0123@@Z
	??$InvokePass@U?$PassConfig@P6AXPEBNPEAHHHHU?$GridEvenShare@H@cub@cuda_cub@thrust@@@ZP6AX1H@ZP6AX0PEANPEBH11HHH2@Z@?$DispatchRadixSort@$0A@NHH@cub@cuda_cub@thrust@@@?$DispatchRadixSort@$0A@NHH@cub@cuda_cub@thrust@@QEAA?AW4cudaError@@PEBNPEANPEBHPEAH3HAEAHAEAU?$PassConfig@P6AXPEBNPEAHHHHU?$GridEvenShare@H@cub@cuda_cub@thrust@@@ZP6AX1H@ZP6AX0PEANPEBH11HHH2@Z@0123@@Z
	??$InvokePasses@UPolicy200@?$DeviceRadixSortPolicy@NHH@cub@cuda_cub@thrust@@P6AXPEBNPEAHHHHU?$GridEvenShare@H@345@@ZP6AX1H@ZP6AX0PEANPEBH11HHH2@Z@?$DispatchRadixSort@$0A@NHH@cub@cuda_cub@thrust@@QEAA?AW4cudaError@@P6AXPEBNPEAHHHHU?$GridEvenShare@H@123@@Z3P6AX1H@ZP6AX0PEANPEBH11HHH2@Z7@Z
	??$InvokePasses@UPolicy200@?$DeviceRadixSortPolicy@NNH@cub@cuda_cub@thrust@@P6AXPEBNPEAHHHHU?$GridEvenShare@H@345@@ZP6AX1H@ZP6AX0PEAN031HHH2@Z@?$DispatchRadixSort@$0A@NNH@cub@cuda_cub@thrust@@QEAA?AW4cudaError@@P6AXPEBNPEAHHHHU?$GridEvenShare@H@123@@Z3P6AX1H@ZP6AX0PEAN051HHH2@Z6@Z
	??$InvokePasses@UPolicy300@?$DeviceRadixSortPolicy@NHH@cub@cuda_cub@thrust@@P6AXPEBNPEAHHHHU?$GridEvenShare@H@345@@ZP6AX1H@ZP6AX0PEANPEBH11HHH2@Z@?$DispatchRadixSort@$0A@NHH@cub@cuda_cub@thrust@@QEAA?AW4cudaError@@P6AXPEBNPEAHHHHU?$GridEvenShare@H@123@@Z3P6AX1H@ZP6AX0PEANPEBH11HHH2@Z7@Z
	??$InvokePasses@UPolicy300@?$DeviceRadixSortPolicy@NNH@cub@cuda_cub@thrust@@P6AXPEBNPEAHHHHU?$GridEvenShare@H@345@@ZP6AX1H@ZP6AX0PEAN031HHH2@Z@?$DispatchRadixSort@$0A@NNH@cub@cuda_cub@thrust@@QEAA?AW4cudaError@@P6AXPEBNPEAHHHHU?$GridEvenShare@H@123@@Z3P6AX1H@ZP6AX0PEAN051HHH2@Z6@Z
	??$InvokePasses@UPolicy350@?$DeviceRadixSortPolicy@NHH@cub@cuda_cub@thrust@@P6AXPEBNPEAHHHHU?$GridEvenShare@H@345@@ZP6AX1H@ZP6AX0PEANPEBH11HHH2@Z@?$DispatchRadixSort@$0A@NHH@cub@cuda_cub@thrust@@QEAA?AW4cudaError@@P6AXPEBNPEAHHHHU?$GridEvenShare@H@123@@Z3P6AX1H@ZP6AX0PEANPEBH11HHH2@Z7@Z
	??$InvokePasses@UPolicy350@?$DeviceRadixSortPolicy@NNH@cub@cuda_cub@thrust@@P6AXPEBNPEAHHHHU?$GridEvenShare@H@345@@ZP6AX1H@ZP6AX0PEAN031HHH2@Z@?$DispatchRadixSort@$0A@NNH@cub@cuda_cub@thrust@@QEAA?AW4cudaError@@P6AXPEBNPEAHHHHU?$GridEvenShare@H@123@@Z3P6AX1H@ZP6AX0PEAN051HHH2@Z6@Z
	??$InvokePasses@UPolicy500@?$DeviceRadixSortPolicy@NHH@cub@cuda_cub@thrust@@P6AXPEBNPEAHHHHU?$GridEvenShare@H@345@@ZP6AX1H@ZP6AX0PEANPEBH11HHH2@Z@?$DispatchRadixSort@$0A@NHH@cub@cuda_cub@thrust@@QEAA?AW4cudaError@@P6AXPEBNPEAHHHHU?$GridEvenShare@H@123@@Z3P6AX1H@ZP6AX0PEANPEBH11HHH2@Z7@Z
	??$InvokePasses@UPolicy500@?$DeviceRadixSortPolicy@NNH@cub@cuda_cub@thrust@@P6AXPEBNPEAHHHHU?$GridEvenShare@H@345@@ZP6AX1H@ZP6AX0PEAN031HHH2@Z@?$DispatchRadixSort@$0A@NNH@cub@cuda_cub@thrust@@QEAA?AW4cudaError@@P6AXPEBNPEAHHHHU?$GridEvenShare@H@123@@Z3P6AX1H@ZP6AX0PEAN051HHH2@Z6@Z
	??$InvokePasses@UPolicy600@?$DeviceRadixSortPolicy@NHH@cub@cuda_cub@thrust@@P6AXPEBNPEAHHHHU?$GridEvenShare@H@345@@ZP6AX1H@ZP6AX0PEANPEBH11HHH2@Z@?$DispatchRadixSort@$0A@NHH@cub@cuda_cub@thrust@@QEAA?AW4cudaError@@P6AXPEBNPEAHHHHU?$GridEvenShare@H@123@@Z3P6AX1H@ZP6AX0PEANPEBH11HHH2@Z7@Z
	??$InvokePasses@UPolicy600@?$DeviceRadixSortPolicy@NNH@cub@cuda_cub@thrust@@P6AXPEBNPEAHHHHU?$GridEvenShare@H@345@@ZP6AX1H@ZP6AX0PEAN031HHH2@Z@?$DispatchRadixSort@$0A@NNH@cub@cuda_cub@thrust@@QEAA?AW4cudaError@@P6AXPEBNPEAHHHHU?$GridEvenShare@H@123@@Z3P6AX1H@ZP6AX0PEAN051HHH2@Z6@Z
	??$InvokePasses@UPolicy610@?$DeviceRadixSortPolicy@NHH@cub@cuda_cub@thrust@@P6AXPEBNPEAHHHHU?$GridEvenShare@H@345@@ZP6AX1H@ZP6AX0PEANPEBH11HHH2@Z@?$DispatchRadixSort@$0A@NHH@cub@cuda_cub@thrust@@QEAA?AW4cudaError@@P6AXPEBNPEAHHHHU?$GridEvenShare@H@123@@Z3P6AX1H@ZP6AX0PEANPEBH11HHH2@Z7@Z
	??$InvokePasses@UPolicy610@?$DeviceRadixSortPolicy@NNH@cub@cuda_cub@thrust@@P6AXPEBNPEAHHHHU?$GridEvenShare@H@345@@ZP6AX1H@ZP6AX0PEAN031HHH2@Z@?$DispatchRadixSort@$0A@NNH@cub@cuda_cub@thrust@@QEAA?AW4cudaError@@P6AXPEBNPEAHHHHU?$GridEvenShare@H@123@@Z3P6AX1H@ZP6AX0PEAN051HHH2@Z6@Z
	??$InvokePasses@UPolicy620@?$DeviceRadixSortPolicy@NHH@cub@cuda_cub@thrust@@P6AXPEBNPEAHHHHU?$GridEvenShare@H@345@@ZP6AX1H@ZP6AX0PEANPEBH11HHH2@Z@?$DispatchRadixSort@$0A@NHH@cub@cuda_cub@thrust@@QEAA?AW4cudaError@@P6AXPEBNPEAHHHHU?$GridEvenShare@H@123@@Z3P6AX1H@ZP6AX0PEANPEBH11HHH2@Z7@Z
	??$InvokePasses@UPolicy620@?$DeviceRadixSortPolicy@NNH@cub@cuda_cub@thrust@@P6AXPEBNPEAHHHHU?$GridEvenShare@H@345@@ZP6AX1H@ZP6AX0PEAN031HHH2@Z@?$DispatchRadixSort@$0A@NNH@cub@cuda_cub@thrust@@QEAA?AW4cudaError@@P6AXPEBNPEAHHHHU?$GridEvenShare@H@123@@Z3P6AX1H@ZP6AX0PEAN051HHH2@Z6@Z
	??$InvokePasses@UPolicy700@?$DeviceRadixSortPolicy@NHH@cub@cuda_cub@thrust@@P6AXPEBNPEAHHHHU?$GridEvenShare@H@345@@ZP6AX1H@ZP6AX0PEANPEBH11HHH2@Z@?$DispatchRadixSort@$0A@NHH@cub@cuda_cub@thrust@@QEAA?AW4cudaError@@P6AXPEBNPEAHHHHU?$GridEvenShare@H@123@@Z3P6AX1H@ZP6AX0PEANPEBH11HHH2@Z7@Z
	??$InvokePasses@UPolicy700@?$DeviceRadixSortPolicy@NNH@cub@cuda_cub@thrust@@P6AXPEBNPEAHHHHU?$GridEvenShare@H@345@@ZP6AX1H@ZP6AX0PEAN031HHH2@Z@?$DispatchRadixSort@$0A@NNH@cub@cuda_cub@thrust@@QEAA?AW4cudaError@@P6AXPEBNPEAHHHHU?$GridEvenShare@H@123@@Z3P6AX1H@ZP6AX0PEAN051HHH2@Z6@Z
	??$InvokeSingleTile@UPolicy200@?$DeviceRadixSortPolicy@NHH@cub@cuda_cub@thrust@@P6AXPEBNPEANPEBHPEAHHHH@Z@?$DispatchRadixSort@$0A@NHH@cub@cuda_cub@thrust@@QEAA?AW4cudaError@@P6AXPEBNPEANPEBHPEAHHHH@Z@Z
	??$InvokeSingleTile@UPolicy200@?$DeviceRadixSortPolicy@NNH@cub@cuda_cub@thrust@@P6AXPEBNPEAN01HHH@Z@?$DispatchRadixSort@$0A@NNH@cub@cuda_cub@thrust@@QEAA?AW4cudaError@@P6AXPEBNPEAN01HHH@Z@Z
	??$InvokeSingleTile@UPolicy300@?$DeviceRadixSortPolicy@NHH@cub@cuda_cub@thrust@@P6AXPEBNPEANPEBHPEAHHHH@Z@?$DispatchRadixSort@$0A@NHH@cub@cuda_cub@thrust@@QEAA?AW4cudaError@@P6AXPEBNPEANPEBHPEAHHHH@Z@Z
	??$InvokeSingleTile@UPolicy300@?$DeviceRadixSortPolicy@NNH@cub@cuda_cub@thrust@@P6AXPEBNPEAN01HHH@Z@?$DispatchRadixSort@$0A@NNH@cub@cuda_cub@thrust@@QEAA?AW4cudaError@@P6AXPEBNPEAN01HHH@Z@Z
	??$InvokeSingleTile@UPolicy350@?$DeviceRadixSortPolicy@NHH@cub@cuda_cub@thrust@@P6AXPEBNPEANPEBHPEAHHHH@Z@?$DispatchRadixSort@$0A@NHH@cub@cuda_cub@thrust@@QEAA?AW4cudaError@@P6AXPEBNPEANPEBHPEAHHHH@Z@Z
	??$InvokeSingleTile@UPolicy350@?$DeviceRadixSortPolicy@NNH@cub@cuda_cub@thrust@@P6AXPEBNPEAN01HHH@Z@?$DispatchRadixSort@$0A@NNH@cub@cuda_cub@thrust@@QEAA?AW4cudaError@@P6AXPEBNPEAN01HHH@Z@Z
	??$InvokeSingleTile@UPolicy500@?$DeviceRadixSortPolicy@NHH@cub@cuda_cub@thrust@@P6AXPEBNPEANPEBHPEAHHHH@Z@?$DispatchRadixSort@$0A@NHH@cub@cuda_cub@thrust@@QEAA?AW4cudaError@@P6AXPEBNPEANPEBHPEAHHHH@Z@Z
	??$InvokeSingleTile@UPolicy500@?$DeviceRadixSortPolicy@NNH@cub@cuda_cub@thrust@@P6AXPEBNPEAN01HHH@Z@?$DispatchRadixSort@$0A@NNH@cub@cuda_cub@thrust@@QEAA?AW4cudaError@@P6AXPEBNPEAN01HHH@Z@Z
	??$InvokeSingleTile@UPolicy600@?$DeviceRadixSortPolicy@NHH@cub@cuda_cub@thrust@@P6AXPEBNPEANPEBHPEAHHHH@Z@?$DispatchRadixSort@$0A@NHH@cub@cuda_cub@thrust@@QEAA?AW4cudaError@@P6AXPEBNPEANPEBHPEAHHHH@Z@Z
	??$InvokeSingleTile@UPolicy600@?$DeviceRadixSortPolicy@NNH@cub@cuda_cub@thrust@@P6AXPEBNPEAN01HHH@Z@?$DispatchRadixSort@$0A@NNH@cub@cuda_cub@thrust@@QEAA?AW4cudaError@@P6AXPEBNPEAN01HHH@Z@Z
	??$InvokeSingleTile@UPolicy610@?$DeviceRadixSortPolicy@NHH@cub@cuda_cub@thrust@@P6AXPEBNPEANPEBHPEAHHHH@Z@?$DispatchRadixSort@$0A@NHH@cub@cuda_cub@thrust@@QEAA?AW4cudaError@@P6AXPEBNPEANPEBHPEAHHHH@Z@Z
	??$InvokeSingleTile@UPolicy610@?$DeviceRadixSortPolicy@NNH@cub@cuda_cub@thrust@@P6AXPEBNPEAN01HHH@Z@?$DispatchRadixSort@$0A@NNH@cub@cuda_cub@thrust@@QEAA?AW4cudaError@@P6AXPEBNPEAN01HHH@Z@Z
	??$InvokeSingleTile@UPolicy620@?$DeviceRadixSortPolicy@NHH@cub@cuda_cub@thrust@@P6AXPEBNPEANPEBHPEAHHHH@Z@?$DispatchRadixSort@$0A@NHH@cub@cuda_cub@thrust@@QEAA?AW4cudaError@@P6AXPEBNPEANPEBHPEAHHHH@Z@Z
	??$InvokeSingleTile@UPolicy620@?$DeviceRadixSortPolicy@NNH@cub@cuda_cub@thrust@@P6AXPEBNPEAN01HHH@Z@?$DispatchRadixSort@$0A@NNH@cub@cuda_cub@thrust@@QEAA?AW4cudaError@@P6AXPEBNPEAN01HHH@Z@Z
	??$InvokeSingleTile@UPolicy700@?$DeviceRadixSortPolicy@NHH@cub@cuda_cub@thrust@@P6AXPEBNPEANPEBHPEAHHHH@Z@?$DispatchRadixSort@$0A@NHH@cub@cuda_cub@thrust@@QEAA?AW4cudaError@@P6AXPEBNPEANPEBHPEAHHHH@Z@Z
	??$InvokeSingleTile@UPolicy700@?$DeviceRadixSortPolicy@NNH@cub@cuda_cub@thrust@@P6AXPEBNPEAN01HHH@Z@?$DispatchRadixSort@$0A@NNH@cub@cuda_cub@thrust@@QEAA?AW4cudaError@@P6AXPEBNPEAN01HHH@Z@Z
	??$MaxSmOccupancy@P6AXPEAHH@Z@cub@cuda_cub@thrust@@YA?AW4cudaError@@AEAHP6AXPEAHH@ZHH@Z
	??$MaxSmOccupancy@P6AXPEBNPEAHHHHU?$GridEvenShare@H@cub@cuda_cub@thrust@@@Z@cub@cuda_cub@thrust@@YA?AW4cudaError@@AEAHP6AXPEBNPEAHHHHU?$GridEvenShare@H@012@@ZHH@Z
	??$MaxSmOccupancy@P6AXPEBNPEAN01PEAHHHHU?$GridEvenShare@H@cub@cuda_cub@thrust@@@Z@cub@cuda_cub@thrust@@YA?AW4cudaError@@AEAHP6AXPEBNPEAN12PEAHHHHU?$GridEvenShare@H@012@@ZHH@Z
	??$MaxSmOccupancy@P6AXPEBNPEANPEBHPEAH3HHHU?$GridEvenShare@H@cub@cuda_cub@thrust@@@Z@cub@cuda_cub@thrust@@YA?AW4cudaError@@AEAHP6AXPEBNPEANPEBHPEAH4HHHU?$GridEvenShare@H@012@@ZHH@Z
	??$MaxSmOccupancy@P6AXU?$unary_transform_f@PEAHPEAHUno_stencil_tag@__transform@cuda_cub@thrust@@U?$identity@H@4@Ualways_true_predicate@234@@__transform@cuda_cub@thrust@@_J@Z@cub@cuda_cub@thrust@@YA?AW4cudaError@@AEAHP6AXU?$unary_transform_f@PEAHPEAHUno_stencil_tag@__transform@cuda_cub@thrust@@U?$identity@H@4@Ualways_true_predicate@234@@__transform@12@_J@ZHH@Z
	??$MaxSmOccupancy@P6AXU?$unary_transform_f@PEANPEANUno_stencil_tag@__transform@cuda_cub@thrust@@U?$identity@N@4@Ualways_true_predicate@234@@__transform@cuda_cub@thrust@@_J@Z@cub@cuda_cub@thrust@@YA?AW4cudaError@@AEAHP6AXU?$unary_transform_f@PEANPEANUno_stencil_tag@__transform@cuda_cub@thrust@@U?$identity@N@4@Ualways_true_predicate@234@@__transform@12@_J@ZHH@Z
	??$RadixSortScanBinsKernel@UPolicy700@?$DeviceRadixSortPolicy@NHH@cub@cuda_cub@thrust@@H@cub@cuda_cub@thrust@@YAXPEAHH@Z
	??$RadixSortScanBinsKernel@UPolicy700@?$DeviceRadixSortPolicy@NNH@cub@cuda_cub@thrust@@H@cub@cuda_cub@thrust@@YAXPEAHH@Z
	??$SortPairs@NH@DeviceRadixSort@cub@cuda_cub@thrust@@SA?AW4cudaError@@PEAXAEA_KAEAU?$DoubleBuffer@N@123@AEAU?$DoubleBuffer@H@123@HHHPEAUCUstream_st@@_N@Z
	??$SortPairs@NN@DeviceRadixSort@cub@cuda_cub@thrust@@SA?AW4cudaError@@PEAXAEA_KAEAU?$DoubleBuffer@N@123@2HHHPEAUCUstream_st@@_N@Z
	??$_Adl_verify_range@PEADPEAD@std@@YAXAEBQEAD0@Z
	??$_Adl_verify_range@PEAHPEAH@std@@YAXAEBQEAH0@Z
	??$_Adl_verify_range@PEAMPEAM@std@@YAXAEBQEAM0@Z
	??$_Adl_verify_range@V?$_String_const_iterator@V?$_String_val@U?$_Simple_types@D@std@@@std@@@std@@V12@@std@@YAXAEBV?$_String_const_iterator@V?$_String_val@U?$_Simple_types@D@std@@@std@@@0@0@Z
	??$_Adl_verify_range@V?$_String_iterator@V?$_String_val@U?$_Simple_types@D@std@@@std@@@std@@V12@@std@@YAXAEBV?$_String_iterator@V?$_String_val@U?$_Simple_types@D@std@@@std@@@0@0@Z
	??$_Adl_verify_range@V?$_Tree_unchecked_const_iterator@V?$_Tree_val@U?$_Tree_simple_types@U?$pair@$$CBV?$basic_string@DU?$char_traits@D@std@@V?$allocator@D@2@@std@@PEAVLogger@el@@@std@@@std@@@std@@U_Iterator_base0@2@@std@@V12@@std@@YAXAEBV?$_Tree_unchecked_const_iterator@V?$_Tree_val@U?$_Tree_simple_types@U?$pair@$$CBV?$basic_string@DU?$char_traits@D@std@@V?$allocator@D@2@@std@@PEAVLogger@el@@@std@@@std@@@std@@U_Iterator_base0@2@@0@0@Z
	??$_Adl_verify_range@V?$_Vector_const_iterator@V?$_Vector_val@U?$_Simple_types@H@std@@@std@@@std@@V12@@std@@YAXAEBV?$_Vector_const_iterator@V?$_Vector_val@U?$_Simple_types@H@std@@@std@@@0@0@Z
	??$_Adl_verify_range@V?$_Vector_const_iterator@V?$_Vector_val@U?$_Simple_types@V?$basic_string@DU?$char_traits@D@std@@V?$allocator@D@2@@std@@@std@@@std@@@std@@V12@@std@@YAXAEBV?$_Vector_const_iterator@V?$_Vector_val@U?$_Simple_types@V?$basic_string@DU?$char_traits@D@std@@V?$allocator@D@2@@std@@@std@@@std@@@0@0@Z
	??$_Adl_verify_range@V?$_Vector_const_iterator@V?$_Vector_val@U?$_Simple_types@V?$vector@Unode@DataSet@@V?$allocator@Unode@DataSet@@@std@@@std@@@std@@@std@@@std@@V12@@std@@YAXAEBV?$_Vector_const_iterator@V?$_Vector_val@U?$_Simple_types@V?$vector@Unode@DataSet@@V?$allocator@Unode@DataSet@@@std@@@std@@@std@@@std@@@0@0@Z
	??$_Adl_verify_range@V?$_Vector_iterator@V?$_Vector_val@U?$_Simple_types@H@std@@@std@@@std@@V12@@std@@YAXAEBV?$_Vector_iterator@V?$_Vector_val@U?$_Simple_types@H@std@@@std@@@0@0@Z
	??$_Adl_verify_range@V?$_Vector_iterator@V?$_Vector_val@U?$_Simple_types@N@std@@@std@@@std@@V12@@std@@YAXAEBV?$_Vector_iterator@V?$_Vector_val@U?$_Simple_types@N@std@@@std@@@0@0@Z
	??$_Adl_verify_range@V?$_Vector_iterator@V?$_Vector_val@U?$_Simple_types@PEAVConfiguration@el@@@std@@@std@@@std@@V12@@std@@YAXAEBV?$_Vector_iterator@V?$_Vector_val@U?$_Simple_types@PEAVConfiguration@el@@@std@@@std@@@0@0@Z
	??$_Adl_verify_range@V?$_Vector_iterator@V?$_Vector_val@U?$_Simple_types@PEAVHitCounter@base@el@@@std@@@std@@@std@@V12@@std@@YAXAEBV?$_Vector_iterator@V?$_Vector_val@U?$_Simple_types@PEAVHitCounter@base@el@@@std@@@std@@@0@0@Z
	??$_Adl_verify_range@V?$_Vector_iterator@V?$_Vector_val@U?$_Simple_types@V?$vector@Unode@DataSet@@V?$allocator@Unode@DataSet@@@std@@@std@@@std@@@std@@@std@@V12@@std@@YAXAEBV?$_Vector_iterator@V?$_Vector_val@U?$_Simple_types@V?$vector@Unode@DataSet@@V?$allocator@Unode@DataSet@@@std@@@std@@@std@@@std@@@0@0@Z
	??$_Adl_verify_range@V?$_Vector_iterator@V?$_Vector_val@U?$_Simple_types@VCustomFormatSpecifier@el@@@std@@@std@@@std@@V12@@std@@YAXAEBV?$_Vector_iterator@V?$_Vector_val@U?$_Simple_types@VCustomFormatSpecifier@el@@@std@@@std@@@0@0@Z
	??$_Adl_verify_range@V?$reverse_iterator@V?$_String_iterator@V?$_String_val@U?$_Simple_types@D@std@@@std@@@std@@@std@@V12@@std@@YAXAEBV?$reverse_iterator@V?$_String_iterator@V?$_String_val@U?$_Simple_types@D@std@@@std@@@std@@@0@0@Z
	??$_Alloc_proxy@V?$allocator@U_Container_proxy@std@@@std@@@_Container_base12@std@@QEAAX$$QEAV?$allocator@U_Container_proxy@std@@@1@@Z
	??$_Allocate@$0BA@U_Default_allocate_traits@std@@$0A@@std@@YAPEAX_K@Z
	??$_Allocate_manually_vector_aligned@U_Default_allocate_traits@std@@@std@@YAPEAX_K@Z
	??$_Assign_range@PEAH@?$vector@HV?$allocator@H@std@@@std@@AEAAXPEAH0Uforward_iterator_tag@1@@Z
	??$_Assign_range@PEAM@?$vector@MV?$allocator@M@std@@@std@@AEAAXPEAM0Uforward_iterator_tag@1@@Z
	??$_Buyheadnode@V?$allocator@U?$_Tree_node@U?$pair@$$CBV?$basic_string@DU?$char_traits@D@std@@V?$allocator@D@2@@std@@G@std@@PEAX@std@@@std@@@?$_Tree_node@U?$pair@$$CBV?$basic_string@DU?$char_traits@D@std@@V?$allocator@D@2@@std@@G@std@@PEAX@std@@SAPEAU01@AEAV?$allocator@U?$_Tree_node@U?$pair@$$CBV?$basic_string@DU?$char_traits@D@std@@V?$allocator@D@2@@std@@G@std@@PEAX@std@@@1@@Z
	??$_Buyheadnode@V?$allocator@U?$_Tree_node@U?$pair@$$CBV?$basic_string@DU?$char_traits@D@std@@V?$allocator@D@2@@std@@PEAVLogger@el@@@std@@PEAX@std@@@std@@@?$_Tree_node@U?$pair@$$CBV?$basic_string@DU?$char_traits@D@std@@V?$allocator@D@2@@std@@PEAVLogger@el@@@std@@PEAX@std@@SAPEAU01@AEAV?$allocator@U?$_Tree_node@U?$pair@$$CBV?$basic_string@DU?$char_traits@D@std@@V?$allocator@D@2@@std@@PEAVLogger@el@@@std@@PEAX@std@@@1@@Z
	??$_Buyheadnode@V?$allocator@U?$_Tree_node@U?$pair@$$CBV?$basic_string@DU?$char_traits@D@std@@V?$allocator@D@2@@std@@V12@@std@@PEAX@std@@@std@@@?$_Tree_node@U?$pair@$$CBV?$basic_string@DU?$char_traits@D@std@@V?$allocator@D@2@@std@@V12@@std@@PEAX@std@@SAPEAU01@AEAV?$allocator@U?$_Tree_node@U?$pair@$$CBV?$basic_string@DU?$char_traits@D@std@@V?$allocator@D@2@@std@@V12@@std@@PEAX@std@@@1@@Z
	??$_Buyheadnode@V?$allocator@U?$_Tree_node@U?$pair@$$CBV?$basic_string@DU?$char_traits@D@std@@V?$allocator@D@2@@std@@V?$shared_ptr@V?$basic_fstream@DU?$char_traits@D@std@@@std@@@2@@std@@PEAX@std@@@std@@@?$_Tree_node@U?$pair@$$CBV?$basic_string@DU?$char_traits@D@std@@V?$allocator@D@2@@std@@V?$shared_ptr@V?$basic_fstream@DU?$char_traits@D@std@@@std@@@2@@std@@PEAX@std@@SAPEAU01@AEAV?$allocator@U?$_Tree_node@U?$pair@$$CBV?$basic_string@DU?$char_traits@D@std@@V?$allocator@D@2@@std@@V?$shared_ptr@V?$basic_fstream@DU?$char_traits@D@std@@@std@@@2@@std@@PEAX@std@@@1@@Z
	??$_Buyheadnode@V?$allocator@U?$_Tree_node@U?$pair@$$CBV?$basic_string@DU?$char_traits@D@std@@V?$allocator@D@2@@std@@V?$shared_ptr@VLogDispatchCallback@el@@@2@@std@@PEAX@std@@@std@@@?$_Tree_node@U?$pair@$$CBV?$basic_string@DU?$char_traits@D@std@@V?$allocator@D@2@@std@@V?$shared_ptr@VLogDispatchCallback@el@@@2@@std@@PEAX@std@@SAPEAU01@AEAV?$allocator@U?$_Tree_node@U?$pair@$$CBV?$basic_string@DU?$char_traits@D@std@@V?$allocator@D@2@@std@@V?$shared_ptr@VLogDispatchCallback@el@@@2@@std@@PEAX@std@@@1@@Z
	??$_Buyheadnode@V?$allocator@U?$_Tree_node@U?$pair@$$CBV?$basic_string@DU?$char_traits@D@std@@V?$allocator@D@2@@std@@V?$shared_ptr@VLoggerRegistrationCallback@el@@@2@@std@@PEAX@std@@@std@@@?$_Tree_node@U?$pair@$$CBV?$basic_string@DU?$char_traits@D@std@@V?$allocator@D@2@@std@@V?$shared_ptr@VLoggerRegistrationCallback@el@@@2@@std@@PEAX@std@@SAPEAU01@AEAV?$allocator@U?$_Tree_node@U?$pair@$$CBV?$basic_string@DU?$char_traits@D@std@@V?$allocator@D@2@@std@@V?$shared_ptr@VLoggerRegistrationCallback@el@@@2@@std@@PEAX@std@@@1@@Z
	??$_Buyheadnode@V?$allocator@U?$_Tree_node@U?$pair@$$CBV?$basic_string@DU?$char_traits@D@std@@V?$allocator@D@2@@std@@V?$shared_ptr@VPerformanceTrackingCallback@el@@@2@@std@@PEAX@std@@@std@@@?$_Tree_node@U?$pair@$$CBV?$basic_string@DU?$char_traits@D@std@@V?$allocator@D@2@@std@@V?$shared_ptr@VPerformanceTrackingCallback@el@@@2@@std@@PEAX@std@@SAPEAU01@AEAV?$allocator@U?$_Tree_node@U?$pair@$$CBV?$basic_string@DU?$char_traits@D@std@@V?$allocator@D@2@@std@@V?$shared_ptr@VPerformanceTrackingCallback@el@@@2@@std@@PEAX@std@@@1@@Z
	??$_Buyheadnode@V?$allocator@U?$_Tree_node@U?$pair@$$CBW4Level@el@@I@std@@PEAX@std@@@std@@@?$_Tree_node@U?$pair@$$CBW4Level@el@@I@std@@PEAX@std@@SAPEAU01@AEAV?$allocator@U?$_Tree_node@U?$pair@$$CBW4Level@el@@I@std@@PEAX@std@@@1@@Z
	??$_Buyheadnode@V?$allocator@U?$_Tree_node@U?$pair@$$CBW4Level@el@@V?$basic_string@DU?$char_traits@D@std@@V?$allocator@D@2@@std@@@std@@PEAX@std@@@std@@@?$_Tree_node@U?$pair@$$CBW4Level@el@@V?$basic_string@DU?$char_traits@D@std@@V?$allocator@D@2@@std@@@std@@PEAX@std@@SAPEAU01@AEAV?$allocator@U?$_Tree_node@U?$pair@$$CBW4Level@el@@V?$basic_string@DU?$char_traits@D@std@@V?$allocator@D@2@@std@@@std@@PEAX@std@@@1@@Z
	??$_Buyheadnode@V?$allocator@U?$_Tree_node@U?$pair@$$CBW4Level@el@@V?$shared_ptr@V?$basic_fstream@DU?$char_traits@D@std@@@std@@@std@@@std@@PEAX@std@@@std@@@?$_Tree_node@U?$pair@$$CBW4Level@el@@V?$shared_ptr@V?$basic_fstream@DU?$char_traits@D@std@@@std@@@std@@@std@@PEAX@std@@SAPEAU01@AEAV?$allocator@U?$_Tree_node@U?$pair@$$CBW4Level@el@@V?$shared_ptr@V?$basic_fstream@DU?$char_traits@D@std@@@std@@@std@@@std@@PEAX@std@@@1@@Z
	??$_Buyheadnode@V?$allocator@U?$_Tree_node@U?$pair@$$CBW4Level@el@@VLogFormat@base@2@@std@@PEAX@std@@@std@@@?$_Tree_node@U?$pair@$$CBW4Level@el@@VLogFormat@base@2@@std@@PEAX@std@@SAPEAU01@AEAV?$allocator@U?$_Tree_node@U?$pair@$$CBW4Level@el@@VLogFormat@base@2@@std@@PEAX@std@@@1@@Z
	??$_Buyheadnode@V?$allocator@U?$_Tree_node@U?$pair@$$CBW4Level@el@@VSubsecondPrecision@base@2@@std@@PEAX@std@@@std@@@?$_Tree_node@U?$pair@$$CBW4Level@el@@VSubsecondPrecision@base@2@@std@@PEAX@std@@SAPEAU01@AEAV?$allocator@U?$_Tree_node@U?$pair@$$CBW4Level@el@@VSubsecondPrecision@base@2@@std@@PEAX@std@@@1@@Z
	??$_Buyheadnode@V?$allocator@U?$_Tree_node@U?$pair@$$CBW4Level@el@@_K@std@@PEAX@std@@@std@@@?$_Tree_node@U?$pair@$$CBW4Level@el@@_K@std@@PEAX@std@@SAPEAU01@AEAV?$allocator@U?$_Tree_node@U?$pair@$$CBW4Level@el@@_K@std@@PEAX@std@@@1@@Z
	??$_Buyheadnode@V?$allocator@U?$_Tree_node@U?$pair@$$CBW4Level@el@@_N@std@@PEAX@std@@@std@@@?$_Tree_node@U?$pair@$$CBW4Level@el@@_N@std@@PEAX@std@@SAPEAU01@AEAV?$allocator@U?$_Tree_node@U?$pair@$$CBW4Level@el@@_N@std@@PEAX@std@@@1@@Z
	??$_Buynode@AEAU?$pair@$$CBW4Level@el@@I@std@@@?$_Tree@V?$_Tmap_traits@W4Level@el@@IU?$less@W4Level@el@@@std@@V?$allocator@U?$pair@$$CBW4Level@el@@I@std@@@4@$0A@@std@@@std@@IEAAPEAU?$_Tree_node@U?$pair@$$CBW4Level@el@@I@std@@PEAX@1@AEAU?$pair@$$CBW4Level@el@@I@1@@Z
	??$_Buynode@V?$allocator@U?$_Tree_node@U?$pair@$$CBW4Level@el@@I@std@@PEAX@std@@@std@@AEAU?$pair@$$CBW4Level@el@@I@2@@?$_Tree_node@U?$pair@$$CBW4Level@el@@I@std@@PEAX@std@@SAPEAU01@AEAV?$allocator@U?$_Tree_node@U?$pair@$$CBW4Level@el@@I@std@@PEAX@std@@@1@PEAU01@AEAU?$pair@$$CBW4Level@el@@I@1@@Z
	??$_Call@AEAP6AXPEBD_K@ZPEBD_K@?$_Invoker_ret@X$00@std@@SAXAEAP6AXPEBD_K@Z$$QEAPEBD$$QEA_K@Z
	??$_Construct_in_place@PEADAEAPEAD@std@@YAXAEAPEAD0@Z
	??$_Construct_in_place@PEADAEBQEAD@std@@YAXAEAPEADAEBQEAD@Z
	??$_Construct_in_place@PEAU?$_Tree_node@U?$pair@$$CBV?$basic_string@DU?$char_traits@D@std@@V?$allocator@D@2@@std@@G@std@@PEAX@std@@AEAPEAU12@@std@@YAXAEAPEAU?$_Tree_node@U?$pair@$$CBV?$basic_string@DU?$char_traits@D@std@@V?$allocator@D@2@@std@@G@std@@PEAX@0@0@Z
	??$_Construct_in_place@PEAU?$_Tree_node@U?$pair@$$CBV?$basic_string@DU?$char_traits@D@std@@V?$allocator@D@2@@std@@G@std@@PEAX@std@@AEBQEAU12@@std@@YAXAEAPEAU?$_Tree_node@U?$pair@$$CBV?$basic_string@DU?$char_traits@D@std@@V?$allocator@D@2@@std@@G@std@@PEAX@0@AEBQEAU10@@Z
	??$_Construct_in_place@PEAU?$_Tree_node@U?$pair@$$CBV?$basic_string@DU?$char_traits@D@std@@V?$allocator@D@2@@std@@PEAVLogger@el@@@std@@PEAX@std@@AEAPEAU12@@std@@YAXAEAPEAU?$_Tree_node@U?$pair@$$CBV?$basic_string@DU?$char_traits@D@std@@V?$allocator@D@2@@std@@PEAVLogger@el@@@std@@PEAX@0@0@Z
	??$_Construct_in_place@PEAU?$_Tree_node@U?$pair@$$CBV?$basic_string@DU?$char_traits@D@std@@V?$allocator@D@2@@std@@PEAVLogger@el@@@std@@PEAX@std@@AEBQEAU12@@std@@YAXAEAPEAU?$_Tree_node@U?$pair@$$CBV?$basic_string@DU?$char_traits@D@std@@V?$allocator@D@2@@std@@PEAVLogger@el@@@std@@PEAX@0@AEBQEAU10@@Z
	??$_Construct_in_place@PEAU?$_Tree_node@U?$pair@$$CBV?$basic_string@DU?$char_traits@D@std@@V?$allocator@D@2@@std@@V12@@std@@PEAX@std@@AEAPEAU12@@std@@YAXAEAPEAU?$_Tree_node@U?$pair@$$CBV?$basic_string@DU?$char_traits@D@std@@V?$allocator@D@2@@std@@V12@@std@@PEAX@0@0@Z
	??$_Construct_in_place@PEAU?$_Tree_node@U?$pair@$$CBV?$basic_string@DU?$char_traits@D@std@@V?$allocator@D@2@@std@@V12@@std@@PEAX@std@@AEBQEAU12@@std@@YAXAEAPEAU?$_Tree_node@U?$pair@$$CBV?$basic_string@DU?$char_traits@D@std@@V?$allocator@D@2@@std@@V12@@std@@PEAX@0@AEBQEAU10@@Z
	??$_Construct_in_place@PEAU?$_Tree_node@U?$pair@$$CBV?$basic_string@DU?$char_traits@D@std@@V?$allocator@D@2@@std@@V?$shared_ptr@V?$basic_fstream@DU?$char_traits@D@std@@@std@@@2@@std@@PEAX@std@@AEAPEAU12@@std@@YAXAEAPEAU?$_Tree_node@U?$pair@$$CBV?$basic_string@DU?$char_traits@D@std@@V?$allocator@D@2@@std@@V?$shared_ptr@V?$basic_fstream@DU?$char_traits@D@std@@@std@@@2@@std@@PEAX@0@0@Z
	??$_Construct_in_place@PEAU?$_Tree_node@U?$pair@$$CBV?$basic_string@DU?$char_traits@D@std@@V?$allocator@D@2@@std@@V?$shared_ptr@V?$basic_fstream@DU?$char_traits@D@std@@@std@@@2@@std@@PEAX@std@@AEBQEAU12@@std@@YAXAEAPEAU?$_Tree_node@U?$pair@$$CBV?$basic_string@DU?$char_traits@D@std@@V?$allocator@D@2@@std@@V?$shared_ptr@V?$basic_fstream@DU?$char_traits@D@std@@@std@@@2@@std@@PEAX@0@AEBQEAU10@@Z
	??$_Construct_in_place@PEAU?$_Tree_node@U?$pair@$$CBV?$basic_string@DU?$char_traits@D@std@@V?$allocator@D@2@@std@@V?$shared_ptr@VLogDispatchCallback@el@@@2@@std@@PEAX@std@@AEAPEAU12@@std@@YAXAEAPEAU?$_Tree_node@U?$pair@$$CBV?$basic_string@DU?$char_traits@D@std@@V?$allocator@D@2@@std@@V?$shared_ptr@VLogDispatchCallback@el@@@2@@std@@PEAX@0@0@Z
	??$_Construct_in_place@PEAU?$_Tree_node@U?$pair@$$CBV?$basic_string@DU?$char_traits@D@std@@V?$allocator@D@2@@std@@V?$shared_ptr@VLogDispatchCallback@el@@@2@@std@@PEAX@std@@AEBQEAU12@@std@@YAXAEAPEAU?$_Tree_node@U?$pair@$$CBV?$basic_string@DU?$char_traits@D@std@@V?$allocator@D@2@@std@@V?$shared_ptr@VLogDispatchCallback@el@@@2@@std@@PEAX@0@AEBQEAU10@@Z
	??$_Construct_in_place@PEAU?$_Tree_node@U?$pair@$$CBV?$basic_string@DU?$char_traits@D@std@@V?$allocator@D@2@@std@@V?$shared_ptr@VLoggerRegistrationCallback@el@@@2@@std@@PEAX@std@@AEBQEAU12@@std@@YAXAEAPEAU?$_Tree_node@U?$pair@$$CBV?$basic_string@DU?$char_traits@D@std@@V?$allocator@D@2@@std@@V?$shared_ptr@VLoggerRegistrationCallback@el@@@2@@std@@PEAX@0@AEBQEAU10@@Z
	??$_Construct_in_place@PEAU?$_Tree_node@U?$pair@$$CBV?$basic_string@DU?$char_traits@D@std@@V?$allocator@D@2@@std@@V?$shared_ptr@VPerformanceTrackingCallback@el@@@2@@std@@PEAX@std@@AEBQEAU12@@std@@YAXAEAPEAU?$_Tree_node@U?$pair@$$CBV?$basic_string@DU?$char_traits@D@std@@V?$allocator@D@2@@std@@V?$shared_ptr@VPerformanceTrackingCallback@el@@@2@@std@@PEAX@0@AEBQEAU10@@Z
	??$_Construct_in_place@PEAU?$_Tree_node@U?$pair@$$CBW4Level@el@@I@std@@PEAX@std@@AEAPEAU12@@std@@YAXAEAPEAU?$_Tree_node@U?$pair@$$CBW4Level@el@@I@std@@PEAX@0@0@Z
	??$_Construct_in_place@PEAU?$_Tree_node@U?$pair@$$CBW4Level@el@@I@std@@PEAX@std@@AEBQEAU12@@std@@YAXAEAPEAU?$_Tree_node@U?$pair@$$CBW4Level@el@@I@std@@PEAX@0@AEBQEAU10@@Z
	??$_Construct_in_place@PEAU?$_Tree_node@U?$pair@$$CBW4Level@el@@V?$basic_string@DU?$char_traits@D@std@@V?$allocator@D@2@@std@@@std@@PEAX@std@@AEAPEAU12@@std@@YAXAEAPEAU?$_Tree_node@U?$pair@$$CBW4Level@el@@V?$basic_string@DU?$char_traits@D@std@@V?$allocator@D@2@@std@@@std@@PEAX@0@0@Z
	??$_Construct_in_place@PEAU?$_Tree_node@U?$pair@$$CBW4Level@el@@V?$basic_string@DU?$char_traits@D@std@@V?$allocator@D@2@@std@@@std@@PEAX@std@@AEBQEAU12@@std@@YAXAEAPEAU?$_Tree_node@U?$pair@$$CBW4Level@el@@V?$basic_string@DU?$char_traits@D@std@@V?$allocator@D@2@@std@@@std@@PEAX@0@AEBQEAU10@@Z
	??$_Construct_in_place@PEAU?$_Tree_node@U?$pair@$$CBW4Level@el@@V?$shared_ptr@V?$basic_fstream@DU?$char_traits@D@std@@@std@@@std@@@std@@PEAX@std@@AEAPEAU12@@std@@YAXAEAPEAU?$_Tree_node@U?$pair@$$CBW4Level@el@@V?$shared_ptr@V?$basic_fstream@DU?$char_traits@D@std@@@std@@@std@@@std@@PEAX@0@0@Z
	??$_Construct_in_place@PEAU?$_Tree_node@U?$pair@$$CBW4Level@el@@V?$shared_ptr@V?$basic_fstream@DU?$char_traits@D@std@@@std@@@std@@@std@@PEAX@std@@AEBQEAU12@@std@@YAXAEAPEAU?$_Tree_node@U?$pair@$$CBW4Level@el@@V?$shared_ptr@V?$basic_fstream@DU?$char_traits@D@std@@@std@@@std@@@std@@PEAX@0@AEBQEAU10@@Z
	??$_Construct_in_place@PEAU?$_Tree_node@U?$pair@$$CBW4Level@el@@VLogFormat@base@2@@std@@PEAX@std@@AEAPEAU12@@std@@YAXAEAPEAU?$_Tree_node@U?$pair@$$CBW4Level@el@@VLogFormat@base@2@@std@@PEAX@0@0@Z
	??$_Construct_in_place@PEAU?$_Tree_node@U?$pair@$$CBW4Level@el@@VLogFormat@base@2@@std@@PEAX@std@@AEBQEAU12@@std@@YAXAEAPEAU?$_Tree_node@U?$pair@$$CBW4Level@el@@VLogFormat@base@2@@std@@PEAX@0@AEBQEAU10@@Z
	??$_Construct_in_place@PEAU?$_Tree_node@U?$pair@$$CBW4Level@el@@VSubsecondPrecision@base@2@@std@@PEAX@std@@AEAPEAU12@@std@@YAXAEAPEAU?$_Tree_node@U?$pair@$$CBW4Level@el@@VSubsecondPrecision@base@2@@std@@PEAX@0@0@Z
	??$_Construct_in_place@PEAU?$_Tree_node@U?$pair@$$CBW4Level@el@@VSubsecondPrecision@base@2@@std@@PEAX@std@@AEBQEAU12@@std@@YAXAEAPEAU?$_Tree_node@U?$pair@$$CBW4Level@el@@VSubsecondPrecision@base@2@@std@@PEAX@0@AEBQEAU10@@Z
	??$_Construct_in_place@PEAU?$_Tree_node@U?$pair@$$CBW4Level@el@@_K@std@@PEAX@std@@AEAPEAU12@@std@@YAXAEAPEAU?$_Tree_node@U?$pair@$$CBW4Level@el@@_K@std@@PEAX@0@0@Z
	??$_Construct_in_place@PEAU?$_Tree_node@U?$pair@$$CBW4Level@el@@_K@std@@PEAX@std@@AEBQEAU12@@std@@YAXAEAPEAU?$_Tree_node@U?$pair@$$CBW4Level@el@@_K@std@@PEAX@0@AEBQEAU10@@Z
	??$_Construct_in_place@PEAU?$_Tree_node@U?$pair@$$CBW4Level@el@@_N@std@@PEAX@std@@AEAPEAU12@@std@@YAXAEAPEAU?$_Tree_node@U?$pair@$$CBW4Level@el@@_N@std@@PEAX@0@0@Z
	??$_Construct_in_place@PEAU?$_Tree_node@U?$pair@$$CBW4Level@el@@_N@std@@PEAX@std@@AEBQEAU12@@std@@YAXAEAPEAU?$_Tree_node@U?$pair@$$CBW4Level@el@@_N@std@@PEAX@0@AEBQEAU10@@Z
	??$_Construct_in_place@U_Container_proxy@std@@PEAU_Container_base12@2@@std@@YAXAEAU_Container_proxy@0@$$QEAPEAU_Container_base12@0@@Z
	??$_Construct_n_copies_of_ty@H@?$vector@HV?$allocator@H@std@@@std@@AEAAX_KAEBH@Z
	??$_Construct_n_copies_of_ty@I@?$vector@IV?$allocator@I@std@@@std@@AEAAX_KAEBI@Z
	??$_Construct_n_copies_of_ty@N@?$vector@NV?$allocator@N@std@@@std@@AEAAX_KAEBN@Z
	??$_Construct_n_copies_of_ty@U_Value_init_tag@std@@@?$vector@HV?$allocator@H@std@@@std@@AEAAX_KAEBU_Value_init_tag@1@@Z
	??$_Construct_n_copies_of_ty@U_Value_init_tag@std@@@?$vector@NV?$allocator@N@std@@@std@@AEAAX_KAEBU_Value_init_tag@1@@Z
	??$_Construct_n_copies_of_ty@U_Value_init_tag@std@@@?$vector@V?$SyncArray@N@@V?$allocator@V?$SyncArray@N@@@std@@@std@@AEAAX_KAEBU_Value_init_tag@1@@Z
	??$_Construct_n_copies_of_ty@U_Value_init_tag@std@@@?$vector@V?$vector@NV?$allocator@N@std@@@std@@V?$allocator@V?$vector@NV?$allocator@N@std@@@std@@@2@@std@@AEAAX_KAEBU_Value_init_tag@1@@Z
	??$_Construct_n_copies_of_ty@U_Value_init_tag@std@@@?$vector@V?$vector@V?$vector@Unode@DataSet@@V?$allocator@Unode@DataSet@@@std@@@std@@V?$allocator@V?$vector@Unode@DataSet@@V?$allocator@Unode@DataSet@@@std@@@std@@@2@@std@@V?$allocator@V?$vector@V?$vector@Unode@DataSet@@V?$allocator@Unode@DataSet@@@std@@@std@@V?$allocator@V?$vector@Unode@DataSet@@V?$allocator@Unode@DataSet@@@std@@@std@@@2@@std@@@2@@std@@AEAAX_KAEBU_Value_init_tag@1@@Z
	??$_Construct_n_copies_of_ty@V?$vector@NV?$allocator@N@std@@@std@@@?$vector@V?$vector@NV?$allocator@N@std@@@std@@V?$allocator@V?$vector@NV?$allocator@N@std@@@std@@@2@@std@@AEAAX_KAEBV?$vector@NV?$allocator@N@std@@@1@@Z
	??$_Convert_size@_K@std@@YA_K_K@Z
	??$_Copy@U_Copy_tag@?$_Tree@V?$_Tmap_traits@W4Level@el@@IU?$less@W4Level@el@@@std@@V?$allocator@U?$pair@$$CBW4Level@el@@I@std@@@4@$0A@@std@@@std@@@?$_Tree@V?$_Tmap_traits@W4Level@el@@IU?$less@W4Level@el@@@std@@V?$allocator@U?$pair@$$CBW4Level@el@@I@std@@@4@$0A@@std@@@std@@IEAAXAEBV01@U_Copy_tag@01@@Z
	??$_Copy_backward_memmove@PEAHPEAH@std@@YAPEAHPEAH00@Z
	??$_Copy_backward_memmove@PEAMPEAM@std@@YAPEAMPEAM00@Z
	??$_Copy_backward_memmove@PEANPEAN@std@@YAPEANPEAN00@Z
	??$_Copy_construct_from@V?$basic_fstream@DU?$char_traits@D@std@@@std@@@?$_Ptr_base@V?$basic_fstream@DU?$char_traits@D@std@@@std@@@std@@IEAAXAEBV?$shared_ptr@V?$basic_fstream@DU?$char_traits@D@std@@@std@@@1@@Z
	??$_Copy_construct_from@VLogBuilder@el@@@?$_Ptr_base@VLogBuilder@el@@@std@@IEAAXAEBV?$shared_ptr@VLogBuilder@el@@@1@@Z
	??$_Copy_construct_from@VLogDispatchCallback@el@@@?$_Ptr_base@VLogDispatchCallback@el@@@std@@IEAAXAEBV?$shared_ptr@VLogDispatchCallback@el@@@1@@Z
	??$_Copy_construct_from@VLoggerRegistrationCallback@el@@@?$_Ptr_base@VLoggerRegistrationCallback@el@@@std@@IEAAXAEBV?$shared_ptr@VLoggerRegistrationCallback@el@@@1@@Z
	??$_Copy_memmove@PEAHPEAH@std@@YAPEAHPEAH00@Z
	??$_Copy_memmove@PEAIPEAI@std@@YAPEAIPEAI00@Z
	??$_Copy_memmove@PEAMPEAM@std@@YAPEAMPEAM00@Z
	??$_Copy_memmove@PEANPEAN@std@@YAPEANPEAN00@Z
	??$_Copy_memmove@PEAPEAVConfiguration@el@@PEAPEAV12@@std@@YAPEAPEAVConfiguration@el@@PEAPEAV12@00@Z
	??$_Copy_memmove@PEAPEAVHitCounter@base@el@@PEAPEAV123@@std@@YAPEAPEAVHitCounter@base@el@@PEAPEAV123@00@Z
	??$_Copy_memmove@PEBHPEAH@std@@YAPEAHPEBH0PEAH@Z
	??$_Copy_nodes@U_Copy_tag@?$_Tree@V?$_Tmap_traits@W4Level@el@@IU?$less@W4Level@el@@@std@@V?$allocator@U?$pair@$$CBW4Level@el@@I@std@@@4@$0A@@std@@@std@@@?$_Tree@V?$_Tmap_traits@W4Level@el@@IU?$less@W4Level@el@@@std@@V?$allocator@U?$pair@$$CBW4Level@el@@I@std@@@4@$0A@@std@@@std@@IEAAPEAU?$_Tree_node@U?$pair@$$CBW4Level@el@@I@std@@PEAX@1@PEAU21@0U_Copy_tag@01@@Z
	??$_Copy_or_move@U?$pair@$$CBW4Level@el@@I@std@@U?$integral_constant@_N$0A@@2@@?$_Tree@V?$_Tmap_traits@W4Level@el@@IU?$less@W4Level@el@@@std@@V?$allocator@U?$pair@$$CBW4Level@el@@I@std@@@4@$0A@@std@@@std@@IEAAPEAU?$_Tree_node@U?$pair@$$CBW4Level@el@@I@std@@PEAX@1@AEAU?$pair@$$CBW4Level@el@@I@1@U_Copy_tag@01@U?$integral_constant@_N$0A@@1@@Z
	??$_Copy_unchecked@PEAHPEAH@std@@YAPEAHPEAH00@Z
	??$_Copy_unchecked@PEAMPEAM@std@@YAPEAMPEAM00@Z
	??$_Deallocate@$07$0A@@std@@YAXPEAX_K@Z
	??$_Deallocate@$0BA@$0A@@std@@YAXPEAX_K@Z
	??$_Deallocate_plain@V?$allocator@U_Container_proxy@std@@@std@@@std@@YAXAEAV?$allocator@U_Container_proxy@std@@@0@QEAU_Container_proxy@0@@Z
	??$_Debug_lt_pred@AEBU?$less@V?$basic_string@DU?$char_traits@D@std@@V?$allocator@D@2@@std@@@std@@AEBV?$basic_string@DU?$char_traits@D@std@@V?$allocator@D@2@@2@AEBV32@$0A@@std@@YA_NAEBU?$less@V?$basic_string@DU?$char_traits@D@std@@V?$allocator@D@2@@std@@@0@AEBV?$basic_string@DU?$char_traits@D@std@@V?$allocator@D@2@@0@1@Z
	??$_Debug_lt_pred@AEBU?$less@W4Level@el@@@std@@AEBW4Level@el@@AEBW434@$0A@@std@@YA_NAEBU?$less@W4Level@el@@@0@AEBW4Level@el@@1@Z
	??$_Delete_plain_internal@V?$allocator@U_Container_proxy@std@@@std@@@std@@YAXAEAV?$allocator@U_Container_proxy@std@@@0@QEAU_Container_proxy@0@@Z
	??$_Destroy_in_place@PEAD@std@@YAXAEAPEAD@Z
	??$_Destroy_in_place@PEAU?$_Tree_node@U?$pair@$$CBV?$basic_string@DU?$char_traits@D@std@@V?$allocator@D@2@@std@@G@std@@PEAX@std@@@std@@YAXAEAPEAU?$_Tree_node@U?$pair@$$CBV?$basic_string@DU?$char_traits@D@std@@V?$allocator@D@2@@std@@G@std@@PEAX@0@@Z
	??$_Destroy_in_place@PEAU?$_Tree_node@U?$pair@$$CBV?$basic_string@DU?$char_traits@D@std@@V?$allocator@D@2@@std@@PEAVLogger@el@@@std@@PEAX@std@@@std@@YAXAEAPEAU?$_Tree_node@U?$pair@$$CBV?$basic_string@DU?$char_traits@D@std@@V?$allocator@D@2@@std@@PEAVLogger@el@@@std@@PEAX@0@@Z
	??$_Destroy_in_place@PEAU?$_Tree_node@U?$pair@$$CBV?$basic_string@DU?$char_traits@D@std@@V?$allocator@D@2@@std@@V12@@std@@PEAX@std@@@std@@YAXAEAPEAU?$_Tree_node@U?$pair@$$CBV?$basic_string@DU?$char_traits@D@std@@V?$allocator@D@2@@std@@V12@@std@@PEAX@0@@Z
	??$_Destroy_in_place@PEAU?$_Tree_node@U?$pair@$$CBV?$basic_string@DU?$char_traits@D@std@@V?$allocator@D@2@@std@@V?$shared_ptr@V?$basic_fstream@DU?$char_traits@D@std@@@std@@@2@@std@@PEAX@std@@@std@@YAXAEAPEAU?$_Tree_node@U?$pair@$$CBV?$basic_string@DU?$char_traits@D@std@@V?$allocator@D@2@@std@@V?$shared_ptr@V?$basic_fstream@DU?$char_traits@D@std@@@std@@@2@@std@@PEAX@0@@Z
	??$_Destroy_in_place@PEAU?$_Tree_node@U?$pair@$$CBV?$basic_string@DU?$char_traits@D@std@@V?$allocator@D@2@@std@@V?$shared_ptr@VLogDispatchCallback@el@@@2@@std@@PEAX@std@@@std@@YAXAEAPEAU?$_Tree_node@U?$pair@$$CBV?$basic_string@DU?$char_traits@D@std@@V?$allocator@D@2@@std@@V?$shared_ptr@VLogDispatchCallback@el@@@2@@std@@PEAX@0@@Z
	??$_Destroy_in_place@PEAU?$_Tree_node@U?$pair@$$CBV?$basic_string@DU?$char_traits@D@std@@V?$allocator@D@2@@std@@V?$shared_ptr@VLoggerRegistrationCallback@el@@@2@@std@@PEAX@std@@@std@@YAXAEAPEAU?$_Tree_node@U?$pair@$$CBV?$basic_string@DU?$char_traits@D@std@@V?$allocator@D@2@@std@@V?$shared_ptr@VLoggerRegistrationCallback@el@@@2@@std@@PEAX@0@@Z
	??$_Destroy_in_place@PEAU?$_Tree_node@U?$pair@$$CBV?$basic_string@DU?$char_traits@D@std@@V?$allocator@D@2@@std@@V?$shared_ptr@VPerformanceTrackingCallback@el@@@2@@std@@PEAX@std@@@std@@YAXAEAPEAU?$_Tree_node@U?$pair@$$CBV?$basic_string@DU?$char_traits@D@std@@V?$allocator@D@2@@std@@V?$shared_ptr@VPerformanceTrackingCallback@el@@@2@@std@@PEAX@0@@Z
	??$_Destroy_in_place@PEAU?$_Tree_node@U?$pair@$$CBW4Level@el@@I@std@@PEAX@std@@@std@@YAXAEAPEAU?$_Tree_node@U?$pair@$$CBW4Level@el@@I@std@@PEAX@0@@Z
	??$_Destroy_in_place@PEAU?$_Tree_node@U?$pair@$$CBW4Level@el@@V?$basic_string@DU?$char_traits@D@std@@V?$allocator@D@2@@std@@@std@@PEAX@std@@@std@@YAXAEAPEAU?$_Tree_node@U?$pair@$$CBW4Level@el@@V?$basic_string@DU?$char_traits@D@std@@V?$allocator@D@2@@std@@@std@@PEAX@0@@Z
	??$_Destroy_in_place@PEAU?$_Tree_node@U?$pair@$$CBW4Level@el@@V?$shared_ptr@V?$basic_fstream@DU?$char_traits@D@std@@@std@@@std@@@std@@PEAX@std@@@std@@YAXAEAPEAU?$_Tree_node@U?$pair@$$CBW4Level@el@@V?$shared_ptr@V?$basic_fstream@DU?$char_traits@D@std@@@std@@@std@@@std@@PEAX@0@@Z
	??$_Destroy_in_place@PEAU?$_Tree_node@U?$pair@$$CBW4Level@el@@VLogFormat@base@2@@std@@PEAX@std@@@std@@YAXAEAPEAU?$_Tree_node@U?$pair@$$CBW4Level@el@@VLogFormat@base@2@@std@@PEAX@0@@Z
	??$_Destroy_in_place@PEAU?$_Tree_node@U?$pair@$$CBW4Level@el@@VSubsecondPrecision@base@2@@std@@PEAX@std@@@std@@YAXAEAPEAU?$_Tree_node@U?$pair@$$CBW4Level@el@@VSubsecondPrecision@base@2@@std@@PEAX@0@@Z
	??$_Destroy_in_place@PEAU?$_Tree_node@U?$pair@$$CBW4Level@el@@_K@std@@PEAX@std@@@std@@YAXAEAPEAU?$_Tree_node@U?$pair@$$CBW4Level@el@@_K@std@@PEAX@0@@Z
	??$_Destroy_in_place@PEAU?$_Tree_node@U?$pair@$$CBW4Level@el@@_N@std@@PEAX@std@@@std@@YAXAEAPEAU?$_Tree_node@U?$pair@$$CBW4Level@el@@_N@std@@PEAX@0@@Z
	??$_Destroy_range@V?$allocator@H@std@@@std@@YAXPEAHQEAHAEAV?$allocator@H@0@@Z
	??$_Destroy_range@V?$allocator@I@std@@@std@@YAXPEAIQEAIAEAV?$allocator@I@0@@Z
	??$_Destroy_range@V?$allocator@M@std@@@std@@YAXPEAMQEAMAEAV?$allocator@M@0@@Z
	??$_Destroy_range@V?$allocator@N@std@@@std@@YAXPEANQEANAEAV?$allocator@N@0@@Z
	??$_Destroy_range@V?$allocator@PEAVConfiguration@el@@@std@@@std@@YAXPEAPEAVConfiguration@el@@QEAPEAV12@AEAV?$allocator@PEAVConfiguration@el@@@0@@Z
	??$_Destroy_range@V?$allocator@PEAVHitCounter@base@el@@@std@@@std@@YAXPEAPEAVHitCounter@base@el@@QEAPEAV123@AEAV?$allocator@PEAVHitCounter@base@el@@@0@@Z
	??$_Destroy_range@V?$allocator@Unode@DataSet@@@std@@@std@@YAXPEAUnode@DataSet@@QEAU12@AEAV?$allocator@Unode@DataSet@@@0@@Z
	??$_Destroy_range@V?$allocator@V?$SyncArray@N@@@std@@@std@@YAXPEAV?$SyncArray@N@@QEAV1@AEAV?$allocator@V?$SyncArray@N@@@0@@Z
	??$_Destroy_range@V?$allocator@V?$basic_string@DU?$char_traits@D@std@@V?$allocator@D@2@@std@@@std@@@std@@YAXPEAV?$basic_string@DU?$char_traits@D@std@@V?$allocator@D@2@@0@QEAV10@AEAV?$allocator@V?$basic_string@DU?$char_traits@D@std@@V?$allocator@D@2@@std@@@0@@Z
	??$_Destroy_range@V?$allocator@V?$vector@NV?$allocator@N@std@@@std@@@std@@@std@@YAXPEAV?$vector@NV?$allocator@N@std@@@0@QEAV10@AEAV?$allocator@V?$vector@NV?$allocator@N@std@@@std@@@0@@Z
	??$_Destroy_range@V?$allocator@V?$vector@Unode@DataSet@@V?$allocator@Unode@DataSet@@@std@@@std@@@std@@@std@@YAXPEAV?$vector@Unode@DataSet@@V?$allocator@Unode@DataSet@@@std@@@0@QEAV10@AEAV?$allocator@V?$vector@Unode@DataSet@@V?$allocator@Unode@DataSet@@@std@@@std@@@0@@Z
	??$_Destroy_range@V?$allocator@V?$vector@V?$vector@Unode@DataSet@@V?$allocator@Unode@DataSet@@@std@@@std@@V?$allocator@V?$vector@Unode@DataSet@@V?$allocator@Unode@DataSet@@@std@@@std@@@2@@std@@@std@@@std@@YAXPEAV?$vector@V?$vector@Unode@DataSet@@V?$allocator@Unode@DataSet@@@std@@@std@@V?$allocator@V?$vector@Unode@DataSet@@V?$allocator@Unode@DataSet@@@std@@@std@@@2@@0@QEAV10@AEAV?$allocator@V?$vector@V?$vector@Unode@DataSet@@V?$allocator@Unode@DataSet@@@std@@@std@@V?$allocator@V?$vector@Unode@DataSet@@V?$allocator@Unode@DataSet@@@std@@@std@@@2@@std@@@0@@Z
	??$_Destroy_range@V?$allocator@VCustomFormatSpecifier@el@@@std@@@std@@YAXPEAVCustomFormatSpecifier@el@@QEAV12@AEAV?$allocator@VCustomFormatSpecifier@el@@@0@@Z
	??$_Emplace@U?$pair@V?$basic_string@DU?$char_traits@D@std@@V?$allocator@D@2@@std@@G@std@@@?$_Tree@V?$_Tmap_traits@V?$basic_string@DU?$char_traits@D@std@@V?$allocator@D@2@@std@@GU?$less@V?$basic_string@DU?$char_traits@D@std@@V?$allocator@D@2@@std@@@2@V?$allocator@U?$pair@$$CBV?$basic_string@DU?$char_traits@D@std@@V?$allocator@D@2@@std@@G@std@@@2@$0A@@std@@@std@@IEAA?AU?$pair@PEAU?$_Tree_node@U?$pair@$$CBV?$basic_string@DU?$char_traits@D@std@@V?$allocator@D@2@@std@@G@std@@PEAX@std@@_N@1@$$QEAU?$pair@V?$basic_string@DU?$char_traits@D@std@@V?$allocator@D@2@@std@@G@1@@Z
	??$_Emplace@U?$pair@V?$basic_string@DU?$char_traits@D@std@@V?$allocator@D@2@@std@@PEAVLogger@el@@@std@@@?$_Tree@V?$_Tmap_traits@V?$basic_string@DU?$char_traits@D@std@@V?$allocator@D@2@@std@@PEAVLogger@el@@U?$less@V?$basic_string@DU?$char_traits@D@std@@V?$allocator@D@2@@std@@@2@V?$allocator@U?$pair@$$CBV?$basic_string@DU?$char_traits@D@std@@V?$allocator@D@2@@std@@PEAVLogger@el@@@std@@@2@$0A@@std@@@std@@IEAA?AU?$pair@PEAU?$_Tree_node@U?$pair@$$CBV?$basic_string@DU?$char_traits@D@std@@V?$allocator@D@2@@std@@PEAVLogger@el@@@std@@PEAX@std@@_N@1@$$QEAU?$pair@V?$basic_string@DU?$char_traits@D@std@@V?$allocator@D@2@@std@@PEAVLogger@el@@@1@@Z
	??$_Emplace@U?$pair@V?$basic_string@DU?$char_traits@D@std@@V?$allocator@D@2@@std@@V12@@std@@@?$_Tree@V?$_Tmap_traits@V?$basic_string@DU?$char_traits@D@std@@V?$allocator@D@2@@std@@V12@U?$less@V?$basic_string@DU?$char_traits@D@std@@V?$allocator@D@2@@std@@@2@V?$allocator@U?$pair@$$CBV?$basic_string@DU?$char_traits@D@std@@V?$allocator@D@2@@std@@V12@@std@@@2@$0A@@std@@@std@@IEAA?AU?$pair@PEAU?$_Tree_node@U?$pair@$$CBV?$basic_string@DU?$char_traits@D@std@@V?$allocator@D@2@@std@@V12@@std@@PEAX@std@@_N@1@$$QEAU?$pair@V?$basic_string@DU?$char_traits@D@std@@V?$allocator@D@2@@std@@V12@@1@@Z
	??$_Emplace@U?$pair@V?$basic_string@DU?$char_traits@D@std@@V?$allocator@D@2@@std@@V?$shared_ptr@V?$basic_fstream@DU?$char_traits@D@std@@@std@@@2@@std@@@?$_Tree@V?$_Tmap_traits@V?$basic_string@DU?$char_traits@D@std@@V?$allocator@D@2@@std@@V?$shared_ptr@V?$basic_fstream@DU?$char_traits@D@std@@@std@@@2@U?$less@V?$basic_string@DU?$char_traits@D@std@@V?$allocator@D@2@@std@@@2@V?$allocator@U?$pair@$$CBV?$basic_string@DU?$char_traits@D@std@@V?$allocator@D@2@@std@@V?$shared_ptr@V?$basic_fstream@DU?$char_traits@D@std@@@std@@@2@@std@@@2@$0A@@std@@@std@@IEAA?AU?$pair@PEAU?$_Tree_node@U?$pair@$$CBV?$basic_string@DU?$char_traits@D@std@@V?$allocator@D@2@@std@@V?$shared_ptr@V?$basic_fstream@DU?$char_traits@D@std@@@std@@@2@@std@@PEAX@std@@_N@1@$$QEAU?$pair@V?$basic_string@DU?$char_traits@D@std@@V?$allocator@D@2@@std@@V?$shared_ptr@V?$basic_fstream@DU?$char_traits@D@std@@@std@@@2@@1@@Z
	??$_Emplace@U?$pair@V?$basic_string@DU?$char_traits@D@std@@V?$allocator@D@2@@std@@V?$shared_ptr@VLogDispatchCallback@el@@@2@@std@@@?$_Tree@V?$_Tmap_traits@V?$basic_string@DU?$char_traits@D@std@@V?$allocator@D@2@@std@@V?$shared_ptr@VLogDispatchCallback@el@@@2@U?$less@V?$basic_string@DU?$char_traits@D@std@@V?$allocator@D@2@@std@@@2@V?$allocator@U?$pair@$$CBV?$basic_string@DU?$char_traits@D@std@@V?$allocator@D@2@@std@@V?$shared_ptr@VLogDispatchCallback@el@@@2@@std@@@2@$0A@@std@@@std@@IEAA?AU?$pair@PEAU?$_Tree_node@U?$pair@$$CBV?$basic_string@DU?$char_traits@D@std@@V?$allocator@D@2@@std@@V?$shared_ptr@VLogDispatchCallback@el@@@2@@std@@PEAX@std@@_N@1@$$QEAU?$pair@V?$basic_string@DU?$char_traits@D@std@@V?$allocator@D@2@@std@@V?$shared_ptr@VLogDispatchCallback@el@@@2@@1@@Z
	??$_Emplace@U?$pair@W4Level@el@@H@std@@@?$_Tree@V?$_Tmap_traits@W4Level@el@@IU?$less@W4Level@el@@@std@@V?$allocator@U?$pair@$$CBW4Level@el@@I@std@@@4@$0A@@std@@@std@@IEAA?AU?$pair@PEAU?$_Tree_node@U?$pair@$$CBW4Level@el@@I@std@@PEAX@std@@_N@1@$$QEAU?$pair@W4Level@el@@H@1@@Z
	??$_Emplace@U?$pair@W4Level@el@@V?$basic_string@DU?$char_traits@D@std@@V?$allocator@D@2@@std@@@std@@@?$_Tree@V?$_Tmap_traits@W4Level@el@@V?$basic_string@DU?$char_traits@D@std@@V?$allocator@D@2@@std@@U?$less@W4Level@el@@@4@V?$allocator@U?$pair@$$CBW4Level@el@@V?$basic_string@DU?$char_traits@D@std@@V?$allocator@D@2@@std@@@std@@@4@$0A@@std@@@std@@IEAA?AU?$pair@PEAU?$_Tree_node@U?$pair@$$CBW4Level@el@@V?$basic_string@DU?$char_traits@D@std@@V?$allocator@D@2@@std@@@std@@PEAX@std@@_N@1@$$QEAU?$pair@W4Level@el@@V?$basic_string@DU?$char_traits@D@std@@V?$allocator@D@2@@std@@@1@@Z
	??$_Emplace@U?$pair@W4Level@el@@V?$shared_ptr@V?$basic_fstream@DU?$char_traits@D@std@@@std@@@std@@@std@@@?$_Tree@V?$_Tmap_traits@W4Level@el@@V?$shared_ptr@V?$basic_fstream@DU?$char_traits@D@std@@@std@@@std@@U?$less@W4Level@el@@@4@V?$allocator@U?$pair@$$CBW4Level@el@@V?$shared_ptr@V?$basic_fstream@DU?$char_traits@D@std@@@std@@@std@@@std@@@4@$0A@@std@@@std@@IEAA?AU?$pair@PEAU?$_Tree_node@U?$pair@$$CBW4Level@el@@V?$shared_ptr@V?$basic_fstream@DU?$char_traits@D@std@@@std@@@std@@@std@@PEAX@std@@_N@1@$$QEAU?$pair@W4Level@el@@V?$shared_ptr@V?$basic_fstream@DU?$char_traits@D@std@@@std@@@std@@@1@@Z
	??$_Emplace@U?$pair@W4Level@el@@VLogFormat@base@2@@std@@@?$_Tree@V?$_Tmap_traits@W4Level@el@@VLogFormat@base@2@U?$less@W4Level@el@@@std@@V?$allocator@U?$pair@$$CBW4Level@el@@VLogFormat@base@2@@std@@@6@$0A@@std@@@std@@IEAA?AU?$pair@PEAU?$_Tree_node@U?$pair@$$CBW4Level@el@@VLogFormat@base@2@@std@@PEAX@std@@_N@1@$$QEAU?$pair@W4Level@el@@VLogFormat@base@2@@1@@Z
	??$_Emplace@U?$pair@W4Level@el@@VSubsecondPrecision@base@2@@std@@@?$_Tree@V?$_Tmap_traits@W4Level@el@@VSubsecondPrecision@base@2@U?$less@W4Level@el@@@std@@V?$allocator@U?$pair@$$CBW4Level@el@@VSubsecondPrecision@base@2@@std@@@6@$0A@@std@@@std@@IEAA?AU?$pair@PEAU?$_Tree_node@U?$pair@$$CBW4Level@el@@VSubsecondPrecision@base@2@@std@@PEAX@std@@_N@1@$$QEAU?$pair@W4Level@el@@VSubsecondPrecision@base@2@@1@@Z
	??$_Emplace@U?$pair@W4Level@el@@_K@std@@@?$_Tree@V?$_Tmap_traits@W4Level@el@@_KU?$less@W4Level@el@@@std@@V?$allocator@U?$pair@$$CBW4Level@el@@_K@std@@@4@$0A@@std@@@std@@IEAA?AU?$pair@PEAU?$_Tree_node@U?$pair@$$CBW4Level@el@@_K@std@@PEAX@std@@_N@1@$$QEAU?$pair@W4Level@el@@_K@1@@Z
	??$_Emplace@U?$pair@W4Level@el@@_N@std@@@?$_Tree@V?$_Tmap_traits@W4Level@el@@_NU?$less@W4Level@el@@@std@@V?$allocator@U?$pair@$$CBW4Level@el@@_N@std@@@4@$0A@@std@@@std@@IEAA?AU?$pair@PEAU?$_Tree_node@U?$pair@$$CBW4Level@el@@_N@std@@PEAX@std@@_N@1@$$QEAU?$pair@W4Level@el@@_N@1@@Z
	??$_Emplace_back@$$V@?$_Uninitialized_backout_al@V?$allocator@H@std@@@std@@QEAAXXZ
	??$_Emplace_back@$$V@?$_Uninitialized_backout_al@V?$allocator@N@std@@@std@@QEAAXXZ
	??$_Emplace_back@$$V@?$_Uninitialized_backout_al@V?$allocator@V?$SyncArray@N@@@std@@@std@@QEAAXXZ
	??$_Emplace_back@$$V@?$_Uninitialized_backout_al@V?$allocator@V?$vector@NV?$allocator@N@std@@@std@@@std@@@std@@QEAAXXZ
	??$_Emplace_back@$$V@?$_Uninitialized_backout_al@V?$allocator@V?$vector@V?$vector@Unode@DataSet@@V?$allocator@Unode@DataSet@@@std@@@std@@V?$allocator@V?$vector@Unode@DataSet@@V?$allocator@Unode@DataSet@@@std@@@std@@@2@@std@@@std@@@std@@QEAAXXZ
	??$_Emplace_back@AEAH@?$_Uninitialized_backout_al@V?$allocator@H@std@@@std@@QEAAXAEAH@Z
	??$_Emplace_back@AEAM@?$_Uninitialized_backout_al@V?$allocator@M@std@@@std@@QEAAXAEAM@Z
	??$_Emplace_back@AEAN@?$_Uninitialized_backout_al@V?$allocator@M@std@@@std@@QEAAXAEAN@Z
	??$_Emplace_back@AEAN@?$_Uninitialized_backout_al@V?$allocator@N@std@@@std@@QEAAXAEAN@Z
	??$_Emplace_back@AEAUnode@DataSet@@@?$_Uninitialized_backout_al@V?$allocator@Unode@DataSet@@@std@@@std@@QEAAXAEAUnode@DataSet@@@Z
	??$_Emplace_back@AEAV?$vector@Unode@DataSet@@V?$allocator@Unode@DataSet@@@std@@@std@@@?$_Uninitialized_backout_al@V?$allocator@V?$vector@Unode@DataSet@@V?$allocator@Unode@DataSet@@@std@@@std@@@std@@@std@@QEAAXAEAV?$vector@Unode@DataSet@@V?$allocator@Unode@DataSet@@@std@@@1@@Z
	??$_Emplace_back@AEBH@?$_Uninitialized_backout_al@V?$allocator@H@std@@@std@@QEAAXAEBH@Z
	??$_Emplace_back@AEBI@?$_Uninitialized_backout_al@V?$allocator@I@std@@@std@@QEAAXAEBI@Z
	??$_Emplace_back@AEBN@?$_Uninitialized_backout_al@V?$allocator@N@std@@@std@@QEAAXAEBN@Z
	??$_Emplace_back@AEBV?$vector@NV?$allocator@N@std@@@std@@@?$_Uninitialized_backout_al@V?$allocator@V?$vector@NV?$allocator@N@std@@@std@@@std@@@std@@QEAAXAEBV?$vector@NV?$allocator@N@std@@@1@@Z
	??$_Emplace_back@AEBV?$vector@Unode@DataSet@@V?$allocator@Unode@DataSet@@@std@@@std@@@?$_Uninitialized_backout_al@V?$allocator@V?$vector@Unode@DataSet@@V?$allocator@Unode@DataSet@@@std@@@std@@@std@@@std@@QEAAXAEBV?$vector@Unode@DataSet@@V?$allocator@Unode@DataSet@@@std@@@1@@Z
	??$_Emplace_back@H@?$_Uninitialized_backout_al@V?$allocator@H@std@@@std@@QEAAX$$QEAH@Z
	??$_Emplace_back@M@?$_Uninitialized_backout_al@V?$allocator@M@std@@@std@@QEAAX$$QEAM@Z
	??$_Emplace_back@N@?$_Uninitialized_backout_al@V?$allocator@N@std@@@std@@QEAAX$$QEAN@Z
	??$_Emplace_back@PEAVConfiguration@el@@@?$_Uninitialized_backout_al@V?$allocator@PEAVConfiguration@el@@@std@@@std@@QEAAX$$QEAPEAVConfiguration@el@@@Z
	??$_Emplace_back@PEAVHitCounter@base@el@@@?$_Uninitialized_backout_al@V?$allocator@PEAVHitCounter@base@el@@@std@@@std@@QEAAX$$QEAPEAVHitCounter@base@el@@@Z
	??$_Emplace_back@Unode@DataSet@@@?$_Uninitialized_backout_al@V?$allocator@Unode@DataSet@@@std@@@std@@QEAAX$$QEAUnode@DataSet@@@Z
	??$_Emplace_back@V?$basic_string@DU?$char_traits@D@std@@V?$allocator@D@2@@std@@@?$_Uninitialized_backout_al@V?$allocator@V?$basic_string@DU?$char_traits@D@std@@V?$allocator@D@2@@std@@@std@@@std@@QEAAX$$QEAV?$basic_string@DU?$char_traits@D@std@@V?$allocator@D@2@@1@@Z
	??$_Emplace_back@V?$vector@Unode@DataSet@@V?$allocator@Unode@DataSet@@@std@@@std@@@?$_Uninitialized_backout_al@V?$allocator@V?$vector@Unode@DataSet@@V?$allocator@Unode@DataSet@@@std@@@std@@@std@@@std@@QEAAX$$QEAV?$vector@Unode@DataSet@@V?$allocator@Unode@DataSet@@@std@@@1@@Z
	??$_Emplace_back@VCustomFormatSpecifier@el@@@?$_Uninitialized_backout_al@V?$allocator@VCustomFormatSpecifier@el@@@std@@@std@@QEAAX$$QEAVCustomFormatSpecifier@el@@@Z
	??$_Emplace_back_with_unused_capacity@$$V@?$vector@NV?$allocator@N@std@@@std@@AEAA?A_TXZ
	??$_Emplace_back_with_unused_capacity@$$V@?$vector@V?$vector@Unode@DataSet@@V?$allocator@Unode@DataSet@@@std@@@std@@V?$allocator@V?$vector@Unode@DataSet@@V?$allocator@Unode@DataSet@@@std@@@std@@@2@@std@@AEAA?A_TXZ
	??$_Emplace_back_with_unused_capacity@AEAHAEAM@?$vector@Unode@DataSet@@V?$allocator@Unode@DataSet@@@std@@@std@@AEAA?A_TAEAHAEAM@Z
	??$_Emplace_back_with_unused_capacity@AEBH@?$vector@HV?$allocator@H@std@@@std@@AEAA?A_TAEBH@Z
	??$_Emplace_back_with_unused_capacity@AEBM@?$vector@MV?$allocator@M@std@@@std@@AEAA?A_TAEBM@Z
	??$_Emplace_back_with_unused_capacity@AEBN@?$vector@NV?$allocator@N@std@@@std@@AEAA?A_TAEBN@Z
	??$_Emplace_back_with_unused_capacity@AEBQEAVConfiguration@el@@@?$vector@PEAVConfiguration@el@@V?$allocator@PEAVConfiguration@el@@@std@@@std@@AEAA?A_TAEBQEAVConfiguration@el@@@Z
	??$_Emplace_back_with_unused_capacity@AEBQEAVHitCounter@base@el@@@?$vector@PEAVHitCounter@base@el@@V?$allocator@PEAVHitCounter@base@el@@@std@@@std@@AEAA?A_TAEBQEAVHitCounter@base@el@@@Z
	??$_Emplace_back_with_unused_capacity@AEBV?$basic_string@DU?$char_traits@D@std@@V?$allocator@D@2@@std@@@?$vector@V?$basic_string@DU?$char_traits@D@std@@V?$allocator@D@2@@std@@V?$allocator@V?$basic_string@DU?$char_traits@D@std@@V?$allocator@D@2@@std@@@2@@std@@AEAA?A_TAEBV?$basic_string@DU?$char_traits@D@std@@V?$allocator@D@2@@1@@Z
	??$_Emplace_back_with_unused_capacity@AEBV?$vector@Unode@DataSet@@V?$allocator@Unode@DataSet@@@std@@@std@@@?$vector@V?$vector@Unode@DataSet@@V?$allocator@Unode@DataSet@@@std@@@std@@V?$allocator@V?$vector@Unode@DataSet@@V?$allocator@Unode@DataSet@@@std@@@std@@@2@@std@@AEAA?A_TAEBV?$vector@Unode@DataSet@@V?$allocator@Unode@DataSet@@@std@@@1@@Z
	??$_Emplace_back_with_unused_capacity@AEBVCustomFormatSpecifier@el@@@?$vector@VCustomFormatSpecifier@el@@V?$allocator@VCustomFormatSpecifier@el@@@std@@@std@@AEAA?A_TAEBVCustomFormatSpecifier@el@@@Z
	??$_Emplace_back_with_unused_capacity@H@?$vector@HV?$allocator@H@std@@@std@@AEAA?A_T$$QEAH@Z
	??$_Emplace_back_with_unused_capacity@HH@?$vector@Unode@DataSet@@V?$allocator@Unode@DataSet@@@std@@@std@@AEAA?A_T$$QEAH0@Z
	??$_Emplace_back_with_unused_capacity@M@?$vector@MV?$allocator@M@std@@@std@@AEAA?A_T$$QEAM@Z
	??$_Emplace_back_with_unused_capacity@N@?$vector@NV?$allocator@N@std@@@std@@AEAA?A_T$$QEAN@Z
	??$_Emplace_back_with_unused_capacity@V?$basic_string@DU?$char_traits@D@std@@V?$allocator@D@2@@std@@@?$vector@V?$basic_string@DU?$char_traits@D@std@@V?$allocator@D@2@@std@@V?$allocator@V?$basic_string@DU?$char_traits@D@std@@V?$allocator@D@2@@std@@@2@@std@@AEAA?A_T$$QEAV?$basic_string@DU?$char_traits@D@std@@V?$allocator@D@2@@1@@Z
	??$_Emplace_reallocate@$$V@?$vector@NV?$allocator@N@std@@@std@@QEAAPEANQEAN@Z
	??$_Emplace_reallocate@$$V@?$vector@V?$vector@Unode@DataSet@@V?$allocator@Unode@DataSet@@@std@@@std@@V?$allocator@V?$vector@Unode@DataSet@@V?$allocator@Unode@DataSet@@@std@@@std@@@2@@std@@QEAAPEAV?$vector@Unode@DataSet@@V?$allocator@Unode@DataSet@@@std@@@1@QEAV21@@Z
	??$_Emplace_reallocate@AEAHAEAM@?$vector@Unode@DataSet@@V?$allocator@Unode@DataSet@@@std@@@std@@QEAAPEAUnode@DataSet@@QEAU23@AEAHAEAM@Z
	??$_Emplace_reallocate@AEBH@?$vector@HV?$allocator@H@std@@@std@@QEAAPEAHQEAHAEBH@Z
	??$_Emplace_reallocate@AEBM@?$vector@MV?$allocator@M@std@@@std@@QEAAPEAMQEAMAEBM@Z
	??$_Emplace_reallocate@AEBN@?$vector@NV?$allocator@N@std@@@std@@QEAAPEANQEANAEBN@Z
	??$_Emplace_reallocate@AEBQEAVConfiguration@el@@@?$vector@PEAVConfiguration@el@@V?$allocator@PEAVConfiguration@el@@@std@@@std@@QEAAPEAPEAVConfiguration@el@@QEAPEAV23@AEBQEAV23@@Z
	??$_Emplace_reallocate@AEBQEAVHitCounter@base@el@@@?$vector@PEAVHitCounter@base@el@@V?$allocator@PEAVHitCounter@base@el@@@std@@@std@@QEAAPEAPEAVHitCounter@base@el@@QEAPEAV234@AEBQEAV234@@Z
	??$_Emplace_reallocate@AEBV?$basic_string@DU?$char_traits@D@std@@V?$allocator@D@2@@std@@@?$vector@V?$basic_string@DU?$char_traits@D@std@@V?$allocator@D@2@@std@@V?$allocator@V?$basic_string@DU?$char_traits@D@std@@V?$allocator@D@2@@std@@@2@@std@@QEAAPEAV?$basic_string@DU?$char_traits@D@std@@V?$allocator@D@2@@1@QEAV21@AEBV21@@Z
	??$_Emplace_reallocate@AEBV?$vector@Unode@DataSet@@V?$allocator@Unode@DataSet@@@std@@@std@@@?$vector@V?$vector@Unode@DataSet@@V?$allocator@Unode@DataSet@@@std@@@std@@V?$allocator@V?$vector@Unode@DataSet@@V?$allocator@Unode@DataSet@@@std@@@std@@@2@@std@@QEAAPEAV?$vector@Unode@DataSet@@V?$allocator@Unode@DataSet@@@std@@@1@QEAV21@AEBV21@@Z
	??$_Emplace_reallocate@AEBVCustomFormatSpecifier@el@@@?$vector@VCustomFormatSpecifier@el@@V?$allocator@VCustomFormatSpecifier@el@@@std@@@std@@QEAAPEAVCustomFormatSpecifier@el@@QEAV23@AEBV23@@Z
	??$_Emplace_reallocate@H@?$vector@HV?$allocator@H@std@@@std@@QEAAPEAHQEAH$$QEAH@Z
	??$_Emplace_reallocate@HH@?$vector@Unode@DataSet@@V?$allocator@Unode@DataSet@@@std@@@std@@QEAAPEAUnode@DataSet@@QEAU23@$$QEAH1@Z
	??$_Emplace_reallocate@M@?$vector@MV?$allocator@M@std@@@std@@QEAAPEAMQEAM$$QEAM@Z
	??$_Emplace_reallocate@N@?$vector@NV?$allocator@N@std@@@std@@QEAAPEANQEAN$$QEAN@Z
	??$_Emplace_reallocate@V?$basic_string@DU?$char_traits@D@std@@V?$allocator@D@2@@std@@@?$vector@V?$basic_string@DU?$char_traits@D@std@@V?$allocator@D@2@@std@@V?$allocator@V?$basic_string@DU?$char_traits@D@std@@V?$allocator@D@2@@std@@@2@@std@@QEAAPEAV?$basic_string@DU?$char_traits@D@std@@V?$allocator@D@2@@1@QEAV21@$$QEAV21@@Z
	??$_Eqrange@V?$basic_string@DU?$char_traits@D@std@@V?$allocator@D@2@@std@@@?$_Tree@V?$_Tmap_traits@V?$basic_string@DU?$char_traits@D@std@@V?$allocator@D@2@@std@@PEAVLogger@el@@U?$less@V?$basic_string@DU?$char_traits@D@std@@V?$allocator@D@2@@std@@@2@V?$allocator@U?$pair@$$CBV?$basic_string@DU?$char_traits@D@std@@V?$allocator@D@2@@std@@PEAVLogger@el@@@std@@@2@$0A@@std@@@std@@IEBA?AU?$pair@PEAU?$_Tree_node@U?$pair@$$CBV?$basic_string@DU?$char_traits@D@std@@V?$allocator@D@2@@std@@PEAVLogger@el@@@std@@PEAX@std@@PEAU12@@1@AEBV?$basic_string@DU?$char_traits@D@std@@V?$allocator@D@2@@1@@Z
	??$_Erase_head@V?$allocator@U?$_Tree_node@U?$pair@$$CBV?$basic_string@DU?$char_traits@D@std@@V?$allocator@D@2@@std@@G@std@@PEAX@std@@@std@@@?$_Tree_val@U?$_Tree_simple_types@U?$pair@$$CBV?$basic_string@DU?$char_traits@D@std@@V?$allocator@D@2@@std@@G@std@@@std@@@std@@QEAAXAEAV?$allocator@U?$_Tree_node@U?$pair@$$CBV?$basic_string@DU?$char_traits@D@std@@V?$allocator@D@2@@std@@G@std@@PEAX@std@@@1@@Z
	??$_Erase_head@V?$allocator@U?$_Tree_node@U?$pair@$$CBV?$basic_string@DU?$char_traits@D@std@@V?$allocator@D@2@@std@@PEAVLogger@el@@@std@@PEAX@std@@@std@@@?$_Tree_val@U?$_Tree_simple_types@U?$pair@$$CBV?$basic_string@DU?$char_traits@D@std@@V?$allocator@D@2@@std@@PEAVLogger@el@@@std@@@std@@@std@@QEAAXAEAV?$allocator@U?$_Tree_node@U?$pair@$$CBV?$basic_string@DU?$char_traits@D@std@@V?$allocator@D@2@@std@@PEAVLogger@el@@@std@@PEAX@std@@@1@@Z
	??$_Erase_head@V?$allocator@U?$_Tree_node@U?$pair@$$CBV?$basic_string@DU?$char_traits@D@std@@V?$allocator@D@2@@std@@V12@@std@@PEAX@std@@@std@@@?$_Tree_val@U?$_Tree_simple_types@U?$pair@$$CBV?$basic_string@DU?$char_traits@D@std@@V?$allocator@D@2@@std@@V12@@std@@@std@@@std@@QEAAXAEAV?$allocator@U?$_Tree_node@U?$pair@$$CBV?$basic_string@DU?$char_traits@D@std@@V?$allocator@D@2@@std@@V12@@std@@PEAX@std@@@1@@Z
	??$_Erase_head@V?$allocator@U?$_Tree_node@U?$pair@$$CBV?$basic_string@DU?$char_traits@D@std@@V?$allocator@D@2@@std@@V?$shared_ptr@V?$basic_fstream@DU?$char_traits@D@std@@@std@@@2@@std@@PEAX@std@@@std@@@?$_Tree_val@U?$_Tree_simple_types@U?$pair@$$CBV?$basic_string@DU?$char_traits@D@std@@V?$allocator@D@2@@std@@V?$shared_ptr@V?$basic_fstream@DU?$char_traits@D@std@@@std@@@2@@std@@@std@@@std@@QEAAXAEAV?$allocator@U?$_Tree_node@U?$pair@$$CBV?$basic_string@DU?$char_traits@D@std@@V?$allocator@D@2@@std@@V?$shared_ptr@V?$basic_fstream@DU?$char_traits@D@std@@@std@@@2@@std@@PEAX@std@@@1@@Z
	??$_Erase_head@V?$allocator@U?$_Tree_node@U?$pair@$$CBV?$basic_string@DU?$char_traits@D@std@@V?$allocator@D@2@@std@@V?$shared_ptr@VLogDispatchCallback@el@@@2@@std@@PEAX@std@@@std@@@?$_Tree_val@U?$_Tree_simple_types@U?$pair@$$CBV?$basic_string@DU?$char_traits@D@std@@V?$allocator@D@2@@std@@V?$shared_ptr@VLogDispatchCallback@el@@@2@@std@@@std@@@std@@QEAAXAEAV?$allocator@U?$_Tree_node@U?$pair@$$CBV?$basic_string@DU?$char_traits@D@std@@V?$allocator@D@2@@std@@V?$shared_ptr@VLogDispatchCallback@el@@@2@@std@@PEAX@std@@@1@@Z
	??$_Erase_head@V?$allocator@U?$_Tree_node@U?$pair@$$CBV?$basic_string@DU?$char_traits@D@std@@V?$allocator@D@2@@std@@V?$shared_ptr@VLoggerRegistrationCallback@el@@@2@@std@@PEAX@std@@@std@@@?$_Tree_val@U?$_Tree_simple_types@U?$pair@$$CBV?$basic_string@DU?$char_traits@D@std@@V?$allocator@D@2@@std@@V?$shared_ptr@VLoggerRegistrationCallback@el@@@2@@std@@@std@@@std@@QEAAXAEAV?$allocator@U?$_Tree_node@U?$pair@$$CBV?$basic_string@DU?$char_traits@D@std@@V?$allocator@D@2@@std@@V?$shared_ptr@VLoggerRegistrationCallback@el@@@2@@std@@PEAX@std@@@1@@Z
	??$_Erase_head@V?$allocator@U?$_Tree_node@U?$pair@$$CBV?$basic_string@DU?$char_traits@D@std@@V?$allocator@D@2@@std@@V?$shared_ptr@VPerformanceTrackingCallback@el@@@2@@std@@PEAX@std@@@std@@@?$_Tree_val@U?$_Tree_simple_types@U?$pair@$$CBV?$basic_string@DU?$char_traits@D@std@@V?$allocator@D@2@@std@@V?$shared_ptr@VPerformanceTrackingCallback@el@@@2@@std@@@std@@@std@@QEAAXAEAV?$allocator@U?$_Tree_node@U?$pair@$$CBV?$basic_string@DU?$char_traits@D@std@@V?$allocator@D@2@@std@@V?$shared_ptr@VPerformanceTrackingCallback@el@@@2@@std@@PEAX@std@@@1@@Z
	??$_Erase_head@V?$allocator@U?$_Tree_node@U?$pair@$$CBW4Level@el@@I@std@@PEAX@std@@@std@@@?$_Tree_val@U?$_Tree_simple_types@U?$pair@$$CBW4Level@el@@I@std@@@std@@@std@@QEAAXAEAV?$allocator@U?$_Tree_node@U?$pair@$$CBW4Level@el@@I@std@@PEAX@std@@@1@@Z
	??$_Erase_head@V?$allocator@U?$_Tree_node@U?$pair@$$CBW4Level@el@@V?$basic_string@DU?$char_traits@D@std@@V?$allocator@D@2@@std@@@std@@PEAX@std@@@std@@@?$_Tree_val@U?$_Tree_simple_types@U?$pair@$$CBW4Level@el@@V?$basic_string@DU?$char_traits@D@std@@V?$allocator@D@2@@std@@@std@@@std@@@std@@QEAAXAEAV?$allocator@U?$_Tree_node@U?$pair@$$CBW4Level@el@@V?$basic_string@DU?$char_traits@D@std@@V?$allocator@D@2@@std@@@std@@PEAX@std@@@1@@Z
	??$_Erase_head@V?$allocator@U?$_Tree_node@U?$pair@$$CBW4Level@el@@V?$shared_ptr@V?$basic_fstream@DU?$char_traits@D@std@@@std@@@std@@@std@@PEAX@std@@@std@@@?$_Tree_val@U?$_Tree_simple_types@U?$pair@$$CBW4Level@el@@V?$shared_ptr@V?$basic_fstream@DU?$char_traits@D@std@@@std@@@std@@@std@@@std@@@std@@QEAAXAEAV?$allocator@U?$_Tree_node@U?$pair@$$CBW4Level@el@@V?$shared_ptr@V?$basic_fstream@DU?$char_traits@D@std@@@std@@@std@@@std@@PEAX@std@@@1@@Z
	??$_Erase_head@V?$allocator@U?$_Tree_node@U?$pair@$$CBW4Level@el@@VLogFormat@base@2@@std@@PEAX@std@@@std@@@?$_Tree_val@U?$_Tree_simple_types@U?$pair@$$CBW4Level@el@@VLogFormat@base@2@@std@@@std@@@std@@QEAAXAEAV?$allocator@U?$_Tree_node@U?$pair@$$CBW4Level@el@@VLogFormat@base@2@@std@@PEAX@std@@@1@@Z
	??$_Erase_head@V?$allocator@U?$_Tree_node@U?$pair@$$CBW4Level@el@@VSubsecondPrecision@base@2@@std@@PEAX@std@@@std@@@?$_Tree_val@U?$_Tree_simple_types@U?$pair@$$CBW4Level@el@@VSubsecondPrecision@base@2@@std@@@std@@@std@@QEAAXAEAV?$allocator@U?$_Tree_node@U?$pair@$$CBW4Level@el@@VSubsecondPrecision@base@2@@std@@PEAX@std@@@1@@Z
	??$_Erase_head@V?$allocator@U?$_Tree_node@U?$pair@$$CBW4Level@el@@_K@std@@PEAX@std@@@std@@@?$_Tree_val@U?$_Tree_simple_types@U?$pair@$$CBW4Level@el@@_K@std@@@std@@@std@@QEAAXAEAV?$allocator@U?$_Tree_node@U?$pair@$$CBW4Level@el@@_K@std@@PEAX@std@@@1@@Z
	??$_Erase_head@V?$allocator@U?$_Tree_node@U?$pair@$$CBW4Level@el@@_N@std@@PEAX@std@@@std@@@?$_Tree_val@U?$_Tree_simple_types@U?$pair@$$CBW4Level@el@@_N@std@@@std@@@std@@QEAAXAEAV?$allocator@U?$_Tree_node@U?$pair@$$CBW4Level@el@@_N@std@@PEAX@std@@@1@@Z
	??$_Erase_tree@V?$allocator@U?$_Tree_node@U?$pair@$$CBV?$basic_string@DU?$char_traits@D@std@@V?$allocator@D@2@@std@@G@std@@PEAX@std@@@std@@@?$_Tree_val@U?$_Tree_simple_types@U?$pair@$$CBV?$basic_string@DU?$char_traits@D@std@@V?$allocator@D@2@@std@@G@std@@@std@@@std@@QEAAXAEAV?$allocator@U?$_Tree_node@U?$pair@$$CBV?$basic_string@DU?$char_traits@D@std@@V?$allocator@D@2@@std@@G@std@@PEAX@std@@@1@PEAU?$_Tree_node@U?$pair@$$CBV?$basic_string@DU?$char_traits@D@std@@V?$allocator@D@2@@std@@G@std@@PEAX@1@@Z
	??$_Erase_tree@V?$allocator@U?$_Tree_node@U?$pair@$$CBV?$basic_string@DU?$char_traits@D@std@@V?$allocator@D@2@@std@@PEAVLogger@el@@@std@@PEAX@std@@@std@@@?$_Tree_val@U?$_Tree_simple_types@U?$pair@$$CBV?$basic_string@DU?$char_traits@D@std@@V?$allocator@D@2@@std@@PEAVLogger@el@@@std@@@std@@@std@@QEAAXAEAV?$allocator@U?$_Tree_node@U?$pair@$$CBV?$basic_string@DU?$char_traits@D@std@@V?$allocator@D@2@@std@@PEAVLogger@el@@@std@@PEAX@std@@@1@PEAU?$_Tree_node@U?$pair@$$CBV?$basic_string@DU?$char_traits@D@std@@V?$allocator@D@2@@std@@PEAVLogger@el@@@std@@PEAX@1@@Z
	??$_Erase_tree@V?$allocator@U?$_Tree_node@U?$pair@$$CBV?$basic_string@DU?$char_traits@D@std@@V?$allocator@D@2@@std@@V12@@std@@PEAX@std@@@std@@@?$_Tree_val@U?$_Tree_simple_types@U?$pair@$$CBV?$basic_string@DU?$char_traits@D@std@@V?$allocator@D@2@@std@@V12@@std@@@std@@@std@@QEAAXAEAV?$allocator@U?$_Tree_node@U?$pair@$$CBV?$basic_string@DU?$char_traits@D@std@@V?$allocator@D@2@@std@@V12@@std@@PEAX@std@@@1@PEAU?$_Tree_node@U?$pair@$$CBV?$basic_string@DU?$char_traits@D@std@@V?$allocator@D@2@@std@@V12@@std@@PEAX@1@@Z
	??$_Erase_tree@V?$allocator@U?$_Tree_node@U?$pair@$$CBV?$basic_string@DU?$char_traits@D@std@@V?$allocator@D@2@@std@@V?$shared_ptr@V?$basic_fstream@DU?$char_traits@D@std@@@std@@@2@@std@@PEAX@std@@@std@@@?$_Tree_val@U?$_Tree_simple_types@U?$pair@$$CBV?$basic_string@DU?$char_traits@D@std@@V?$allocator@D@2@@std@@V?$shared_ptr@V?$basic_fstream@DU?$char_traits@D@std@@@std@@@2@@std@@@std@@@std@@QEAAXAEAV?$allocator@U?$_Tree_node@U?$pair@$$CBV?$basic_string@DU?$char_traits@D@std@@V?$allocator@D@2@@std@@V?$shared_ptr@V?$basic_fstream@DU?$char_traits@D@std@@@std@@@2@@std@@PEAX@std@@@1@PEAU?$_Tree_node@U?$pair@$$CBV?$basic_string@DU?$char_traits@D@std@@V?$allocator@D@2@@std@@V?$shared_ptr@V?$basic_fstream@DU?$char_traits@D@std@@@std@@@2@@std@@PEAX@1@@Z
	??$_Erase_tree@V?$allocator@U?$_Tree_node@U?$pair@$$CBV?$basic_string@DU?$char_traits@D@std@@V?$allocator@D@2@@std@@V?$shared_ptr@VLogDispatchCallback@el@@@2@@std@@PEAX@std@@@std@@@?$_Tree_val@U?$_Tree_simple_types@U?$pair@$$CBV?$basic_string@DU?$char_traits@D@std@@V?$allocator@D@2@@std@@V?$shared_ptr@VLogDispatchCallback@el@@@2@@std@@@std@@@std@@QEAAXAEAV?$allocator@U?$_Tree_node@U?$pair@$$CBV?$basic_string@DU?$char_traits@D@std@@V?$allocator@D@2@@std@@V?$shared_ptr@VLogDispatchCallback@el@@@2@@std@@PEAX@std@@@1@PEAU?$_Tree_node@U?$pair@$$CBV?$basic_string@DU?$char_traits@D@std@@V?$allocator@D@2@@std@@V?$shared_ptr@VLogDispatchCallback@el@@@2@@std@@PEAX@1@@Z
	??$_Erase_tree@V?$allocator@U?$_Tree_node@U?$pair@$$CBV?$basic_string@DU?$char_traits@D@std@@V?$allocator@D@2@@std@@V?$shared_ptr@VLoggerRegistrationCallback@el@@@2@@std@@PEAX@std@@@std@@@?$_Tree_val@U?$_Tree_simple_types@U?$pair@$$CBV?$basic_string@DU?$char_traits@D@std@@V?$allocator@D@2@@std@@V?$shared_ptr@VLoggerRegistrationCallback@el@@@2@@std@@@std@@@std@@QEAAXAEAV?$allocator@U?$_Tree_node@U?$pair@$$CBV?$basic_string@DU?$char_traits@D@std@@V?$allocator@D@2@@std@@V?$shared_ptr@VLoggerRegistrationCallback@el@@@2@@std@@PEAX@std@@@1@PEAU?$_Tree_node@U?$pair@$$CBV?$basic_string@DU?$char_traits@D@std@@V?$allocator@D@2@@std@@V?$shared_ptr@VLoggerRegistrationCallback@el@@@2@@std@@PEAX@1@@Z
	??$_Erase_tree@V?$allocator@U?$_Tree_node@U?$pair@$$CBV?$basic_string@DU?$char_traits@D@std@@V?$allocator@D@2@@std@@V?$shared_ptr@VPerformanceTrackingCallback@el@@@2@@std@@PEAX@std@@@std@@@?$_Tree_val@U?$_Tree_simple_types@U?$pair@$$CBV?$basic_string@DU?$char_traits@D@std@@V?$allocator@D@2@@std@@V?$shared_ptr@VPerformanceTrackingCallback@el@@@2@@std@@@std@@@std@@QEAAXAEAV?$allocator@U?$_Tree_node@U?$pair@$$CBV?$basic_string@DU?$char_traits@D@std@@V?$allocator@D@2@@std@@V?$shared_ptr@VPerformanceTrackingCallback@el@@@2@@std@@PEAX@std@@@1@PEAU?$_Tree_node@U?$pair@$$CBV?$basic_string@DU?$char_traits@D@std@@V?$allocator@D@2@@std@@V?$shared_ptr@VPerformanceTrackingCallback@el@@@2@@std@@PEAX@1@@Z
	??$_Erase_tree@V?$allocator@U?$_Tree_node@U?$pair@$$CBW4Level@el@@I@std@@PEAX@std@@@std@@@?$_Tree_val@U?$_Tree_simple_types@U?$pair@$$CBW4Level@el@@I@std@@@std@@@std@@QEAAXAEAV?$allocator@U?$_Tree_node@U?$pair@$$CBW4Level@el@@I@std@@PEAX@std@@@1@PEAU?$_Tree_node@U?$pair@$$CBW4Level@el@@I@std@@PEAX@1@@Z
	??$_Erase_tree@V?$allocator@U?$_Tree_node@U?$pair@$$CBW4Level@el@@V?$basic_string@DU?$char_traits@D@std@@V?$allocator@D@2@@std@@@std@@PEAX@std@@@std@@@?$_Tree_val@U?$_Tree_simple_types@U?$pair@$$CBW4Level@el@@V?$basic_string@DU?$char_traits@D@std@@V?$allocator@D@2@@std@@@std@@@std@@@std@@QEAAXAEAV?$allocator@U?$_Tree_node@U?$pair@$$CBW4Level@el@@V?$basic_string@DU?$char_traits@D@std@@V?$allocator@D@2@@std@@@std@@PEAX@std@@@1@PEAU?$_Tree_node@U?$pair@$$CBW4Level@el@@V?$basic_string@DU?$char_traits@D@std@@V?$allocator@D@2@@std@@@std@@PEAX@1@@Z
	??$_Erase_tree@V?$allocator@U?$_Tree_node@U?$pair@$$CBW4Level@el@@V?$shared_ptr@V?$basic_fstream@DU?$char_traits@D@std@@@std@@@std@@@std@@PEAX@std@@@std@@@?$_Tree_val@U?$_Tree_simple_types@U?$pair@$$CBW4Level@el@@V?$shared_ptr@V?$basic_fstream@DU?$char_traits@D@std@@@std@@@std@@@std@@@std@@@std@@QEAAXAEAV?$allocator@U?$_Tree_node@U?$pair@$$CBW4Level@el@@V?$shared_ptr@V?$basic_fstream@DU?$char_traits@D@std@@@std@@@std@@@std@@PEAX@std@@@1@PEAU?$_Tree_node@U?$pair@$$CBW4Level@el@@V?$shared_ptr@V?$basic_fstream@DU?$char_traits@D@std@@@std@@@std@@@std@@PEAX@1@@Z
	??$_Erase_tree@V?$allocator@U?$_Tree_node@U?$pair@$$CBW4Level@el@@VLogFormat@base@2@@std@@PEAX@std@@@std@@@?$_Tree_val@U?$_Tree_simple_types@U?$pair@$$CBW4Level@el@@VLogFormat@base@2@@std@@@std@@@std@@QEAAXAEAV?$allocator@U?$_Tree_node@U?$pair@$$CBW4Level@el@@VLogFormat@base@2@@std@@PEAX@std@@@1@PEAU?$_Tree_node@U?$pair@$$CBW4Level@el@@VLogFormat@base@2@@std@@PEAX@1@@Z
	??$_Erase_tree@V?$allocator@U?$_Tree_node@U?$pair@$$CBW4Level@el@@VSubsecondPrecision@base@2@@std@@PEAX@std@@@std@@@?$_Tree_val@U?$_Tree_simple_types@U?$pair@$$CBW4Level@el@@VSubsecondPrecision@base@2@@std@@@std@@@std@@QEAAXAEAV?$allocator@U?$_Tree_node@U?$pair@$$CBW4Level@el@@VSubsecondPrecision@base@2@@std@@PEAX@std@@@1@PEAU?$_Tree_node@U?$pair@$$CBW4Level@el@@VSubsecondPrecision@base@2@@std@@PEAX@1@@Z
	??$_Erase_tree@V?$allocator@U?$_Tree_node@U?$pair@$$CBW4Level@el@@_K@std@@PEAX@std@@@std@@@?$_Tree_val@U?$_Tree_simple_types@U?$pair@$$CBW4Level@el@@_K@std@@@std@@@std@@QEAAXAEAV?$allocator@U?$_Tree_node@U?$pair@$$CBW4Level@el@@_K@std@@PEAX@std@@@1@PEAU?$_Tree_node@U?$pair@$$CBW4Level@el@@_K@std@@PEAX@1@@Z
	??$_Erase_tree@V?$allocator@U?$_Tree_node@U?$pair@$$CBW4Level@el@@_N@std@@PEAX@std@@@std@@@?$_Tree_val@U?$_Tree_simple_types@U?$pair@$$CBW4Level@el@@_N@std@@@std@@@std@@QEAAXAEAV?$allocator@U?$_Tree_node@U?$pair@$$CBW4Level@el@@_N@std@@PEAX@std@@@1@PEAU?$_Tree_node@U?$pair@$$CBW4Level@el@@_N@std@@PEAX@1@@Z
	??$_Erase_tree_and_orphan@V?$allocator@U?$_Tree_node@U?$pair@$$CBW4Level@el@@I@std@@PEAX@std@@@std@@@?$_Tree_val@U?$_Tree_simple_types@U?$pair@$$CBW4Level@el@@I@std@@@std@@@std@@QEAAXAEAV?$allocator@U?$_Tree_node@U?$pair@$$CBW4Level@el@@I@std@@PEAX@std@@@1@PEAU?$_Tree_node@U?$pair@$$CBW4Level@el@@I@std@@PEAX@1@@Z
	??$_Fgetc@D@std@@YA_NAEADPEAU_iobuf@@@Z
	??$_Fill_zero_memset@PEAH@std@@YAXPEAH_K@Z
	??$_Fill_zero_memset@PEAI@std@@YAXPEAI_K@Z
	??$_Fill_zero_memset@PEAN@std@@YAXPEAN_K@Z
	??$_Find@V?$basic_string@DU?$char_traits@D@std@@V?$allocator@D@2@@std@@@?$_Tree@V?$_Tmap_traits@V?$basic_string@DU?$char_traits@D@std@@V?$allocator@D@2@@std@@PEAVLogger@el@@U?$less@V?$basic_string@DU?$char_traits@D@std@@V?$allocator@D@2@@std@@@2@V?$allocator@U?$pair@$$CBV?$basic_string@DU?$char_traits@D@std@@V?$allocator@D@2@@std@@PEAVLogger@el@@@std@@@2@$0A@@std@@@std@@AEBAPEAU?$_Tree_node@U?$pair@$$CBV?$basic_string@DU?$char_traits@D@std@@V?$allocator@D@2@@std@@PEAVLogger@el@@@std@@PEAX@1@AEBV?$basic_string@DU?$char_traits@D@std@@V?$allocator@D@2@@1@@Z
	??$_Find@V?$basic_string@DU?$char_traits@D@std@@V?$allocator@D@2@@std@@@?$_Tree@V?$_Tmap_traits@V?$basic_string@DU?$char_traits@D@std@@V?$allocator@D@2@@std@@V12@U?$less@V?$basic_string@DU?$char_traits@D@std@@V?$allocator@D@2@@std@@@2@V?$allocator@U?$pair@$$CBV?$basic_string@DU?$char_traits@D@std@@V?$allocator@D@2@@std@@V12@@std@@@2@$0A@@std@@@std@@AEBAPEAU?$_Tree_node@U?$pair@$$CBV?$basic_string@DU?$char_traits@D@std@@V?$allocator@D@2@@std@@V12@@std@@PEAX@1@AEBV?$basic_string@DU?$char_traits@D@std@@V?$allocator@D@2@@1@@Z
	??$_Find@V?$basic_string@DU?$char_traits@D@std@@V?$allocator@D@2@@std@@@?$_Tree@V?$_Tmap_traits@V?$basic_string@DU?$char_traits@D@std@@V?$allocator@D@2@@std@@V?$shared_ptr@V?$basic_fstream@DU?$char_traits@D@std@@@std@@@2@U?$less@V?$basic_string@DU?$char_traits@D@std@@V?$allocator@D@2@@std@@@2@V?$allocator@U?$pair@$$CBV?$basic_string@DU?$char_traits@D@std@@V?$allocator@D@2@@std@@V?$shared_ptr@V?$basic_fstream@DU?$char_traits@D@std@@@std@@@2@@std@@@2@$0A@@std@@@std@@AEBAPEAU?$_Tree_node@U?$pair@$$CBV?$basic_string@DU?$char_traits@D@std@@V?$allocator@D@2@@std@@V?$shared_ptr@V?$basic_fstream@DU?$char_traits@D@std@@@std@@@2@@std@@PEAX@1@AEBV?$basic_string@DU?$char_traits@D@std@@V?$allocator@D@2@@1@@Z
	??$_Find@V?$basic_string@DU?$char_traits@D@std@@V?$allocator@D@2@@std@@@?$_Tree@V?$_Tmap_traits@V?$basic_string@DU?$char_traits@D@std@@V?$allocator@D@2@@std@@V?$shared_ptr@VLogDispatchCallback@el@@@2@U?$less@V?$basic_string@DU?$char_traits@D@std@@V?$allocator@D@2@@std@@@2@V?$allocator@U?$pair@$$CBV?$basic_string@DU?$char_traits@D@std@@V?$allocator@D@2@@std@@V?$shared_ptr@VLogDispatchCallback@el@@@2@@std@@@2@$0A@@std@@@std@@AEBAPEAU?$_Tree_node@U?$pair@$$CBV?$basic_string@DU?$char_traits@D@std@@V?$allocator@D@2@@std@@V?$shared_ptr@VLogDispatchCallback@el@@@2@@std@@PEAX@1@AEBV?$basic_string@DU?$char_traits@D@std@@V?$allocator@D@2@@1@@Z
	??$_Find@W4Level@el@@@?$_Tree@V?$_Tmap_traits@W4Level@el@@IU?$less@W4Level@el@@@std@@V?$allocator@U?$pair@$$CBW4Level@el@@I@std@@@4@$0A@@std@@@std@@AEBAPEAU?$_Tree_node@U?$pair@$$CBW4Level@el@@I@std@@PEAX@1@AEBW4Level@el@@@Z
	??$_Find@W4Level@el@@@?$_Tree@V?$_Tmap_traits@W4Level@el@@V?$basic_string@DU?$char_traits@D@std@@V?$allocator@D@2@@std@@U?$less@W4Level@el@@@4@V?$allocator@U?$pair@$$CBW4Level@el@@V?$basic_string@DU?$char_traits@D@std@@V?$allocator@D@2@@std@@@std@@@4@$0A@@std@@@std@@AEBAPEAU?$_Tree_node@U?$pair@$$CBW4Level@el@@V?$basic_string@DU?$char_traits@D@std@@V?$allocator@D@2@@std@@@std@@PEAX@1@AEBW4Level@el@@@Z
	??$_Find@W4Level@el@@@?$_Tree@V?$_Tmap_traits@W4Level@el@@V?$shared_ptr@V?$basic_fstream@DU?$char_traits@D@std@@@std@@@std@@U?$less@W4Level@el@@@4@V?$allocator@U?$pair@$$CBW4Level@el@@V?$shared_ptr@V?$basic_fstream@DU?$char_traits@D@std@@@std@@@std@@@std@@@4@$0A@@std@@@std@@AEBAPEAU?$_Tree_node@U?$pair@$$CBW4Level@el@@V?$shared_ptr@V?$basic_fstream@DU?$char_traits@D@std@@@std@@@std@@@std@@PEAX@1@AEBW4Level@el@@@Z
	??$_Find@W4Level@el@@@?$_Tree@V?$_Tmap_traits@W4Level@el@@VLogFormat@base@2@U?$less@W4Level@el@@@std@@V?$allocator@U?$pair@$$CBW4Level@el@@VLogFormat@base@2@@std@@@6@$0A@@std@@@std@@AEBAPEAU?$_Tree_node@U?$pair@$$CBW4Level@el@@VLogFormat@base@2@@std@@PEAX@1@AEBW4Level@el@@@Z
	??$_Find@W4Level@el@@@?$_Tree@V?$_Tmap_traits@W4Level@el@@VSubsecondPrecision@base@2@U?$less@W4Level@el@@@std@@V?$allocator@U?$pair@$$CBW4Level@el@@VSubsecondPrecision@base@2@@std@@@6@$0A@@std@@@std@@AEBAPEAU?$_Tree_node@U?$pair@$$CBW4Level@el@@VSubsecondPrecision@base@2@@std@@PEAX@1@AEBW4Level@el@@@Z
	??$_Find@W4Level@el@@@?$_Tree@V?$_Tmap_traits@W4Level@el@@_KU?$less@W4Level@el@@@std@@V?$allocator@U?$pair@$$CBW4Level@el@@_K@std@@@4@$0A@@std@@@std@@AEBAPEAU?$_Tree_node@U?$pair@$$CBW4Level@el@@_K@std@@PEAX@1@AEBW4Level@el@@@Z
	??$_Find@W4Level@el@@@?$_Tree@V?$_Tmap_traits@W4Level@el@@_NU?$less@W4Level@el@@@std@@V?$allocator@U?$pair@$$CBW4Level@el@@_N@std@@@4@$0A@@std@@@std@@AEBAPEAU?$_Tree_node@U?$pair@$$CBW4Level@el@@_N@std@@PEAX@1@AEBW4Level@el@@@Z
	??$_Find_lower_bound@V?$basic_string@DU?$char_traits@D@std@@V?$allocator@D@2@@std@@@?$_Tree@V?$_Tmap_traits@V?$basic_string@DU?$char_traits@D@std@@V?$allocator@D@2@@std@@GU?$less@V?$basic_string@DU?$char_traits@D@std@@V?$allocator@D@2@@std@@@2@V?$allocator@U?$pair@$$CBV?$basic_string@DU?$char_traits@D@std@@V?$allocator@D@2@@std@@G@std@@@2@$0A@@std@@@std@@IEBA?AU?$_Tree_find_result@PEAU?$_Tree_node@U?$pair@$$CBV?$basic_string@DU?$char_traits@D@std@@V?$allocator@D@2@@std@@G@std@@PEAX@std@@@1@AEBV?$basic_string@DU?$char_traits@D@std@@V?$allocator@D@2@@1@@Z
	??$_Find_lower_bound@V?$basic_string@DU?$char_traits@D@std@@V?$allocator@D@2@@std@@@?$_Tree@V?$_Tmap_traits@V?$basic_string@DU?$char_traits@D@std@@V?$allocator@D@2@@std@@PEAVLogger@el@@U?$less@V?$basic_string@DU?$char_traits@D@std@@V?$allocator@D@2@@std@@@2@V?$allocator@U?$pair@$$CBV?$basic_string@DU?$char_traits@D@std@@V?$allocator@D@2@@std@@PEAVLogger@el@@@std@@@2@$0A@@std@@@std@@IEBA?AU?$_Tree_find_result@PEAU?$_Tree_node@U?$pair@$$CBV?$basic_string@DU?$char_traits@D@std@@V?$allocator@D@2@@std@@PEAVLogger@el@@@std@@PEAX@std@@@1@AEBV?$basic_string@DU?$char_traits@D@std@@V?$allocator@D@2@@1@@Z
	??$_Find_lower_bound@V?$basic_string@DU?$char_traits@D@std@@V?$allocator@D@2@@std@@@?$_Tree@V?$_Tmap_traits@V?$basic_string@DU?$char_traits@D@std@@V?$allocator@D@2@@std@@V12@U?$less@V?$basic_string@DU?$char_traits@D@std@@V?$allocator@D@2@@std@@@2@V?$allocator@U?$pair@$$CBV?$basic_string@DU?$char_traits@D@std@@V?$allocator@D@2@@std@@V12@@std@@@2@$0A@@std@@@std@@IEBA?AU?$_Tree_find_result@PEAU?$_Tree_node@U?$pair@$$CBV?$basic_string@DU?$char_traits@D@std@@V?$allocator@D@2@@std@@V12@@std@@PEAX@std@@@1@AEBV?$basic_string@DU?$char_traits@D@std@@V?$allocator@D@2@@1@@Z
	??$_Find_lower_bound@V?$basic_string@DU?$char_traits@D@std@@V?$allocator@D@2@@std@@@?$_Tree@V?$_Tmap_traits@V?$basic_string@DU?$char_traits@D@std@@V?$allocator@D@2@@std@@V?$shared_ptr@V?$basic_fstream@DU?$char_traits@D@std@@@std@@@2@U?$less@V?$basic_string@DU?$char_traits@D@std@@V?$allocator@D@2@@std@@@2@V?$allocator@U?$pair@$$CBV?$basic_string@DU?$char_traits@D@std@@V?$allocator@D@2@@std@@V?$shared_ptr@V?$basic_fstream@DU?$char_traits@D@std@@@std@@@2@@std@@@2@$0A@@std@@@std@@IEBA?AU?$_Tree_find_result@PEAU?$_Tree_node@U?$pair@$$CBV?$basic_string@DU?$char_traits@D@std@@V?$allocator@D@2@@std@@V?$shared_ptr@V?$basic_fstream@DU?$char_traits@D@std@@@std@@@2@@std@@PEAX@std@@@1@AEBV?$basic_string@DU?$char_traits@D@std@@V?$allocator@D@2@@1@@Z
	??$_Find_lower_bound@V?$basic_string@DU?$char_traits@D@std@@V?$allocator@D@2@@std@@@?$_Tree@V?$_Tmap_traits@V?$basic_string@DU?$char_traits@D@std@@V?$allocator@D@2@@std@@V?$shared_ptr@VLogDispatchCallback@el@@@2@U?$less@V?$basic_string@DU?$char_traits@D@std@@V?$allocator@D@2@@std@@@2@V?$allocator@U?$pair@$$CBV?$basic_string@DU?$char_traits@D@std@@V?$allocator@D@2@@std@@V?$shared_ptr@VLogDispatchCallback@el@@@2@@std@@@2@$0A@@std@@@std@@IEBA?AU?$_Tree_find_result@PEAU?$_Tree_node@U?$pair@$$CBV?$basic_string@DU?$char_traits@D@std@@V?$allocator@D@2@@std@@V?$shared_ptr@VLogDispatchCallback@el@@@2@@std@@PEAX@std@@@1@AEBV?$basic_string@DU?$char_traits@D@std@@V?$allocator@D@2@@1@@Z
	??$_Find_lower_bound@W4Level@el@@@?$_Tree@V?$_Tmap_traits@W4Level@el@@IU?$less@W4Level@el@@@std@@V?$allocator@U?$pair@$$CBW4Level@el@@I@std@@@4@$0A@@std@@@std@@IEBA?AU?$_Tree_find_result@PEAU?$_Tree_node@U?$pair@$$CBW4Level@el@@I@std@@PEAX@std@@@1@AEBW4Level@el@@@Z
	??$_Find_lower_bound@W4Level@el@@@?$_Tree@V?$_Tmap_traits@W4Level@el@@V?$basic_string@DU?$char_traits@D@std@@V?$allocator@D@2@@std@@U?$less@W4Level@el@@@4@V?$allocator@U?$pair@$$CBW4Level@el@@V?$basic_string@DU?$char_traits@D@std@@V?$allocator@D@2@@std@@@std@@@4@$0A@@std@@@std@@IEBA?AU?$_Tree_find_result@PEAU?$_Tree_node@U?$pair@$$CBW4Level@el@@V?$basic_string@DU?$char_traits@D@std@@V?$allocator@D@2@@std@@@std@@PEAX@std@@@1@AEBW4Level@el@@@Z
	??$_Find_lower_bound@W4Level@el@@@?$_Tree@V?$_Tmap_traits@W4Level@el@@V?$shared_ptr@V?$basic_fstream@DU?$char_traits@D@std@@@std@@@std@@U?$less@W4Level@el@@@4@V?$allocator@U?$pair@$$CBW4Level@el@@V?$shared_ptr@V?$basic_fstream@DU?$char_traits@D@std@@@std@@@std@@@std@@@4@$0A@@std@@@std@@IEBA?AU?$_Tree_find_result@PEAU?$_Tree_node@U?$pair@$$CBW4Level@el@@V?$shared_ptr@V?$basic_fstream@DU?$char_traits@D@std@@@std@@@std@@@std@@PEAX@std@@@1@AEBW4Level@el@@@Z
	??$_Find_lower_bound@W4Level@el@@@?$_Tree@V?$_Tmap_traits@W4Level@el@@VLogFormat@base@2@U?$less@W4Level@el@@@std@@V?$allocator@U?$pair@$$CBW4Level@el@@VLogFormat@base@2@@std@@@6@$0A@@std@@@std@@IEBA?AU?$_Tree_find_result@PEAU?$_Tree_node@U?$pair@$$CBW4Level@el@@VLogFormat@base@2@@std@@PEAX@std@@@1@AEBW4Level@el@@@Z
	??$_Find_lower_bound@W4Level@el@@@?$_Tree@V?$_Tmap_traits@W4Level@el@@VSubsecondPrecision@base@2@U?$less@W4Level@el@@@std@@V?$allocator@U?$pair@$$CBW4Level@el@@VSubsecondPrecision@base@2@@std@@@6@$0A@@std@@@std@@IEBA?AU?$_Tree_find_result@PEAU?$_Tree_node@U?$pair@$$CBW4Level@el@@VSubsecondPrecision@base@2@@std@@PEAX@std@@@1@AEBW4Level@el@@@Z
	??$_Find_lower_bound@W4Level@el@@@?$_Tree@V?$_Tmap_traits@W4Level@el@@_KU?$less@W4Level@el@@@std@@V?$allocator@U?$pair@$$CBW4Level@el@@_K@std@@@4@$0A@@std@@@std@@IEBA?AU?$_Tree_find_result@PEAU?$_Tree_node@U?$pair@$$CBW4Level@el@@_K@std@@PEAX@std@@@1@AEBW4Level@el@@@Z
	??$_Find_lower_bound@W4Level@el@@@?$_Tree@V?$_Tmap_traits@W4Level@el@@_NU?$less@W4Level@el@@@std@@V?$allocator@U?$pair@$$CBW4Level@el@@_N@std@@@4@$0A@@std@@@std@@IEBA?AU?$_Tree_find_result@PEAU?$_Tree_node@U?$pair@$$CBW4Level@el@@_N@std@@PEAX@std@@@1@AEBW4Level@el@@@Z
	??$_Find_unchecked1@PEAVCustomFormatSpecifier@el@@PEBD@std@@YAPEAVCustomFormatSpecifier@el@@PEAV12@QEAV12@AEBQEBDU?$integral_constant@_N$0A@@0@@Z
	??$_Find_unchecked1@PEBV?$basic_string@DU?$char_traits@D@std@@V?$allocator@D@2@@std@@V12@@std@@YAPEBV?$basic_string@DU?$char_traits@D@std@@V?$allocator@D@2@@0@PEBV10@QEBV10@AEBV10@U?$integral_constant@_N$0A@@0@@Z
	??$_Find_unchecked@PEAVCustomFormatSpecifier@el@@PEBD@std@@YAPEAVCustomFormatSpecifier@el@@QEAV12@0AEBQEBD@Z
	??$_Find_unchecked@PEBV?$basic_string@DU?$char_traits@D@std@@V?$allocator@D@2@@std@@V12@@std@@YAPEBV?$basic_string@DU?$char_traits@D@std@@V?$allocator@D@2@@0@QEBV10@0AEBV10@@Z
	??$_Fputc@D@std@@YA_NDPEAU_iobuf@@@Z
	??$_Freenode0@V?$allocator@U?$_Tree_node@U?$pair@$$CBV?$basic_string@DU?$char_traits@D@std@@V?$allocator@D@2@@std@@G@std@@PEAX@std@@@std@@@?$_Tree_node@U?$pair@$$CBV?$basic_string@DU?$char_traits@D@std@@V?$allocator@D@2@@std@@G@std@@PEAX@std@@SAXAEAV?$allocator@U?$_Tree_node@U?$pair@$$CBV?$basic_string@DU?$char_traits@D@std@@V?$allocator@D@2@@std@@G@std@@PEAX@std@@@1@PEAU01@@Z
	??$_Freenode0@V?$allocator@U?$_Tree_node@U?$pair@$$CBV?$basic_string@DU?$char_traits@D@std@@V?$allocator@D@2@@std@@PEAVLogger@el@@@std@@PEAX@std@@@std@@@?$_Tree_node@U?$pair@$$CBV?$basic_string@DU?$char_traits@D@std@@V?$allocator@D@2@@std@@PEAVLogger@el@@@std@@PEAX@std@@SAXAEAV?$allocator@U?$_Tree_node@U?$pair@$$CBV?$basic_string@DU?$char_traits@D@std@@V?$allocator@D@2@@std@@PEAVLogger@el@@@std@@PEAX@std@@@1@PEAU01@@Z
	??$_Freenode0@V?$allocator@U?$_Tree_node@U?$pair@$$CBV?$basic_string@DU?$char_traits@D@std@@V?$allocator@D@2@@std@@V12@@std@@PEAX@std@@@std@@@?$_Tree_node@U?$pair@$$CBV?$basic_string@DU?$char_traits@D@std@@V?$allocator@D@2@@std@@V12@@std@@PEAX@std@@SAXAEAV?$allocator@U?$_Tree_node@U?$pair@$$CBV?$basic_string@DU?$char_traits@D@std@@V?$allocator@D@2@@std@@V12@@std@@PEAX@std@@@1@PEAU01@@Z
	??$_Freenode0@V?$allocator@U?$_Tree_node@U?$pair@$$CBV?$basic_string@DU?$char_traits@D@std@@V?$allocator@D@2@@std@@V?$shared_ptr@V?$basic_fstream@DU?$char_traits@D@std@@@std@@@2@@std@@PEAX@std@@@std@@@?$_Tree_node@U?$pair@$$CBV?$basic_string@DU?$char_traits@D@std@@V?$allocator@D@2@@std@@V?$shared_ptr@V?$basic_fstream@DU?$char_traits@D@std@@@std@@@2@@std@@PEAX@std@@SAXAEAV?$allocator@U?$_Tree_node@U?$pair@$$CBV?$basic_string@DU?$char_traits@D@std@@V?$allocator@D@2@@std@@V?$shared_ptr@V?$basic_fstream@DU?$char_traits@D@std@@@std@@@2@@std@@PEAX@std@@@1@PEAU01@@Z
	??$_Freenode0@V?$allocator@U?$_Tree_node@U?$pair@$$CBV?$basic_string@DU?$char_traits@D@std@@V?$allocator@D@2@@std@@V?$shared_ptr@VLogDispatchCallback@el@@@2@@std@@PEAX@std@@@std@@@?$_Tree_node@U?$pair@$$CBV?$basic_string@DU?$char_traits@D@std@@V?$allocator@D@2@@std@@V?$shared_ptr@VLogDispatchCallback@el@@@2@@std@@PEAX@std@@SAXAEAV?$allocator@U?$_Tree_node@U?$pair@$$CBV?$basic_string@DU?$char_traits@D@std@@V?$allocator@D@2@@std@@V?$shared_ptr@VLogDispatchCallback@el@@@2@@std@@PEAX@std@@@1@PEAU01@@Z
	??$_Freenode0@V?$allocator@U?$_Tree_node@U?$pair@$$CBV?$basic_string@DU?$char_traits@D@std@@V?$allocator@D@2@@std@@V?$shared_ptr@VLoggerRegistrationCallback@el@@@2@@std@@PEAX@std@@@std@@@?$_Tree_node@U?$pair@$$CBV?$basic_string@DU?$char_traits@D@std@@V?$allocator@D@2@@std@@V?$shared_ptr@VLoggerRegistrationCallback@el@@@2@@std@@PEAX@std@@SAXAEAV?$allocator@U?$_Tree_node@U?$pair@$$CBV?$basic_string@DU?$char_traits@D@std@@V?$allocator@D@2@@std@@V?$shared_ptr@VLoggerRegistrationCallback@el@@@2@@std@@PEAX@std@@@1@PEAU01@@Z
	??$_Freenode0@V?$allocator@U?$_Tree_node@U?$pair@$$CBV?$basic_string@DU?$char_traits@D@std@@V?$allocator@D@2@@std@@V?$shared_ptr@VPerformanceTrackingCallback@el@@@2@@std@@PEAX@std@@@std@@@?$_Tree_node@U?$pair@$$CBV?$basic_string@DU?$char_traits@D@std@@V?$allocator@D@2@@std@@V?$shared_ptr@VPerformanceTrackingCallback@el@@@2@@std@@PEAX@std@@SAXAEAV?$allocator@U?$_Tree_node@U?$pair@$$CBV?$basic_string@DU?$char_traits@D@std@@V?$allocator@D@2@@std@@V?$shared_ptr@VPerformanceTrackingCallback@el@@@2@@std@@PEAX@std@@@1@PEAU01@@Z
	??$_Freenode0@V?$allocator@U?$_Tree_node@U?$pair@$$CBW4Level@el@@I@std@@PEAX@std@@@std@@@?$_Tree_node@U?$pair@$$CBW4Level@el@@I@std@@PEAX@std@@SAXAEAV?$allocator@U?$_Tree_node@U?$pair@$$CBW4Level@el@@I@std@@PEAX@std@@@1@PEAU01@@Z
	??$_Freenode0@V?$allocator@U?$_Tree_node@U?$pair@$$CBW4Level@el@@V?$basic_string@DU?$char_traits@D@std@@V?$allocator@D@2@@std@@@std@@PEAX@std@@@std@@@?$_Tree_node@U?$pair@$$CBW4Level@el@@V?$basic_string@DU?$char_traits@D@std@@V?$allocator@D@2@@std@@@std@@PEAX@std@@SAXAEAV?$allocator@U?$_Tree_node@U?$pair@$$CBW4Level@el@@V?$basic_string@DU?$char_traits@D@std@@V?$allocator@D@2@@std@@@std@@PEAX@std@@@1@PEAU01@@Z
	??$_Freenode0@V?$allocator@U?$_Tree_node@U?$pair@$$CBW4Level@el@@V?$shared_ptr@V?$basic_fstream@DU?$char_traits@D@std@@@std@@@std@@@std@@PEAX@std@@@std@@@?$_Tree_node@U?$pair@$$CBW4Level@el@@V?$shared_ptr@V?$basic_fstream@DU?$char_traits@D@std@@@std@@@std@@@std@@PEAX@std@@SAXAEAV?$allocator@U?$_Tree_node@U?$pair@$$CBW4Level@el@@V?$shared_ptr@V?$basic_fstream@DU?$char_traits@D@std@@@std@@@std@@@std@@PEAX@std@@@1@PEAU01@@Z
	??$_Freenode0@V?$allocator@U?$_Tree_node@U?$pair@$$CBW4Level@el@@VLogFormat@base@2@@std@@PEAX@std@@@std@@@?$_Tree_node@U?$pair@$$CBW4Level@el@@VLogFormat@base@2@@std@@PEAX@std@@SAXAEAV?$allocator@U?$_Tree_node@U?$pair@$$CBW4Level@el@@VLogFormat@base@2@@std@@PEAX@std@@@1@PEAU01@@Z
	??$_Freenode0@V?$allocator@U?$_Tree_node@U?$pair@$$CBW4Level@el@@VSubsecondPrecision@base@2@@std@@PEAX@std@@@std@@@?$_Tree_node@U?$pair@$$CBW4Level@el@@VSubsecondPrecision@base@2@@std@@PEAX@std@@SAXAEAV?$allocator@U?$_Tree_node@U?$pair@$$CBW4Level@el@@VSubsecondPrecision@base@2@@std@@PEAX@std@@@1@PEAU01@@Z
	??$_Freenode0@V?$allocator@U?$_Tree_node@U?$pair@$$CBW4Level@el@@_K@std@@PEAX@std@@@std@@@?$_Tree_node@U?$pair@$$CBW4Level@el@@_K@std@@PEAX@std@@SAXAEAV?$allocator@U?$_Tree_node@U?$pair@$$CBW4Level@el@@_K@std@@PEAX@std@@@1@PEAU01@@Z
	??$_Freenode0@V?$allocator@U?$_Tree_node@U?$pair@$$CBW4Level@el@@_N@std@@PEAX@std@@@std@@@?$_Tree_node@U?$pair@$$CBW4Level@el@@_N@std@@PEAX@std@@SAXAEAV?$allocator@U?$_Tree_node@U?$pair@$$CBW4Level@el@@_N@std@@PEAX@std@@@1@PEAU01@@Z
	??$_Freenode@V?$allocator@U?$_Tree_node@U?$pair@$$CBV?$basic_string@DU?$char_traits@D@std@@V?$allocator@D@2@@std@@G@std@@PEAX@std@@@std@@@?$_Tree_node@U?$pair@$$CBV?$basic_string@DU?$char_traits@D@std@@V?$allocator@D@2@@std@@G@std@@PEAX@std@@SAXAEAV?$allocator@U?$_Tree_node@U?$pair@$$CBV?$basic_string@DU?$char_traits@D@std@@V?$allocator@D@2@@std@@G@std@@PEAX@std@@@1@PEAU01@@Z
	??$_Freenode@V?$allocator@U?$_Tree_node@U?$pair@$$CBV?$basic_string@DU?$char_traits@D@std@@V?$allocator@D@2@@std@@PEAVLogger@el@@@std@@PEAX@std@@@std@@@?$_Tree_node@U?$pair@$$CBV?$basic_string@DU?$char_traits@D@std@@V?$allocator@D@2@@std@@PEAVLogger@el@@@std@@PEAX@std@@SAXAEAV?$allocator@U?$_Tree_node@U?$pair@$$CBV?$basic_string@DU?$char_traits@D@std@@V?$allocator@D@2@@std@@PEAVLogger@el@@@std@@PEAX@std@@@1@PEAU01@@Z
	??$_Freenode@V?$allocator@U?$_Tree_node@U?$pair@$$CBV?$basic_string@DU?$char_traits@D@std@@V?$allocator@D@2@@std@@V12@@std@@PEAX@std@@@std@@@?$_Tree_node@U?$pair@$$CBV?$basic_string@DU?$char_traits@D@std@@V?$allocator@D@2@@std@@V12@@std@@PEAX@std@@SAXAEAV?$allocator@U?$_Tree_node@U?$pair@$$CBV?$basic_string@DU?$char_traits@D@std@@V?$allocator@D@2@@std@@V12@@std@@PEAX@std@@@1@PEAU01@@Z
	??$_Freenode@V?$allocator@U?$_Tree_node@U?$pair@$$CBV?$basic_string@DU?$char_traits@D@std@@V?$allocator@D@2@@std@@V?$shared_ptr@V?$basic_fstream@DU?$char_traits@D@std@@@std@@@2@@std@@PEAX@std@@@std@@@?$_Tree_node@U?$pair@$$CBV?$basic_string@DU?$char_traits@D@std@@V?$allocator@D@2@@std@@V?$shared_ptr@V?$basic_fstream@DU?$char_traits@D@std@@@std@@@2@@std@@PEAX@std@@SAXAEAV?$allocator@U?$_Tree_node@U?$pair@$$CBV?$basic_string@DU?$char_traits@D@std@@V?$allocator@D@2@@std@@V?$shared_ptr@V?$basic_fstream@DU?$char_traits@D@std@@@std@@@2@@std@@PEAX@std@@@1@PEAU01@@Z
	??$_Freenode@V?$allocator@U?$_Tree_node@U?$pair@$$CBV?$basic_string@DU?$char_traits@D@std@@V?$allocator@D@2@@std@@V?$shared_ptr@VLogDispatchCallback@el@@@2@@std@@PEAX@std@@@std@@@?$_Tree_node@U?$pair@$$CBV?$basic_string@DU?$char_traits@D@std@@V?$allocator@D@2@@std@@V?$shared_ptr@VLogDispatchCallback@el@@@2@@std@@PEAX@std@@SAXAEAV?$allocator@U?$_Tree_node@U?$pair@$$CBV?$basic_string@DU?$char_traits@D@std@@V?$allocator@D@2@@std@@V?$shared_ptr@VLogDispatchCallback@el@@@2@@std@@PEAX@std@@@1@PEAU01@@Z
	??$_Freenode@V?$allocator@U?$_Tree_node@U?$pair@$$CBV?$basic_string@DU?$char_traits@D@std@@V?$allocator@D@2@@std@@V?$shared_ptr@VLoggerRegistrationCallback@el@@@2@@std@@PEAX@std@@@std@@@?$_Tree_node@U?$pair@$$CBV?$basic_string@DU?$char_traits@D@std@@V?$allocator@D@2@@std@@V?$shared_ptr@VLoggerRegistrationCallback@el@@@2@@std@@PEAX@std@@SAXAEAV?$allocator@U?$_Tree_node@U?$pair@$$CBV?$basic_string@DU?$char_traits@D@std@@V?$allocator@D@2@@std@@V?$shared_ptr@VLoggerRegistrationCallback@el@@@2@@std@@PEAX@std@@@1@PEAU01@@Z
	??$_Freenode@V?$allocator@U?$_Tree_node@U?$pair@$$CBV?$basic_string@DU?$char_traits@D@std@@V?$allocator@D@2@@std@@V?$shared_ptr@VPerformanceTrackingCallback@el@@@2@@std@@PEAX@std@@@std@@@?$_Tree_node@U?$pair@$$CBV?$basic_string@DU?$char_traits@D@std@@V?$allocator@D@2@@std@@V?$shared_ptr@VPerformanceTrackingCallback@el@@@2@@std@@PEAX@std@@SAXAEAV?$allocator@U?$_Tree_node@U?$pair@$$CBV?$basic_string@DU?$char_traits@D@std@@V?$allocator@D@2@@std@@V?$shared_ptr@VPerformanceTrackingCallback@el@@@2@@std@@PEAX@std@@@1@PEAU01@@Z
	??$_Freenode@V?$allocator@U?$_Tree_node@U?$pair@$$CBW4Level@el@@I@std@@PEAX@std@@@std@@@?$_Tree_node@U?$pair@$$CBW4Level@el@@I@std@@PEAX@std@@SAXAEAV?$allocator@U?$_Tree_node@U?$pair@$$CBW4Level@el@@I@std@@PEAX@std@@@1@PEAU01@@Z
	??$_Freenode@V?$allocator@U?$_Tree_node@U?$pair@$$CBW4Level@el@@V?$basic_string@DU?$char_traits@D@std@@V?$allocator@D@2@@std@@@std@@PEAX@std@@@std@@@?$_Tree_node@U?$pair@$$CBW4Level@el@@V?$basic_string@DU?$char_traits@D@std@@V?$allocator@D@2@@std@@@std@@PEAX@std@@SAXAEAV?$allocator@U?$_Tree_node@U?$pair@$$CBW4Level@el@@V?$basic_string@DU?$char_traits@D@std@@V?$allocator@D@2@@std@@@std@@PEAX@std@@@1@PEAU01@@Z
	??$_Freenode@V?$allocator@U?$_Tree_node@U?$pair@$$CBW4Level@el@@V?$shared_ptr@V?$basic_fstream@DU?$char_traits@D@std@@@std@@@std@@@std@@PEAX@std@@@std@@@?$_Tree_node@U?$pair@$$CBW4Level@el@@V?$shared_ptr@V?$basic_fstream@DU?$char_traits@D@std@@@std@@@std@@@std@@PEAX@std@@SAXAEAV?$allocator@U?$_Tree_node@U?$pair@$$CBW4Level@el@@V?$shared_ptr@V?$basic_fstream@DU?$char_traits@D@std@@@std@@@std@@@std@@PEAX@std@@@1@PEAU01@@Z
	??$_Freenode@V?$allocator@U?$_Tree_node@U?$pair@$$CBW4Level@el@@VLogFormat@base@2@@std@@PEAX@std@@@std@@@?$_Tree_node@U?$pair@$$CBW4Level@el@@VLogFormat@base@2@@std@@PEAX@std@@SAXAEAV?$allocator@U?$_Tree_node@U?$pair@$$CBW4Level@el@@VLogFormat@base@2@@std@@PEAX@std@@@1@PEAU01@@Z
	??$_Freenode@V?$allocator@U?$_Tree_node@U?$pair@$$CBW4Level@el@@VSubsecondPrecision@base@2@@std@@PEAX@std@@@std@@@?$_Tree_node@U?$pair@$$CBW4Level@el@@VSubsecondPrecision@base@2@@std@@PEAX@std@@SAXAEAV?$allocator@U?$_Tree_node@U?$pair@$$CBW4Level@el@@VSubsecondPrecision@base@2@@std@@PEAX@std@@@1@PEAU01@@Z
	??$_Freenode@V?$allocator@U?$_Tree_node@U?$pair@$$CBW4Level@el@@_K@std@@PEAX@std@@@std@@@?$_Tree_node@U?$pair@$$CBW4Level@el@@_K@std@@PEAX@std@@SAXAEAV?$allocator@U?$_Tree_node@U?$pair@$$CBW4Level@el@@_K@std@@PEAX@std@@@1@PEAU01@@Z
	??$_Freenode@V?$allocator@U?$_Tree_node@U?$pair@$$CBW4Level@el@@_N@std@@PEAX@std@@@std@@@?$_Tree_node@U?$pair@$$CBW4Level@el@@_N@std@@PEAX@std@@SAXAEAV?$allocator@U?$_Tree_node@U?$pair@$$CBW4Level@el@@_N@std@@PEAX@std@@@1@PEAU01@@Z
	??$_Get_size_of_n@$00@std@@YA_K_K@Z
	??$_Get_size_of_n@$03@std@@YA_K_K@Z
	??$_Get_size_of_n@$07@std@@YA_K_K@Z
	??$_Get_size_of_n@$0BA@@std@@YA_K_K@Z
	??$_Get_size_of_n@$0BAI@@std@@YA_K_K@Z
	??$_Get_size_of_n@$0BI@@std@@YA_K_K@Z
	??$_Get_size_of_n@$0CA@@std@@YA_K_K@Z
	??$_Get_size_of_n@$0CI@@std@@YA_K_K@Z
	??$_Get_size_of_n@$0DA@@std@@YA_K_K@Z
	??$_Get_size_of_n@$0DI@@std@@YA_K_K@Z
	??$_Get_size_of_n@$0EI@@std@@YA_K_K@Z
	??$_Get_size_of_n@$0FA@@std@@YA_K_K@Z
	??$_Get_size_of_n@$0FI@@std@@YA_K_K@Z
	??$_Get_size_of_n@$0HA@@std@@YA_K_K@Z
	??$_Get_unwrapped@AEAPEAD@std@@YA?A_TAEAPEAD@Z
	??$_Get_unwrapped@AEAPEAH@std@@YA?A_TAEAPEAH@Z
	??$_Get_unwrapped@AEAPEAM@std@@YA?A_TAEAPEAM@Z
	??$_Get_unwrapped@AEAV?$_String_const_iterator@V?$_String_val@U?$_Simple_types@D@std@@@std@@@std@@@std@@YA?A_TAEAV?$_String_const_iterator@V?$_String_val@U?$_Simple_types@D@std@@@std@@@0@@Z
	??$_Get_unwrapped@AEAV?$_String_iterator@V?$_String_val@U?$_Simple_types@D@std@@@std@@@std@@@std@@YA?A_TAEAV?$_String_iterator@V?$_String_val@U?$_Simple_types@D@std@@@std@@@0@@Z
	??$_Get_unwrapped@AEAV?$_Tree_unchecked_const_iterator@V?$_Tree_val@U?$_Tree_simple_types@U?$pair@$$CBV?$basic_string@DU?$char_traits@D@std@@V?$allocator@D@2@@std@@PEAVLogger@el@@@std@@@std@@@std@@U_Iterator_base0@2@@std@@@std@@YA?A_TAEAV?$_Tree_unchecked_const_iterator@V?$_Tree_val@U?$_Tree_simple_types@U?$pair@$$CBV?$basic_string@DU?$char_traits@D@std@@V?$allocator@D@2@@std@@PEAVLogger@el@@@std@@@std@@@std@@U_Iterator_base0@2@@0@@Z
	??$_Get_unwrapped@AEAV?$_Vector_const_iterator@V?$_Vector_val@U?$_Simple_types@H@std@@@std@@@std@@@std@@YA?A_TAEAV?$_Vector_const_iterator@V?$_Vector_val@U?$_Simple_types@H@std@@@std@@@0@@Z
	??$_Get_unwrapped@AEAV?$_Vector_const_iterator@V?$_Vector_val@U?$_Simple_types@V?$basic_string@DU?$char_traits@D@std@@V?$allocator@D@2@@std@@@std@@@std@@@std@@@std@@YA?A_TAEAV?$_Vector_const_iterator@V?$_Vector_val@U?$_Simple_types@V?$basic_string@DU?$char_traits@D@std@@V?$allocator@D@2@@std@@@std@@@std@@@0@@Z
	??$_Get_unwrapped@AEAV?$_Vector_const_iterator@V?$_Vector_val@U?$_Simple_types@V?$vector@Unode@DataSet@@V?$allocator@Unode@DataSet@@@std@@@std@@@std@@@std@@@std@@@std@@YA?A_TAEAV?$_Vector_const_iterator@V?$_Vector_val@U?$_Simple_types@V?$vector@Unode@DataSet@@V?$allocator@Unode@DataSet@@@std@@@std@@@std@@@std@@@0@@Z
	??$_Get_unwrapped@AEAV?$_Vector_iterator@V?$_Vector_val@U?$_Simple_types@H@std@@@std@@@std@@@std@@YA?A_TAEAV?$_Vector_iterator@V?$_Vector_val@U?$_Simple_types@H@std@@@std@@@0@@Z
	??$_Get_unwrapped@AEAV?$_Vector_iterator@V?$_Vector_val@U?$_Simple_types@N@std@@@std@@@std@@@std@@YA?A_TAEAV?$_Vector_iterator@V?$_Vector_val@U?$_Simple_types@N@std@@@std@@@0@@Z
	??$_Get_unwrapped@AEAV?$_Vector_iterator@V?$_Vector_val@U?$_Simple_types@PEAVConfiguration@el@@@std@@@std@@@std@@@std@@YA?A_TAEAV?$_Vector_iterator@V?$_Vector_val@U?$_Simple_types@PEAVConfiguration@el@@@std@@@std@@@0@@Z
	??$_Get_unwrapped@AEAV?$_Vector_iterator@V?$_Vector_val@U?$_Simple_types@PEAVHitCounter@base@el@@@std@@@std@@@std@@@std@@YA?A_TAEAV?$_Vector_iterator@V?$_Vector_val@U?$_Simple_types@PEAVHitCounter@base@el@@@std@@@std@@@0@@Z
	??$_Get_unwrapped@AEAV?$_Vector_iterator@V?$_Vector_val@U?$_Simple_types@V?$vector@Unode@DataSet@@V?$allocator@Unode@DataSet@@@std@@@std@@@std@@@std@@@std@@@std@@YA?A_TAEAV?$_Vector_iterator@V?$_Vector_val@U?$_Simple_types@V?$vector@Unode@DataSet@@V?$allocator@Unode@DataSet@@@std@@@std@@@std@@@std@@@0@@Z
	??$_Get_unwrapped@AEAV?$_Vector_iterator@V?$_Vector_val@U?$_Simple_types@VCustomFormatSpecifier@el@@@std@@@std@@@std@@@std@@YA?A_TAEAV?$_Vector_iterator@V?$_Vector_val@U?$_Simple_types@VCustomFormatSpecifier@el@@@std@@@std@@@0@@Z
	??$_Get_unwrapped@AEAV?$reverse_iterator@V?$_String_iterator@V?$_String_val@U?$_Simple_types@D@std@@@std@@@std@@@std@@@std@@YA?A_TAEAV?$reverse_iterator@V?$_String_iterator@V?$_String_val@U?$_Simple_types@D@std@@@std@@@std@@@0@@Z
	??$_Get_unwrapped@AEBQEAH@std@@YA?A_TAEBQEAH@Z
	??$_Get_unwrapped@AEBQEAM@std@@YA?A_TAEBQEAM@Z
	??$_Get_unwrapped@AEBQEAN@std@@YA?A_TAEBQEAN@Z
	??$_Get_unwrapped@AEBQEAPEAVConfiguration@el@@@std@@YA?A_TAEBQEAPEAVConfiguration@el@@@Z
	??$_Get_unwrapped@AEBQEAPEAVHitCounter@base@el@@@std@@YA?A_TAEBQEAPEAVHitCounter@base@el@@@Z
	??$_Get_unwrapped@AEBQEAUnode@DataSet@@@std@@YA?A_TAEBQEAUnode@DataSet@@@Z
	??$_Get_unwrapped@AEBQEAV?$basic_string@DU?$char_traits@D@std@@V?$allocator@D@2@@std@@@std@@YA?A_TAEBQEAV?$basic_string@DU?$char_traits@D@std@@V?$allocator@D@2@@0@@Z
	??$_Get_unwrapped@AEBQEAV?$vector@Unode@DataSet@@V?$allocator@Unode@DataSet@@@std@@@std@@@std@@YA?A_TAEBQEAV?$vector@Unode@DataSet@@V?$allocator@Unode@DataSet@@@std@@@0@@Z
	??$_Get_unwrapped@AEBQEAVCustomFormatSpecifier@el@@@std@@YA?A_TAEBQEAVCustomFormatSpecifier@el@@@Z
	??$_Get_unwrapped@AEBQEBH@std@@YA?A_TAEBQEBH@Z
	??$_Get_unwrapped@AEBQEBV?$vector@Unode@DataSet@@V?$allocator@Unode@DataSet@@@std@@@std@@@std@@YA?A_TAEBQEBV?$vector@Unode@DataSet@@V?$allocator@Unode@DataSet@@@std@@@0@@Z
	??$_Get_unwrapped@AEBV?$_String_iterator@V?$_String_val@U?$_Simple_types@D@std@@@std@@@std@@@std@@YA?A_TAEBV?$_String_iterator@V?$_String_val@U?$_Simple_types@D@std@@@std@@@0@@Z
	??$_Get_unwrapped@AEBV?$_Vector_const_iterator@V?$_Vector_val@U?$_Simple_types@V?$basic_string@DU?$char_traits@D@std@@V?$allocator@D@2@@std@@@std@@@std@@@std@@@std@@YA?A_TAEBV?$_Vector_const_iterator@V?$_Vector_val@U?$_Simple_types@V?$basic_string@DU?$char_traits@D@std@@V?$allocator@D@2@@std@@@std@@@std@@@0@@Z
	??$_Get_unwrapped@AEBV?$_Vector_iterator@V?$_Vector_val@U?$_Simple_types@PEAVConfiguration@el@@@std@@@std@@@std@@@std@@YA?A_TAEBV?$_Vector_iterator@V?$_Vector_val@U?$_Simple_types@PEAVConfiguration@el@@@std@@@std@@@0@@Z
	??$_Get_unwrapped@AEBV?$_Vector_iterator@V?$_Vector_val@U?$_Simple_types@PEAVHitCounter@base@el@@@std@@@std@@@std@@@std@@YA?A_TAEBV?$_Vector_iterator@V?$_Vector_val@U?$_Simple_types@PEAVHitCounter@base@el@@@std@@@std@@@0@@Z
	??$_Get_unwrapped@AEBV?$_Vector_iterator@V?$_Vector_val@U?$_Simple_types@VCustomFormatSpecifier@el@@@std@@@std@@@std@@@std@@YA?A_TAEBV?$_Vector_iterator@V?$_Vector_val@U?$_Simple_types@VCustomFormatSpecifier@el@@@std@@@std@@@0@@Z
	??$_Get_unwrapped@AEBV?$reverse_iterator@V?$_String_iterator@V?$_String_val@U?$_Simple_types@D@std@@@std@@@std@@@std@@@std@@YA?A_TAEBV?$reverse_iterator@V?$_String_iterator@V?$_String_val@U?$_Simple_types@D@std@@@std@@@std@@@0@@Z
	??$_Get_unwrapped_n@AEAV?$_String_iterator@V?$_String_val@U?$_Simple_types@D@std@@@std@@@std@@_J@std@@YA?A_TAEAV?$_String_iterator@V?$_String_val@U?$_Simple_types@D@std@@@std@@@0@_J@Z
	??$_Getvals@_W@?$time_get@DV?$istreambuf_iterator@DU?$char_traits@D@std@@@std@@@std@@IEAAX_WAEBV_Locinfo@1@@Z
	??$_Getvals@_W@?$time_get@_WV?$istreambuf_iterator@_WU?$char_traits@_W@std@@@std@@@std@@IEAAX_WAEBV_Locinfo@1@@Z
	??$_Idl_distance@V?$_String_iterator@V?$_String_val@U?$_Simple_types@D@std@@@std@@@std@@PEAD@std@@YA?A_PAEBQEAD0@Z
	??$_Insert_range@PEAH@?$vector@HV?$allocator@H@std@@@std@@AEAAXV?$_Vector_const_iterator@V?$_Vector_val@U?$_Simple_types@H@std@@@std@@@1@PEAH1Uforward_iterator_tag@1@@Z
	??$_Insert_range@PEAN@?$vector@MV?$allocator@M@std@@@std@@AEAAXV?$_Vector_const_iterator@V?$_Vector_val@U?$_Simple_types@M@std@@@std@@@1@PEAN1Uforward_iterator_tag@1@@Z
	??$_Insert_range@PEAN@?$vector@NV?$allocator@N@std@@@std@@AEAAXV?$_Vector_const_iterator@V?$_Vector_val@U?$_Simple_types@N@std@@@std@@@1@PEAN1Uforward_iterator_tag@1@@Z
	??$_Insert_range@PEAV?$vector@Unode@DataSet@@V?$allocator@Unode@DataSet@@@std@@@std@@@?$vector@V?$vector@Unode@DataSet@@V?$allocator@Unode@DataSet@@@std@@@std@@V?$allocator@V?$vector@Unode@DataSet@@V?$allocator@Unode@DataSet@@@std@@@std@@@2@@std@@AEAAXV?$_Vector_const_iterator@V?$_Vector_val@U?$_Simple_types@V?$vector@Unode@DataSet@@V?$allocator@Unode@DataSet@@@std@@@std@@@std@@@std@@@1@PEAV?$vector@Unode@DataSet@@V?$allocator@Unode@DataSet@@@std@@@1@1Uforward_iterator_tag@1@@Z
	??$_Insert_range@PEBV?$vector@Unode@DataSet@@V?$allocator@Unode@DataSet@@@std@@@std@@@?$vector@V?$vector@Unode@DataSet@@V?$allocator@Unode@DataSet@@@std@@@std@@V?$allocator@V?$vector@Unode@DataSet@@V?$allocator@Unode@DataSet@@@std@@@std@@@2@@std@@AEAAXV?$_Vector_const_iterator@V?$_Vector_val@U?$_Simple_types@V?$vector@Unode@DataSet@@V?$allocator@Unode@DataSet@@@std@@@std@@@std@@@std@@@1@PEBV?$vector@Unode@DataSet@@V?$allocator@Unode@DataSet@@@std@@@1@1Uforward_iterator_tag@1@@Z
	??$_Insert_string@DU?$char_traits@D@std@@_K@std@@YAAEAV?$basic_ostream@DU?$char_traits@D@std@@@0@AEAV10@QEBD_K@Z
	??$_Is_all_bits_zero@H@std@@YA_NAEBH@Z
	??$_Is_all_bits_zero@I@std@@YA_NAEBI@Z
	??$_Is_all_bits_zero@N@std@@YA_NAEBN@Z
	??$_Kfn@$$CBV?$basic_string@DU?$char_traits@D@std@@V?$allocator@D@2@@std@@G@?$_Tmap_traits@V?$basic_string@DU?$char_traits@D@std@@V?$allocator@D@2@@std@@GU?$less@V?$basic_string@DU?$char_traits@D@std@@V?$allocator@D@2@@std@@@2@V?$allocator@U?$pair@$$CBV?$basic_string@DU?$char_traits@D@std@@V?$allocator@D@2@@std@@G@std@@@2@$0A@@std@@SAAEBV?$basic_string@DU?$char_traits@D@std@@V?$allocator@D@2@@1@AEBU?$pair@$$CBV?$basic_string@DU?$char_traits@D@std@@V?$allocator@D@2@@std@@G@1@@Z
	??$_Kfn@$$CBV?$basic_string@DU?$char_traits@D@std@@V?$allocator@D@2@@std@@PEAVLogger@el@@@?$_Tmap_traits@V?$basic_string@DU?$char_traits@D@std@@V?$allocator@D@2@@std@@PEAVLogger@el@@U?$less@V?$basic_string@DU?$char_traits@D@std@@V?$allocator@D@2@@std@@@2@V?$allocator@U?$pair@$$CBV?$basic_string@DU?$char_traits@D@std@@V?$allocator@D@2@@std@@PEAVLogger@el@@@std@@@2@$0A@@std@@SAAEBV?$basic_string@DU?$char_traits@D@std@@V?$allocator@D@2@@1@AEBU?$pair@$$CBV?$basic_string@DU?$char_traits@D@std@@V?$allocator@D@2@@std@@PEAVLogger@el@@@1@@Z
	??$_Kfn@$$CBV?$basic_string@DU?$char_traits@D@std@@V?$allocator@D@2@@std@@V12@@?$_Tmap_traits@V?$basic_string@DU?$char_traits@D@std@@V?$allocator@D@2@@std@@V12@U?$less@V?$basic_string@DU?$char_traits@D@std@@V?$allocator@D@2@@std@@@2@V?$allocator@U?$pair@$$CBV?$basic_string@DU?$char_traits@D@std@@V?$allocator@D@2@@std@@V12@@std@@@2@$0A@@std@@SAAEBV?$basic_string@DU?$char_traits@D@std@@V?$allocator@D@2@@1@AEBU?$pair@$$CBV?$basic_string@DU?$char_traits@D@std@@V?$allocator@D@2@@std@@V12@@1@@Z
	??$_Kfn@$$CBV?$basic_string@DU?$char_traits@D@std@@V?$allocator@D@2@@std@@V?$shared_ptr@V?$basic_fstream@DU?$char_traits@D@std@@@std@@@2@@?$_Tmap_traits@V?$basic_string@DU?$char_traits@D@std@@V?$allocator@D@2@@std@@V?$shared_ptr@V?$basic_fstream@DU?$char_traits@D@std@@@std@@@2@U?$less@V?$basic_string@DU?$char_traits@D@std@@V?$allocator@D@2@@std@@@2@V?$allocator@U?$pair@$$CBV?$basic_string@DU?$char_traits@D@std@@V?$allocator@D@2@@std@@V?$shared_ptr@V?$basic_fstream@DU?$char_traits@D@std@@@std@@@2@@std@@@2@$0A@@std@@SAAEBV?$basic_string@DU?$char_traits@D@std@@V?$allocator@D@2@@1@AEBU?$pair@$$CBV?$basic_string@DU?$char_traits@D@std@@V?$allocator@D@2@@std@@V?$shared_ptr@V?$basic_fstream@DU?$char_traits@D@std@@@std@@@2@@1@@Z
	??$_Kfn@$$CBV?$basic_string@DU?$char_traits@D@std@@V?$allocator@D@2@@std@@V?$shared_ptr@VLogDispatchCallback@el@@@2@@?$_Tmap_traits@V?$basic_string@DU?$char_traits@D@std@@V?$allocator@D@2@@std@@V?$shared_ptr@VLogDispatchCallback@el@@@2@U?$less@V?$basic_string@DU?$char_traits@D@std@@V?$allocator@D@2@@std@@@2@V?$allocator@U?$pair@$$CBV?$basic_string@DU?$char_traits@D@std@@V?$allocator@D@2@@std@@V?$shared_ptr@VLogDispatchCallback@el@@@2@@std@@@2@$0A@@std@@SAAEBV?$basic_string@DU?$char_traits@D@std@@V?$allocator@D@2@@1@AEBU?$pair@$$CBV?$basic_string@DU?$char_traits@D@std@@V?$allocator@D@2@@std@@V?$shared_ptr@VLogDispatchCallback@el@@@2@@1@@Z
	??$_Kfn@$$CBW4Level@el@@I@?$_Tmap_traits@W4Level@el@@IU?$less@W4Level@el@@@std@@V?$allocator@U?$pair@$$CBW4Level@el@@I@std@@@4@$0A@@std@@SAAEBW4Level@el@@AEBU?$pair@$$CBW4Level@el@@I@1@@Z
	??$_Kfn@$$CBW4Level@el@@V?$basic_string@DU?$char_traits@D@std@@V?$allocator@D@2@@std@@@?$_Tmap_traits@W4Level@el@@V?$basic_string@DU?$char_traits@D@std@@V?$allocator@D@2@@std@@U?$less@W4Level@el@@@4@V?$allocator@U?$pair@$$CBW4Level@el@@V?$basic_string@DU?$char_traits@D@std@@V?$allocator@D@2@@std@@@std@@@4@$0A@@std@@SAAEBW4Level@el@@AEBU?$pair@$$CBW4Level@el@@V?$basic_string@DU?$char_traits@D@std@@V?$allocator@D@2@@std@@@1@@Z
	??$_Kfn@$$CBW4Level@el@@V?$shared_ptr@V?$basic_fstream@DU?$char_traits@D@std@@@std@@@std@@@?$_Tmap_traits@W4Level@el@@V?$shared_ptr@V?$basic_fstream@DU?$char_traits@D@std@@@std@@@std@@U?$less@W4Level@el@@@4@V?$allocator@U?$pair@$$CBW4Level@el@@V?$shared_ptr@V?$basic_fstream@DU?$char_traits@D@std@@@std@@@std@@@std@@@4@$0A@@std@@SAAEBW4Level@el@@AEBU?$pair@$$CBW4Level@el@@V?$shared_ptr@V?$basic_fstream@DU?$char_traits@D@std@@@std@@@std@@@1@@Z
	??$_Kfn@$$CBW4Level@el@@VLogFormat@base@2@@?$_Tmap_traits@W4Level@el@@VLogFormat@base@2@U?$less@W4Level@el@@@std@@V?$allocator@U?$pair@$$CBW4Level@el@@VLogFormat@base@2@@std@@@6@$0A@@std@@SAAEBW4Level@el@@AEBU?$pair@$$CBW4Level@el@@VLogFormat@base@2@@1@@Z
	??$_Kfn@$$CBW4Level@el@@VSubsecondPrecision@base@2@@?$_Tmap_traits@W4Level@el@@VSubsecondPrecision@base@2@U?$less@W4Level@el@@@std@@V?$allocator@U?$pair@$$CBW4Level@el@@VSubsecondPrecision@base@2@@std@@@6@$0A@@std@@SAAEBW4Level@el@@AEBU?$pair@$$CBW4Level@el@@VSubsecondPrecision@base@2@@1@@Z
	??$_Kfn@$$CBW4Level@el@@_K@?$_Tmap_traits@W4Level@el@@_KU?$less@W4Level@el@@@std@@V?$allocator@U?$pair@$$CBW4Level@el@@_K@std@@@4@$0A@@std@@SAAEBW4Level@el@@AEBU?$pair@$$CBW4Level@el@@_K@1@@Z
	??$_Kfn@$$CBW4Level@el@@_N@?$_Tmap_traits@W4Level@el@@_NU?$less@W4Level@el@@@std@@V?$allocator@U?$pair@$$CBW4Level@el@@_N@std@@@4@$0A@@std@@SAAEBW4Level@el@@AEBU?$pair@$$CBW4Level@el@@_N@1@@Z
	??$_Lower_bound_duplicate@V?$basic_string@DU?$char_traits@D@std@@V?$allocator@D@2@@std@@@?$_Tree@V?$_Tmap_traits@V?$basic_string@DU?$char_traits@D@std@@V?$allocator@D@2@@std@@GU?$less@V?$basic_string@DU?$char_traits@D@std@@V?$allocator@D@2@@std@@@2@V?$allocator@U?$pair@$$CBV?$basic_string@DU?$char_traits@D@std@@V?$allocator@D@2@@std@@G@std@@@2@$0A@@std@@@std@@IEBA_NQEAU?$_Tree_node@U?$pair@$$CBV?$basic_string@DU?$char_traits@D@std@@V?$allocator@D@2@@std@@G@std@@PEAX@1@AEBV?$basic_string@DU?$char_traits@D@std@@V?$allocator@D@2@@1@@Z
	??$_Lower_bound_duplicate@V?$basic_string@DU?$char_traits@D@std@@V?$allocator@D@2@@std@@@?$_Tree@V?$_Tmap_traits@V?$basic_string@DU?$char_traits@D@std@@V?$allocator@D@2@@std@@PEAVLogger@el@@U?$less@V?$basic_string@DU?$char_traits@D@std@@V?$allocator@D@2@@std@@@2@V?$allocator@U?$pair@$$CBV?$basic_string@DU?$char_traits@D@std@@V?$allocator@D@2@@std@@PEAVLogger@el@@@std@@@2@$0A@@std@@@std@@IEBA_NQEAU?$_Tree_node@U?$pair@$$CBV?$basic_string@DU?$char_traits@D@std@@V?$allocator@D@2@@std@@PEAVLogger@el@@@std@@PEAX@1@AEBV?$basic_string@DU?$char_traits@D@std@@V?$allocator@D@2@@1@@Z
	??$_Lower_bound_duplicate@V?$basic_string@DU?$char_traits@D@std@@V?$allocator@D@2@@std@@@?$_Tree@V?$_Tmap_traits@V?$basic_string@DU?$char_traits@D@std@@V?$allocator@D@2@@std@@V12@U?$less@V?$basic_string@DU?$char_traits@D@std@@V?$allocator@D@2@@std@@@2@V?$allocator@U?$pair@$$CBV?$basic_string@DU?$char_traits@D@std@@V?$allocator@D@2@@std@@V12@@std@@@2@$0A@@std@@@std@@IEBA_NQEAU?$_Tree_node@U?$pair@$$CBV?$basic_string@DU?$char_traits@D@std@@V?$allocator@D@2@@std@@V12@@std@@PEAX@1@AEBV?$basic_string@DU?$char_traits@D@std@@V?$allocator@D@2@@1@@Z
	??$_Lower_bound_duplicate@V?$basic_string@DU?$char_traits@D@std@@V?$allocator@D@2@@std@@@?$_Tree@V?$_Tmap_traits@V?$basic_string@DU?$char_traits@D@std@@V?$allocator@D@2@@std@@V?$shared_ptr@V?$basic_fstream@DU?$char_traits@D@std@@@std@@@2@U?$less@V?$basic_string@DU?$char_traits@D@std@@V?$allocator@D@2@@std@@@2@V?$allocator@U?$pair@$$CBV?$basic_string@DU?$char_traits@D@std@@V?$allocator@D@2@@std@@V?$shared_ptr@V?$basic_fstream@DU?$char_traits@D@std@@@std@@@2@@std@@@2@$0A@@std@@@std@@IEBA_NQEAU?$_Tree_node@U?$pair@$$CBV?$basic_string@DU?$char_traits@D@std@@V?$allocator@D@2@@std@@V?$shared_ptr@V?$basic_fstream@DU?$char_traits@D@std@@@std@@@2@@std@@PEAX@1@AEBV?$basic_string@DU?$char_traits@D@std@@V?$allocator@D@2@@1@@Z
	??$_Lower_bound_duplicate@V?$basic_string@DU?$char_traits@D@std@@V?$allocator@D@2@@std@@@?$_Tree@V?$_Tmap_traits@V?$basic_string@DU?$char_traits@D@std@@V?$allocator@D@2@@std@@V?$shared_ptr@VLogDispatchCallback@el@@@2@U?$less@V?$basic_string@DU?$char_traits@D@std@@V?$allocator@D@2@@std@@@2@V?$allocator@U?$pair@$$CBV?$basic_string@DU?$char_traits@D@std@@V?$allocator@D@2@@std@@V?$shared_ptr@VLogDispatchCallback@el@@@2@@std@@@2@$0A@@std@@@std@@IEBA_NQEAU?$_Tree_node@U?$pair@$$CBV?$basic_string@DU?$char_traits@D@std@@V?$allocator@D@2@@std@@V?$shared_ptr@VLogDispatchCallback@el@@@2@@std@@PEAX@1@AEBV?$basic_string@DU?$char_traits@D@std@@V?$allocator@D@2@@1@@Z
	??$_Lower_bound_duplicate@W4Level@el@@@?$_Tree@V?$_Tmap_traits@W4Level@el@@IU?$less@W4Level@el@@@std@@V?$allocator@U?$pair@$$CBW4Level@el@@I@std@@@4@$0A@@std@@@std@@IEBA_NQEAU?$_Tree_node@U?$pair@$$CBW4Level@el@@I@std@@PEAX@1@AEBW4Level@el@@@Z
	??$_Lower_bound_duplicate@W4Level@el@@@?$_Tree@V?$_Tmap_traits@W4Level@el@@V?$basic_string@DU?$char_traits@D@std@@V?$allocator@D@2@@std@@U?$less@W4Level@el@@@4@V?$allocator@U?$pair@$$CBW4Level@el@@V?$basic_string@DU?$char_traits@D@std@@V?$allocator@D@2@@std@@@std@@@4@$0A@@std@@@std@@IEBA_NQEAU?$_Tree_node@U?$pair@$$CBW4Level@el@@V?$basic_string@DU?$char_traits@D@std@@V?$allocator@D@2@@std@@@std@@PEAX@1@AEBW4Level@el@@@Z
	??$_Lower_bound_duplicate@W4Level@el@@@?$_Tree@V?$_Tmap_traits@W4Level@el@@V?$shared_ptr@V?$basic_fstream@DU?$char_traits@D@std@@@std@@@std@@U?$less@W4Level@el@@@4@V?$allocator@U?$pair@$$CBW4Level@el@@V?$shared_ptr@V?$basic_fstream@DU?$char_traits@D@std@@@std@@@std@@@std@@@4@$0A@@std@@@std@@IEBA_NQEAU?$_Tree_node@U?$pair@$$CBW4Level@el@@V?$shared_ptr@V?$basic_fstream@DU?$char_traits@D@std@@@std@@@std@@@std@@PEAX@1@AEBW4Level@el@@@Z
	??$_Lower_bound_duplicate@W4Level@el@@@?$_Tree@V?$_Tmap_traits@W4Level@el@@VLogFormat@base@2@U?$less@W4Level@el@@@std@@V?$allocator@U?$pair@$$CBW4Level@el@@VLogFormat@base@2@@std@@@6@$0A@@std@@@std@@IEBA_NQEAU?$_Tree_node@U?$pair@$$CBW4Level@el@@VLogFormat@base@2@@std@@PEAX@1@AEBW4Level@el@@@Z
	??$_Lower_bound_duplicate@W4Level@el@@@?$_Tree@V?$_Tmap_traits@W4Level@el@@VSubsecondPrecision@base@2@U?$less@W4Level@el@@@std@@V?$allocator@U?$pair@$$CBW4Level@el@@VSubsecondPrecision@base@2@@std@@@6@$0A@@std@@@std@@IEBA_NQEAU?$_Tree_node@U?$pair@$$CBW4Level@el@@VSubsecondPrecision@base@2@@std@@PEAX@1@AEBW4Level@el@@@Z
	??$_Lower_bound_duplicate@W4Level@el@@@?$_Tree@V?$_Tmap_traits@W4Level@el@@_KU?$less@W4Level@el@@@std@@V?$allocator@U?$pair@$$CBW4Level@el@@_K@std@@@4@$0A@@std@@@std@@IEBA_NQEAU?$_Tree_node@U?$pair@$$CBW4Level@el@@_K@std@@PEAX@1@AEBW4Level@el@@@Z
	??$_Lower_bound_duplicate@W4Level@el@@@?$_Tree@V?$_Tmap_traits@W4Level@el@@_NU?$less@W4Level@el@@@std@@V?$allocator@U?$pair@$$CBW4Level@el@@_N@std@@@4@$0A@@std@@@std@@IEBA_NQEAU?$_Tree_node@U?$pair@$$CBW4Level@el@@_N@std@@PEAX@1@AEBW4Level@el@@@Z
	??$_Maklocstr@D@std@@YAPEADPEBDPEADAEBU_Cvtvec@@@Z
	??$_Maklocstr@_W@std@@YAPEA_WPEBDPEA_WAEBU_Cvtvec@@@Z
	??$_Move_backward_unchecked@PEAHPEAH@std@@YAPEAHPEAH00@Z
	??$_Move_backward_unchecked@PEAMPEAM@std@@YAPEAMPEAM00@Z
	??$_Move_backward_unchecked@PEANPEAN@std@@YAPEANPEAN00@Z
	??$_Move_backward_unchecked@PEAV?$vector@Unode@DataSet@@V?$allocator@Unode@DataSet@@@std@@@std@@PEAV12@@std@@YAPEAV?$vector@Unode@DataSet@@V?$allocator@Unode@DataSet@@@std@@@0@PEAV10@00@Z
	??$_Move_construct_from@V?$basic_fstream@DU?$char_traits@D@std@@@std@@@?$_Ptr_base@V?$basic_fstream@DU?$char_traits@D@std@@@std@@@std@@IEAAX$$QEAV01@@Z
	??$_Move_construct_from@VLogDispatchCallback@el@@@?$_Ptr_base@VLogDispatchCallback@el@@@std@@IEAAX$$QEAV01@@Z
	??$_Move_unchecked@PEAHPEAH@std@@YAPEAHPEAH00@Z
	??$_Move_unchecked@PEAIPEAI@std@@YAPEAIPEAI00@Z
	??$_Move_unchecked@PEAMPEAM@std@@YAPEAMPEAM00@Z
	??$_Move_unchecked@PEANPEAN@std@@YAPEANPEAN00@Z
	??$_Move_unchecked@PEAPEAVConfiguration@el@@PEAPEAV12@@std@@YAPEAPEAVConfiguration@el@@PEAPEAV12@00@Z
	??$_Move_unchecked@PEAPEAVHitCounter@base@el@@PEAPEAV123@@std@@YAPEAPEAVHitCounter@base@el@@PEAPEAV123@00@Z
	??$_Move_unchecked@PEAV?$vector@Unode@DataSet@@V?$allocator@Unode@DataSet@@@std@@@std@@PEAV12@@std@@YAPEAV?$vector@Unode@DataSet@@V?$allocator@Unode@DataSet@@@std@@@0@PEAV10@00@Z
	??$_Move_unchecked@PEAVCustomFormatSpecifier@el@@PEAV12@@std@@YAPEAVCustomFormatSpecifier@el@@PEAV12@00@Z
	??$_Pocca@V?$allocator@D@std@@@std@@YAXAEAV?$allocator@D@0@AEBV10@@Z
	??$_Pocca@V?$allocator@H@std@@@std@@YAXAEAV?$allocator@H@0@AEBV10@@Z
	??$_Pocca@V?$allocator@M@std@@@std@@YAXAEAV?$allocator@M@0@AEBV10@@Z
	??$_Pocca@V?$allocator@U?$_Tree_node@U?$pair@$$CBW4Level@el@@I@std@@PEAX@std@@@std@@@std@@YAXAEAV?$allocator@U?$_Tree_node@U?$pair@$$CBW4Level@el@@I@std@@PEAX@std@@@0@AEBV10@@Z
	??$_Pocma@V?$allocator@D@std@@@std@@YAXAEAV?$allocator@D@0@0@Z
	??$_Pocma@V?$allocator@H@std@@@std@@YAXAEAV?$allocator@H@0@0@Z
	??$_Pocma@V?$allocator@N@std@@@std@@YAXAEAV?$allocator@N@0@0@Z
	??$_Pocma@V?$allocator@Unode@DataSet@@@std@@@std@@YAXAEAV?$allocator@Unode@DataSet@@@0@0@Z
	??$_Range_construct_or_tidy@PEAH@?$vector@HV?$allocator@H@std@@@std@@AEAAXPEAH0Uforward_iterator_tag@1@@Z
	??$_Range_construct_or_tidy@PEBH@?$vector@HV?$allocator@H@std@@@std@@AEAAXPEBH0Uforward_iterator_tag@1@@Z
	??$_Range_construct_or_tidy@PEBV?$vector@Unode@DataSet@@V?$allocator@Unode@DataSet@@@std@@@std@@@?$vector@V?$vector@Unode@DataSet@@V?$allocator@Unode@DataSet@@@std@@@std@@V?$allocator@V?$vector@Unode@DataSet@@V?$allocator@Unode@DataSet@@@std@@@std@@@2@@std@@AEAAXPEBV?$vector@Unode@DataSet@@V?$allocator@Unode@DataSet@@@std@@@1@0Uforward_iterator_tag@1@@Z
	??$_Reallocate_for@V<lambda_66f57f934f28d61049862f64df852ff0>@@PEBD@?$basic_string@DU?$char_traits@D@std@@V?$allocator@D@2@@std@@AEAAAEAV01@_KV<lambda_66f57f934f28d61049862f64df852ff0>@@PEBD@Z
	??$_Reallocate_grow_by@V<lambda_319d5e083f45f90dcdce5dce53cbb275>@@D@?$basic_string@DU?$char_traits@D@std@@V?$allocator@D@2@@std@@AEAAAEAV01@_KV<lambda_319d5e083f45f90dcdce5dce53cbb275>@@D@Z
	??$_Reallocate_grow_by@V<lambda_55b0f89b53a0342680e40398a0d39887>@@_K_KPEBD_K@?$basic_string@DU?$char_traits@D@std@@V?$allocator@D@2@@std@@AEAAAEAV01@_KV<lambda_55b0f89b53a0342680e40398a0d39887>@@_K2PEBD2@Z
	??$_Reallocate_grow_by@V<lambda_65e615be2a453ca0576c979606f46740>@@PEBD_K@?$basic_string@DU?$char_traits@D@std@@V?$allocator@D@2@@std@@AEAAAEAV01@_KV<lambda_65e615be2a453ca0576c979606f46740>@@PEBD_K@Z
	??$_Reallocate_grow_by@V<lambda_f3a66ab6a0570788f31503db83886f49>@@_KPEBD_K@?$basic_string@DU?$char_traits@D@std@@V?$allocator@D@2@@std@@AEAAAEAV01@_KV<lambda_f3a66ab6a0570788f31503db83886f49>@@_KPEBD2@Z
	??$_Refancy@PEAD$0A@@std@@YAPEADPEAD@Z
	??$_Refancy@PEAH$0A@@std@@YAPEAHPEAH@Z
	??$_Refancy@PEAM$0A@@std@@YAPEAMPEAM@Z
	??$_Refancy@PEAPEAVConfiguration@el@@$0A@@std@@YAPEAPEAVConfiguration@el@@PEAPEAV12@@Z
	??$_Refancy@PEAPEAVHitCounter@base@el@@$0A@@std@@YAPEAPEAVHitCounter@base@el@@PEAPEAV123@@Z
	??$_Refancy@PEAV?$basic_string@DU?$char_traits@D@std@@V?$allocator@D@2@@std@@$0A@@std@@YAPEAV?$basic_string@DU?$char_traits@D@std@@V?$allocator@D@2@@0@PEAV10@@Z
	??$_Refancy@PEAVCustomFormatSpecifier@el@@$0A@@std@@YAPEAVCustomFormatSpecifier@el@@PEAV12@@Z
	??$_Refancy@PEBD$0A@@std@@YAPEBDPEBD@Z
	??$_Reset@P6AXPEBD_K@Z@?$_Func_class@XPEBD_K@std@@IEAAX$$QEAP6AXPEBD_K@Z@Z
	??$_Resize@U_Value_init_tag@std@@@?$vector@NV?$allocator@N@std@@@std@@AEAAX_KAEBU_Value_init_tag@1@@Z
	??$_Resize_reallocate@U_Value_init_tag@std@@@?$vector@NV?$allocator@N@std@@@std@@AEAAX_KAEBU_Value_init_tag@1@@Z
	??$_Seek_to@PEAD$0A@@?$reverse_iterator@V?$_String_iterator@V?$_String_val@U?$_Simple_types@D@std@@@std@@@std@@@std@@QEAAXAEBV?$reverse_iterator@PEAD@1@@Z
	??$_Seek_wrapped@V?$_String_iterator@V?$_String_val@U?$_Simple_types@D@std@@@std@@@std@@AEAPEAD@std@@YAXAEAV?$_String_iterator@V?$_String_val@U?$_Simple_types@D@std@@@std@@@0@AEAPEAD@Z
	??$_Seek_wrapped@V?$_Vector_const_iterator@V?$_Vector_val@U?$_Simple_types@V?$basic_string@DU?$char_traits@D@std@@V?$allocator@D@2@@std@@@std@@@std@@@std@@PEBV?$basic_string@DU?$char_traits@D@std@@V?$allocator@D@2@@2@@std@@YAXAEAV?$_Vector_const_iterator@V?$_Vector_val@U?$_Simple_types@V?$basic_string@DU?$char_traits@D@std@@V?$allocator@D@2@@std@@@std@@@std@@@0@$$QEAPEBV?$basic_string@DU?$char_traits@D@std@@V?$allocator@D@2@@0@@Z
	??$_Seek_wrapped@V?$_Vector_iterator@V?$_Vector_val@U?$_Simple_types@PEAVConfiguration@el@@@std@@@std@@@std@@AEAPEAPEAVConfiguration@el@@@std@@YAXAEAV?$_Vector_iterator@V?$_Vector_val@U?$_Simple_types@PEAVConfiguration@el@@@std@@@std@@@0@AEAPEAPEAVConfiguration@el@@@Z
	??$_Seek_wrapped@V?$_Vector_iterator@V?$_Vector_val@U?$_Simple_types@PEAVHitCounter@base@el@@@std@@@std@@@std@@AEAPEAPEAVHitCounter@base@el@@@std@@YAXAEAV?$_Vector_iterator@V?$_Vector_val@U?$_Simple_types@PEAVHitCounter@base@el@@@std@@@std@@@0@AEAPEAPEAVHitCounter@base@el@@@Z
	??$_Seek_wrapped@V?$_Vector_iterator@V?$_Vector_val@U?$_Simple_types@VCustomFormatSpecifier@el@@@std@@@std@@@std@@PEAVCustomFormatSpecifier@el@@@std@@YAXAEAV?$_Vector_iterator@V?$_Vector_val@U?$_Simple_types@VCustomFormatSpecifier@el@@@std@@@std@@@0@$$QEAPEAVCustomFormatSpecifier@el@@@Z
	??$_Seek_wrapped@V?$reverse_iterator@V?$_String_iterator@V?$_String_val@U?$_Simple_types@D@std@@@std@@@std@@@std@@AEAV?$reverse_iterator@PEAD@2@@std@@YAXAEAV?$reverse_iterator@V?$_String_iterator@V?$_String_val@U?$_Simple_types@D@std@@@std@@@std@@@0@AEAV?$reverse_iterator@PEAD@0@@Z
	??$_Set_ptr_rep_and_enable_shared@V?$basic_fstream@DU?$char_traits@D@std@@@std@@@?$shared_ptr@V?$basic_fstream@DU?$char_traits@D@std@@@std@@@std@@AEAAXQEAV?$basic_fstream@DU?$char_traits@D@std@@@1@QEAV_Ref_count_base@1@@Z
	??$_Set_ptr_rep_and_enable_shared@VDefaultLogBuilder@base@el@@@?$shared_ptr@VLogBuilder@el@@@std@@AEAAXQEAVDefaultLogBuilder@base@el@@QEAV_Ref_count_base@1@@Z
	??$_Set_ptr_rep_and_enable_shared@VDefaultLogDispatchCallback@base@el@@@?$shared_ptr@VLogDispatchCallback@el@@@std@@AEAAXQEAVDefaultLogDispatchCallback@base@el@@QEAV_Ref_count_base@1@@Z
	??$_Set_ptr_rep_and_enable_shared@VStorage@base@el@@@?$shared_ptr@VStorage@base@el@@@std@@AEAAXQEAVStorage@base@el@@QEAV_Ref_count_base@1@@Z
	??$_Test_callable@P6AXPEBD_K@Z@std@@YA_NAEBQ6AXPEBD_K@Z@Z
	??$_To_address@PEAH@std@@YA?A_PAEBQEAH@Z
	??$_To_address@PEAI@std@@YA?A_PAEBQEAI@Z
	??$_To_address@PEAM@std@@YA?A_PAEBQEAM@Z
	??$_To_address@PEAN@std@@YA?A_PAEBQEAN@Z
	??$_To_address@PEAPEAVConfiguration@el@@@std@@YA?A_PAEBQEAPEAVConfiguration@el@@@Z
	??$_To_address@PEAPEAVHitCounter@base@el@@@std@@YA?A_PAEBQEAPEAVHitCounter@base@el@@@Z
	??$_To_address@PEBH@std@@YA?A_PAEBQEBH@Z
	??$_Traits_compare@U?$char_traits@D@std@@@std@@YAHQEBD_K01@Z
	??$_Traits_equal@U?$char_traits@D@std@@@std@@YA_NQEBD_K01@Z
	??$_Traits_find@U?$char_traits@D@std@@@std@@YA_KQEBD_K101@Z
	??$_Traits_find_ch@U?$char_traits@D@std@@@std@@YA_KQEBD_K1D@Z
	??$_Traits_find_last_of@U?$char_traits@D@std@@@std@@YA_KQEBD_K101U?$integral_constant@_N$00@0@@Z
	??$_Traits_find_last_of@U?$char_traits@D@std@@@std@@YA_KQEBD_K101U?$integral_constant@_N$0A@@0@@Z
	??$_Ucopy@PEAH@?$vector@HV?$allocator@H@std@@@std@@AEAAPEAHPEAH00@Z
	??$_Ucopy@PEAM@?$vector@MV?$allocator@M@std@@@std@@AEAAPEAMPEAM00@Z
	??$_Ucopy@PEAN@?$vector@MV?$allocator@M@std@@@std@@AEAAPEAMPEAN0PEAM@Z
	??$_Ucopy@PEAN@?$vector@NV?$allocator@N@std@@@std@@AEAAPEANPEAN00@Z
	??$_Ucopy@PEAUnode@DataSet@@@?$vector@Unode@DataSet@@V?$allocator@Unode@DataSet@@@std@@@std@@AEAAPEAUnode@DataSet@@PEAU23@00@Z
	??$_Ucopy@PEAV?$vector@Unode@DataSet@@V?$allocator@Unode@DataSet@@@std@@@std@@@?$vector@V?$vector@Unode@DataSet@@V?$allocator@Unode@DataSet@@@std@@@std@@V?$allocator@V?$vector@Unode@DataSet@@V?$allocator@Unode@DataSet@@@std@@@std@@@2@@std@@AEAAPEAV?$vector@Unode@DataSet@@V?$allocator@Unode@DataSet@@@std@@@1@PEAV21@00@Z
	??$_Ucopy@PEBH@?$vector@HV?$allocator@H@std@@@std@@AEAAPEAHPEBH0PEAH@Z
	??$_Ucopy@PEBV?$vector@Unode@DataSet@@V?$allocator@Unode@DataSet@@@std@@@std@@@?$vector@V?$vector@Unode@DataSet@@V?$allocator@Unode@DataSet@@@std@@@std@@V?$allocator@V?$vector@Unode@DataSet@@V?$allocator@Unode@DataSet@@@std@@@std@@@2@@std@@AEAAPEAV?$vector@Unode@DataSet@@V?$allocator@Unode@DataSet@@@std@@@1@PEBV21@0PEAV21@@Z
	??$_Unfancy@$$CBD@std@@YAPEBDPEBD@Z
	??$_Unfancy@D@std@@YAPEADPEAD@Z
	??$_Unfancy@H@std@@YAPEAHPEAH@Z
	??$_Unfancy@I@std@@YAPEAIPEAI@Z
	??$_Unfancy@M@std@@YAPEAMPEAM@Z
	??$_Unfancy@N@std@@YAPEANPEAN@Z
	??$_Unfancy@PEAVConfiguration@el@@@std@@YAPEAPEAVConfiguration@el@@PEAPEAV12@@Z
	??$_Unfancy@PEAVHitCounter@base@el@@@std@@YAPEAPEAVHitCounter@base@el@@PEAPEAV123@@Z
	??$_Unfancy@U_Container_proxy@std@@@std@@YAPEAU_Container_proxy@0@PEAU10@@Z
	??$_Unfancy@Unode@DataSet@@@std@@YAPEAUnode@DataSet@@PEAU12@@Z
	??$_Unfancy@V?$SyncArray@N@@@std@@YAPEAV?$SyncArray@N@@PEAV1@@Z
	??$_Unfancy@V?$basic_string@DU?$char_traits@D@std@@V?$allocator@D@2@@std@@@std@@YAPEAV?$basic_string@DU?$char_traits@D@std@@V?$allocator@D@2@@0@PEAV10@@Z
	??$_Unfancy@V?$vector@NV?$allocator@N@std@@@std@@@std@@YAPEAV?$vector@NV?$allocator@N@std@@@0@PEAV10@@Z
	??$_Unfancy@V?$vector@Unode@DataSet@@V?$allocator@Unode@DataSet@@@std@@@std@@@std@@YAPEAV?$vector@Unode@DataSet@@V?$allocator@Unode@DataSet@@@std@@@0@PEAV10@@Z
	??$_Unfancy@V?$vector@V?$vector@Unode@DataSet@@V?$allocator@Unode@DataSet@@@std@@@std@@V?$allocator@V?$vector@Unode@DataSet@@V?$allocator@Unode@DataSet@@@std@@@std@@@2@@std@@@std@@YAPEAV?$vector@V?$vector@Unode@DataSet@@V?$allocator@Unode@DataSet@@@std@@@std@@V?$allocator@V?$vector@Unode@DataSet@@V?$allocator@Unode@DataSet@@@std@@@std@@@2@@0@PEAV10@@Z
	??$_Unfancy@VCustomFormatSpecifier@el@@@std@@YAPEAVCustomFormatSpecifier@el@@PEAV12@@Z
	??$_Unfancy_maybe_null@H@std@@YAPEAHPEAH@Z
	??$_Unfancy_maybe_null@I@std@@YAPEAIPEAI@Z
	??$_Unfancy_maybe_null@M@std@@YAPEAMPEAM@Z
	??$_Unfancy_maybe_null@N@std@@YAPEANPEAN@Z
	??$_Ungetc@D@std@@YA_NAEBDPEAU_iobuf@@@Z
	??$_Uninitialized_copy@PEAHV?$allocator@H@std@@@std@@YAPEAHQEAH0PEAHAEAV?$allocator@H@0@@Z
	??$_Uninitialized_copy@PEAMV?$allocator@M@std@@@std@@YAPEAMQEAM0PEAMAEAV?$allocator@M@0@@Z
	??$_Uninitialized_copy@PEANV?$allocator@M@std@@@std@@YAPEAMQEAN0PEAMAEAV?$allocator@M@0@@Z
	??$_Uninitialized_copy@PEANV?$allocator@N@std@@@std@@YAPEANQEAN0PEANAEAV?$allocator@N@0@@Z
	??$_Uninitialized_copy@PEAUnode@DataSet@@V?$allocator@Unode@DataSet@@@std@@@std@@YAPEAUnode@DataSet@@QEAU12@0PEAU12@AEAV?$allocator@Unode@DataSet@@@0@@Z
	??$_Uninitialized_copy@PEAV?$vector@Unode@DataSet@@V?$allocator@Unode@DataSet@@@std@@@std@@V?$allocator@V?$vector@Unode@DataSet@@V?$allocator@Unode@DataSet@@@std@@@std@@@2@@std@@YAPEAV?$vector@Unode@DataSet@@V?$allocator@Unode@DataSet@@@std@@@0@QEAV10@0PEAV10@AEAV?$allocator@V?$vector@Unode@DataSet@@V?$allocator@Unode@DataSet@@@std@@@std@@@0@@Z
	??$_Uninitialized_copy@PEBHV?$allocator@H@std@@@std@@YAPEAHQEBH0PEAHAEAV?$allocator@H@0@@Z
	??$_Uninitialized_copy@PEBV?$vector@Unode@DataSet@@V?$allocator@Unode@DataSet@@@std@@@std@@V?$allocator@V?$vector@Unode@DataSet@@V?$allocator@Unode@DataSet@@@std@@@std@@@2@@std@@YAPEAV?$vector@Unode@DataSet@@V?$allocator@Unode@DataSet@@@std@@@0@QEBV10@0PEAV10@AEAV?$allocator@V?$vector@Unode@DataSet@@V?$allocator@Unode@DataSet@@@std@@@std@@@0@@Z
	??$_Uninitialized_fill_n@V?$allocator@H@std@@@std@@YAPEAHPEAH_KAEBHAEAV?$allocator@H@0@@Z
	??$_Uninitialized_fill_n@V?$allocator@I@std@@@std@@YAPEAIPEAI_KAEBIAEAV?$allocator@I@0@@Z
	??$_Uninitialized_fill_n@V?$allocator@N@std@@@std@@YAPEANPEAN_KAEBNAEAV?$allocator@N@0@@Z
	??$_Uninitialized_fill_n@V?$allocator@V?$vector@NV?$allocator@N@std@@@std@@@std@@@std@@YAPEAV?$vector@NV?$allocator@N@std@@@0@PEAV10@_KAEBV10@AEAV?$allocator@V?$vector@NV?$allocator@N@std@@@std@@@0@@Z
	??$_Uninitialized_move@PEAHV?$allocator@H@std@@@std@@YAPEAHQEAH0PEAHAEAV?$allocator@H@0@@Z
	??$_Uninitialized_move@PEAMV?$allocator@M@std@@@std@@YAPEAMQEAM0PEAMAEAV?$allocator@M@0@@Z
	??$_Uninitialized_move@PEANV?$allocator@N@std@@@std@@YAPEANQEAN0PEANAEAV?$allocator@N@0@@Z
	??$_Uninitialized_move@PEAPEAVConfiguration@el@@V?$allocator@PEAVConfiguration@el@@@std@@@std@@YAPEAPEAVConfiguration@el@@QEAPEAV12@0PEAPEAV12@AEAV?$allocator@PEAVConfiguration@el@@@0@@Z
	??$_Uninitialized_move@PEAPEAVHitCounter@base@el@@V?$allocator@PEAVHitCounter@base@el@@@std@@@std@@YAPEAPEAVHitCounter@base@el@@QEAPEAV123@0PEAPEAV123@AEAV?$allocator@PEAVHitCounter@base@el@@@0@@Z
	??$_Uninitialized_move@PEAUnode@DataSet@@V?$allocator@Unode@DataSet@@@std@@@std@@YAPEAUnode@DataSet@@QEAU12@0PEAU12@AEAV?$allocator@Unode@DataSet@@@0@@Z
	??$_Uninitialized_move@PEAV?$basic_string@DU?$char_traits@D@std@@V?$allocator@D@2@@std@@V?$allocator@V?$basic_string@DU?$char_traits@D@std@@V?$allocator@D@2@@std@@@2@@std@@YAPEAV?$basic_string@DU?$char_traits@D@std@@V?$allocator@D@2@@0@QEAV10@0PEAV10@AEAV?$allocator@V?$basic_string@DU?$char_traits@D@std@@V?$allocator@D@2@@std@@@0@@Z
	??$_Uninitialized_move@PEAV?$vector@Unode@DataSet@@V?$allocator@Unode@DataSet@@@std@@@std@@V?$allocator@V?$vector@Unode@DataSet@@V?$allocator@Unode@DataSet@@@std@@@std@@@2@@std@@YAPEAV?$vector@Unode@DataSet@@V?$allocator@Unode@DataSet@@@std@@@0@QEAV10@0PEAV10@AEAV?$allocator@V?$vector@Unode@DataSet@@V?$allocator@Unode@DataSet@@@std@@@std@@@0@@Z
	??$_Uninitialized_move@PEAVCustomFormatSpecifier@el@@V?$allocator@VCustomFormatSpecifier@el@@@std@@@std@@YAPEAVCustomFormatSpecifier@el@@QEAV12@0PEAV12@AEAV?$allocator@VCustomFormatSpecifier@el@@@0@@Z
	??$_Uninitialized_value_construct_n@V?$allocator@H@std@@@std@@YAPEAHPEAH_KAEAV?$allocator@H@0@@Z
	??$_Uninitialized_value_construct_n@V?$allocator@N@std@@@std@@YAPEANPEAN_KAEAV?$allocator@N@0@@Z
	??$_Uninitialized_value_construct_n@V?$allocator@V?$SyncArray@N@@@std@@@std@@YAPEAV?$SyncArray@N@@PEAV1@_KAEAV?$allocator@V?$SyncArray@N@@@0@@Z
	??$_Uninitialized_value_construct_n@V?$allocator@V?$vector@NV?$allocator@N@std@@@std@@@std@@@std@@YAPEAV?$vector@NV?$allocator@N@std@@@0@PEAV10@_KAEAV?$allocator@V?$vector@NV?$allocator@N@std@@@std@@@0@@Z
	??$_Uninitialized_value_construct_n@V?$allocator@V?$vector@V?$vector@Unode@DataSet@@V?$allocator@Unode@DataSet@@@std@@@std@@V?$allocator@V?$vector@Unode@DataSet@@V?$allocator@Unode@DataSet@@@std@@@std@@@2@@std@@@std@@@std@@YAPEAV?$vector@V?$vector@Unode@DataSet@@V?$allocator@Unode@DataSet@@@std@@@std@@V?$allocator@V?$vector@Unode@DataSet@@V?$allocator@Unode@DataSet@@@std@@@std@@@2@@0@PEAV10@_KAEAV?$allocator@V?$vector@V?$vector@Unode@DataSet@@V?$allocator@Unode@DataSet@@@std@@@std@@V?$allocator@V?$vector@Unode@DataSet@@V?$allocator@Unode@DataSet@@@std@@@std@@@2@@std@@@0@@Z
	??$_Unwrapped@V?$_String_iterator@V?$_String_val@U?$_Simple_types@D@std@@@std@@@std@@$0A@@?$reverse_iterator@V?$_String_iterator@V?$_String_val@U?$_Simple_types@D@std@@@std@@@std@@@std@@QEBA?AV?$reverse_iterator@PEAD@1@XZ
	??$_Verify_range@D@std@@YAXQEBD0@Z
	??$_Verify_range@H@std@@YAXQEBH0@Z
	??$_Verify_range@M@std@@YAXQEBM0@Z
	??$_Verify_range@V?$_String_iterator@V?$_String_val@U?$_Simple_types@D@std@@@std@@@std@@$0A@@std@@YAXAEBV?$reverse_iterator@V?$_String_iterator@V?$_String_val@U?$_Simple_types@D@std@@@std@@@std@@@0@0@Z
	??$_Voidify_iter@PEAH@std@@YAPEAXPEAH@Z
	??$_Voidify_iter@PEAI@std@@YAPEAXPEAI@Z
	??$_Voidify_iter@PEAM@std@@YAPEAXPEAM@Z
	??$_Voidify_iter@PEAN@std@@YAPEAXPEAN@Z
	??$_Voidify_iter@PEAPEAD@std@@YAPEAXPEAPEAD@Z
	??$_Voidify_iter@PEAPEAU?$_Tree_node@U?$pair@$$CBV?$basic_string@DU?$char_traits@D@std@@V?$allocator@D@2@@std@@G@std@@PEAX@std@@@std@@YAPEAXPEAPEAU?$_Tree_node@U?$pair@$$CBV?$basic_string@DU?$char_traits@D@std@@V?$allocator@D@2@@std@@G@std@@PEAX@0@@Z
	??$_Voidify_iter@PEAPEAU?$_Tree_node@U?$pair@$$CBV?$basic_string@DU?$char_traits@D@std@@V?$allocator@D@2@@std@@PEAVLogger@el@@@std@@PEAX@std@@@std@@YAPEAXPEAPEAU?$_Tree_node@U?$pair@$$CBV?$basic_string@DU?$char_traits@D@std@@V?$allocator@D@2@@std@@PEAVLogger@el@@@std@@PEAX@0@@Z
	??$_Voidify_iter@PEAPEAU?$_Tree_node@U?$pair@$$CBV?$basic_string@DU?$char_traits@D@std@@V?$allocator@D@2@@std@@V12@@std@@PEAX@std@@@std@@YAPEAXPEAPEAU?$_Tree_node@U?$pair@$$CBV?$basic_string@DU?$char_traits@D@std@@V?$allocator@D@2@@std@@V12@@std@@PEAX@0@@Z
	??$_Voidify_iter@PEAPEAU?$_Tree_node@U?$pair@$$CBV?$basic_string@DU?$char_traits@D@std@@V?$allocator@D@2@@std@@V?$shared_ptr@V?$basic_fstream@DU?$char_traits@D@std@@@std@@@2@@std@@PEAX@std@@@std@@YAPEAXPEAPEAU?$_Tree_node@U?$pair@$$CBV?$basic_string@DU?$char_traits@D@std@@V?$allocator@D@2@@std@@V?$shared_ptr@V?$basic_fstream@DU?$char_traits@D@std@@@std@@@2@@std@@PEAX@0@@Z
	??$_Voidify_iter@PEAPEAU?$_Tree_node@U?$pair@$$CBV?$basic_string@DU?$char_traits@D@std@@V?$allocator@D@2@@std@@V?$shared_ptr@VLogDispatchCallback@el@@@2@@std@@PEAX@std@@@std@@YAPEAXPEAPEAU?$_Tree_node@U?$pair@$$CBV?$basic_string@DU?$char_traits@D@std@@V?$allocator@D@2@@std@@V?$shared_ptr@VLogDispatchCallback@el@@@2@@std@@PEAX@0@@Z
	??$_Voidify_iter@PEAPEAU?$_Tree_node@U?$pair@$$CBV?$basic_string@DU?$char_traits@D@std@@V?$allocator@D@2@@std@@V?$shared_ptr@VLoggerRegistrationCallback@el@@@2@@std@@PEAX@std@@@std@@YAPEAXPEAPEAU?$_Tree_node@U?$pair@$$CBV?$basic_string@DU?$char_traits@D@std@@V?$allocator@D@2@@std@@V?$shared_ptr@VLoggerRegistrationCallback@el@@@2@@std@@PEAX@0@@Z
	??$_Voidify_iter@PEAPEAU?$_Tree_node@U?$pair@$$CBV?$basic_string@DU?$char_traits@D@std@@V?$allocator@D@2@@std@@V?$shared_ptr@VPerformanceTrackingCallback@el@@@2@@std@@PEAX@std@@@std@@YAPEAXPEAPEAU?$_Tree_node@U?$pair@$$CBV?$basic_string@DU?$char_traits@D@std@@V?$allocator@D@2@@std@@V?$shared_ptr@VPerformanceTrackingCallback@el@@@2@@std@@PEAX@0@@Z
	??$_Voidify_iter@PEAPEAU?$_Tree_node@U?$pair@$$CBW4Level@el@@I@std@@PEAX@std@@@std@@YAPEAXPEAPEAU?$_Tree_node@U?$pair@$$CBW4Level@el@@I@std@@PEAX@0@@Z
	??$_Voidify_iter@PEAPEAU?$_Tree_node@U?$pair@$$CBW4Level@el@@V?$basic_string@DU?$char_traits@D@std@@V?$allocator@D@2@@std@@@std@@PEAX@std@@@std@@YAPEAXPEAPEAU?$_Tree_node@U?$pair@$$CBW4Level@el@@V?$basic_string@DU?$char_traits@D@std@@V?$allocator@D@2@@std@@@std@@PEAX@0@@Z
	??$_Voidify_iter@PEAPEAU?$_Tree_node@U?$pair@$$CBW4Level@el@@V?$shared_ptr@V?$basic_fstream@DU?$char_traits@D@std@@@std@@@std@@@std@@PEAX@std@@@std@@YAPEAXPEAPEAU?$_Tree_node@U?$pair@$$CBW4Level@el@@V?$shared_ptr@V?$basic_fstream@DU?$char_traits@D@std@@@std@@@std@@@std@@PEAX@0@@Z
	??$_Voidify_iter@PEAPEAU?$_Tree_node@U?$pair@$$CBW4Level@el@@VLogFormat@base@2@@std@@PEAX@std@@@std@@YAPEAXPEAPEAU?$_Tree_node@U?$pair@$$CBW4Level@el@@VLogFormat@base@2@@std@@PEAX@0@@Z
	??$_Voidify_iter@PEAPEAU?$_Tree_node@U?$pair@$$CBW4Level@el@@VSubsecondPrecision@base@2@@std@@PEAX@std@@@std@@YAPEAXPEAPEAU?$_Tree_node@U?$pair@$$CBW4Level@el@@VSubsecondPrecision@base@2@@std@@PEAX@0@@Z
	??$_Voidify_iter@PEAPEAU?$_Tree_node@U?$pair@$$CBW4Level@el@@_K@std@@PEAX@std@@@std@@YAPEAXPEAPEAU?$_Tree_node@U?$pair@$$CBW4Level@el@@_K@std@@PEAX@0@@Z
	??$_Voidify_iter@PEAPEAU?$_Tree_node@U?$pair@$$CBW4Level@el@@_N@std@@PEAX@std@@@std@@YAPEAXPEAPEAU?$_Tree_node@U?$pair@$$CBW4Level@el@@_N@std@@PEAX@0@@Z
	??$_Voidify_iter@PEAPEAVConfiguration@el@@@std@@YAPEAXPEAPEAVConfiguration@el@@@Z
	??$_Voidify_iter@PEAPEAVHitCounter@base@el@@@std@@YAPEAXPEAPEAVHitCounter@base@el@@@Z
	??$_Voidify_iter@PEAU?$pair@$$CBV?$basic_string@DU?$char_traits@D@std@@V?$allocator@D@2@@std@@G@std@@@std@@YAPEAXPEAU?$pair@$$CBV?$basic_string@DU?$char_traits@D@std@@V?$allocator@D@2@@std@@G@0@@Z
	??$_Voidify_iter@PEAU?$pair@$$CBV?$basic_string@DU?$char_traits@D@std@@V?$allocator@D@2@@std@@PEAVLogger@el@@@std@@@std@@YAPEAXPEAU?$pair@$$CBV?$basic_string@DU?$char_traits@D@std@@V?$allocator@D@2@@std@@PEAVLogger@el@@@0@@Z
	??$_Voidify_iter@PEAU?$pair@$$CBV?$basic_string@DU?$char_traits@D@std@@V?$allocator@D@2@@std@@V12@@std@@@std@@YAPEAXPEAU?$pair@$$CBV?$basic_string@DU?$char_traits@D@std@@V?$allocator@D@2@@std@@V12@@0@@Z
	??$_Voidify_iter@PEAU?$pair@$$CBV?$basic_string@DU?$char_traits@D@std@@V?$allocator@D@2@@std@@V?$shared_ptr@V?$basic_fstream@DU?$char_traits@D@std@@@std@@@2@@std@@@std@@YAPEAXPEAU?$pair@$$CBV?$basic_string@DU?$char_traits@D@std@@V?$allocator@D@2@@std@@V?$shared_ptr@V?$basic_fstream@DU?$char_traits@D@std@@@std@@@2@@0@@Z
	??$_Voidify_iter@PEAU?$pair@$$CBV?$basic_string@DU?$char_traits@D@std@@V?$allocator@D@2@@std@@V?$shared_ptr@VLogDispatchCallback@el@@@2@@std@@@std@@YAPEAXPEAU?$pair@$$CBV?$basic_string@DU?$char_traits@D@std@@V?$allocator@D@2@@std@@V?$shared_ptr@VLogDispatchCallback@el@@@2@@0@@Z
	??$_Voidify_iter@PEAU?$pair@$$CBW4Level@el@@I@std@@@std@@YAPEAXPEAU?$pair@$$CBW4Level@el@@I@0@@Z
	??$_Voidify_iter@PEAU?$pair@$$CBW4Level@el@@V?$basic_string@DU?$char_traits@D@std@@V?$allocator@D@2@@std@@@std@@@std@@YAPEAXPEAU?$pair@$$CBW4Level@el@@V?$basic_string@DU?$char_traits@D@std@@V?$allocator@D@2@@std@@@0@@Z
	??$_Voidify_iter@PEAU?$pair@$$CBW4Level@el@@V?$shared_ptr@V?$basic_fstream@DU?$char_traits@D@std@@@std@@@std@@@std@@@std@@YAPEAXPEAU?$pair@$$CBW4Level@el@@V?$shared_ptr@V?$basic_fstream@DU?$char_traits@D@std@@@std@@@std@@@0@@Z
	??$_Voidify_iter@PEAU?$pair@$$CBW4Level@el@@VLogFormat@base@2@@std@@@std@@YAPEAXPEAU?$pair@$$CBW4Level@el@@VLogFormat@base@2@@0@@Z
	??$_Voidify_iter@PEAU?$pair@$$CBW4Level@el@@VSubsecondPrecision@base@2@@std@@@std@@YAPEAXPEAU?$pair@$$CBW4Level@el@@VSubsecondPrecision@base@2@@0@@Z
	??$_Voidify_iter@PEAU?$pair@$$CBW4Level@el@@_K@std@@@std@@YAPEAXPEAU?$pair@$$CBW4Level@el@@_K@0@@Z
	??$_Voidify_iter@PEAU?$pair@$$CBW4Level@el@@_N@std@@@std@@YAPEAXPEAU?$pair@$$CBW4Level@el@@_N@0@@Z
	??$_Voidify_iter@PEAU_Container_proxy@std@@@std@@YAPEAXPEAU_Container_proxy@0@@Z
	??$_Voidify_iter@PEAUnode@DataSet@@@std@@YAPEAXPEAUnode@DataSet@@@Z
	??$_Voidify_iter@PEAV?$SyncArray@N@@@std@@YAPEAXPEAV?$SyncArray@N@@@Z
	??$_Voidify_iter@PEAV?$basic_string@DU?$char_traits@D@std@@V?$allocator@D@2@@std@@@std@@YAPEAXPEAV?$basic_string@DU?$char_traits@D@std@@V?$allocator@D@2@@0@@Z
	??$_Voidify_iter@PEAV?$vector@NV?$allocator@N@std@@@std@@@std@@YAPEAXPEAV?$vector@NV?$allocator@N@std@@@0@@Z
	??$_Voidify_iter@PEAV?$vector@Unode@DataSet@@V?$allocator@Unode@DataSet@@@std@@@std@@@std@@YAPEAXPEAV?$vector@Unode@DataSet@@V?$allocator@Unode@DataSet@@@std@@@0@@Z
	??$_Voidify_iter@PEAV?$vector@V?$vector@Unode@DataSet@@V?$allocator@Unode@DataSet@@@std@@@std@@V?$allocator@V?$vector@Unode@DataSet@@V?$allocator@Unode@DataSet@@@std@@@std@@@2@@std@@@std@@YAPEAXPEAV?$vector@V?$vector@Unode@DataSet@@V?$allocator@Unode@DataSet@@@std@@@std@@V?$allocator@V?$vector@Unode@DataSet@@V?$allocator@Unode@DataSet@@@std@@@std@@@2@@0@@Z
	??$_Voidify_iter@PEAVCustomFormatSpecifier@el@@@std@@YAPEAXPEAVCustomFormatSpecifier@el@@@Z
	??$_Zero_range@PEAH@std@@YAPEAHQEAH0@Z
	??$_Zero_range@PEAN@std@@YAPEANQEAN0@Z
	??$_kernel_agent@U?$ParallelForAgent@U?$unary_transform_f@PEAHPEAHUno_stencil_tag@__transform@cuda_cub@thrust@@U?$identity@H@4@Ualways_true_predicate@234@@__transform@cuda_cub@thrust@@_J@__parallel_for@cuda_cub@thrust@@U?$unary_transform_f@PEAHPEAHUno_stencil_tag@__transform@cuda_cub@thrust@@U?$identity@H@4@Ualways_true_predicate@234@@__transform@34@_J@core@cuda_cub@thrust@@YAXU?$unary_transform_f@PEAHPEAHUno_stencil_tag@__transform@cuda_cub@thrust@@U?$identity@H@4@Ualways_true_predicate@234@@__transform@12@_J@Z
	??$_kernel_agent@U?$ParallelForAgent@U?$unary_transform_f@PEANPEANUno_stencil_tag@__transform@cuda_cub@thrust@@U?$identity@N@4@Ualways_true_predicate@234@@__transform@cuda_cub@thrust@@_J@__parallel_for@cuda_cub@thrust@@U?$unary_transform_f@PEANPEANUno_stencil_tag@__transform@cuda_cub@thrust@@U?$identity@N@4@Ualways_true_predicate@234@@__transform@34@_J@core@cuda_cub@thrust@@YAXU?$unary_transform_f@PEANPEANUno_stencil_tag@__transform@cuda_cub@thrust@@U?$identity@N@4@Ualways_true_predicate@234@@__transform@12@_J@Z
	??$addressof@$$CBU?$pair@$$CBV?$basic_string@DU?$char_traits@D@std@@V?$allocator@D@2@@std@@PEAVLogger@el@@@std@@@std@@YAPEBU?$pair@$$CBV?$basic_string@DU?$char_traits@D@std@@V?$allocator@D@2@@std@@PEAVLogger@el@@@0@AEBU10@@Z
	??$addressof@$$CBU?$pair@$$CBV?$basic_string@DU?$char_traits@D@std@@V?$allocator@D@2@@std@@V12@@std@@@std@@YAPEBU?$pair@$$CBV?$basic_string@DU?$char_traits@D@std@@V?$allocator@D@2@@std@@V12@@0@AEBU10@@Z
	??$addressof@$$CBU?$pair@$$CBW4Level@el@@_K@std@@@std@@YAPEBU?$pair@$$CBW4Level@el@@_K@0@AEBU10@@Z
	??$addressof@$$CBU?$pair@$$CBW4Level@el@@_N@std@@@std@@YAPEBU?$pair@$$CBW4Level@el@@_N@0@AEBU10@@Z
	??$addressof@$$CBV?$_String_val@U?$_Simple_types@D@std@@@std@@@std@@YAPEBV?$_String_val@U?$_Simple_types@D@std@@@0@AEBV10@@Z
	??$addressof@$$CBV?$_Tree@V?$_Tmap_traits@W4Level@el@@IU?$less@W4Level@el@@@std@@V?$allocator@U?$pair@$$CBW4Level@el@@I@std@@@4@$0A@@std@@@std@@@std@@YAPEBV?$_Tree@V?$_Tmap_traits@W4Level@el@@IU?$less@W4Level@el@@@std@@V?$allocator@U?$pair@$$CBW4Level@el@@I@std@@@4@$0A@@std@@@0@AEBV10@@Z
	??$addressof@$$CBV?$_Tree_val@U?$_Tree_simple_types@U?$pair@$$CBV?$basic_string@DU?$char_traits@D@std@@V?$allocator@D@2@@std@@G@std@@@std@@@std@@@std@@YAPEBV?$_Tree_val@U?$_Tree_simple_types@U?$pair@$$CBV?$basic_string@DU?$char_traits@D@std@@V?$allocator@D@2@@std@@G@std@@@std@@@0@AEBV10@@Z
	??$addressof@$$CBV?$_Tree_val@U?$_Tree_simple_types@U?$pair@$$CBV?$basic_string@DU?$char_traits@D@std@@V?$allocator@D@2@@std@@PEAVLogger@el@@@std@@@std@@@std@@@std@@YAPEBV?$_Tree_val@U?$_Tree_simple_types@U?$pair@$$CBV?$basic_string@DU?$char_traits@D@std@@V?$allocator@D@2@@std@@PEAVLogger@el@@@std@@@std@@@0@AEBV10@@Z
	??$addressof@$$CBV?$_Tree_val@U?$_Tree_simple_types@U?$pair@$$CBV?$basic_string@DU?$char_traits@D@std@@V?$allocator@D@2@@std@@V12@@std@@@std@@@std@@@std@@YAPEBV?$_Tree_val@U?$_Tree_simple_types@U?$pair@$$CBV?$basic_string@DU?$char_traits@D@std@@V?$allocator@D@2@@std@@V12@@std@@@std@@@0@AEBV10@@Z
	??$addressof@$$CBV?$_Tree_val@U?$_Tree_simple_types@U?$pair@$$CBV?$basic_string@DU?$char_traits@D@std@@V?$allocator@D@2@@std@@V?$shared_ptr@V?$basic_fstream@DU?$char_traits@D@std@@@std@@@2@@std@@@std@@@std@@@std@@YAPEBV?$_Tree_val@U?$_Tree_simple_types@U?$pair@$$CBV?$basic_string@DU?$char_traits@D@std@@V?$allocator@D@2@@std@@V?$shared_ptr@V?$basic_fstream@DU?$char_traits@D@std@@@std@@@2@@std@@@std@@@0@AEBV10@@Z
	??$addressof@$$CBV?$_Tree_val@U?$_Tree_simple_types@U?$pair@$$CBV?$basic_string@DU?$char_traits@D@std@@V?$allocator@D@2@@std@@V?$shared_ptr@VLogDispatchCallback@el@@@2@@std@@@std@@@std@@@std@@YAPEBV?$_Tree_val@U?$_Tree_simple_types@U?$pair@$$CBV?$basic_string@DU?$char_traits@D@std@@V?$allocator@D@2@@std@@V?$shared_ptr@VLogDispatchCallback@el@@@2@@std@@@std@@@0@AEBV10@@Z
	??$addressof@$$CBV?$_Tree_val@U?$_Tree_simple_types@U?$pair@$$CBW4Level@el@@I@std@@@std@@@std@@@std@@YAPEBV?$_Tree_val@U?$_Tree_simple_types@U?$pair@$$CBW4Level@el@@I@std@@@std@@@0@AEBV10@@Z
	??$addressof@$$CBV?$_Tree_val@U?$_Tree_simple_types@U?$pair@$$CBW4Level@el@@V?$basic_string@DU?$char_traits@D@std@@V?$allocator@D@2@@std@@@std@@@std@@@std@@@std@@YAPEBV?$_Tree_val@U?$_Tree_simple_types@U?$pair@$$CBW4Level@el@@V?$basic_string@DU?$char_traits@D@std@@V?$allocator@D@2@@std@@@std@@@std@@@0@AEBV10@@Z
	??$addressof@$$CBV?$_Tree_val@U?$_Tree_simple_types@U?$pair@$$CBW4Level@el@@V?$shared_ptr@V?$basic_fstream@DU?$char_traits@D@std@@@std@@@std@@@std@@@std@@@std@@@std@@YAPEBV?$_Tree_val@U?$_Tree_simple_types@U?$pair@$$CBW4Level@el@@V?$shared_ptr@V?$basic_fstream@DU?$char_traits@D@std@@@std@@@std@@@std@@@std@@@0@AEBV10@@Z
	??$addressof@$$CBV?$_Tree_val@U?$_Tree_simple_types@U?$pair@$$CBW4Level@el@@VLogFormat@base@2@@std@@@std@@@std@@@std@@YAPEBV?$_Tree_val@U?$_Tree_simple_types@U?$pair@$$CBW4Level@el@@VLogFormat@base@2@@std@@@std@@@0@AEBV10@@Z
	??$addressof@$$CBV?$_Tree_val@U?$_Tree_simple_types@U?$pair@$$CBW4Level@el@@VSubsecondPrecision@base@2@@std@@@std@@@std@@@std@@YAPEBV?$_Tree_val@U?$_Tree_simple_types@U?$pair@$$CBW4Level@el@@VSubsecondPrecision@base@2@@std@@@std@@@0@AEBV10@@Z
	??$addressof@$$CBV?$_Tree_val@U?$_Tree_simple_types@U?$pair@$$CBW4Level@el@@_K@std@@@std@@@std@@@std@@YAPEBV?$_Tree_val@U?$_Tree_simple_types@U?$pair@$$CBW4Level@el@@_K@std@@@std@@@0@AEBV10@@Z
	??$addressof@$$CBV?$_Tree_val@U?$_Tree_simple_types@U?$pair@$$CBW4Level@el@@_N@std@@@std@@@std@@@std@@YAPEBV?$_Tree_val@U?$_Tree_simple_types@U?$pair@$$CBW4Level@el@@_N@std@@@std@@@0@AEBV10@@Z
	??$addressof@$$CBV?$_Vector_val@U?$_Simple_types@H@std@@@std@@@std@@YAPEBV?$_Vector_val@U?$_Simple_types@H@std@@@0@AEBV10@@Z
	??$addressof@$$CBV?$_Vector_val@U?$_Simple_types@PEAVConfiguration@el@@@std@@@std@@@std@@YAPEBV?$_Vector_val@U?$_Simple_types@PEAVConfiguration@el@@@std@@@0@AEBV10@@Z
	??$addressof@$$CBV?$_Vector_val@U?$_Simple_types@PEAVHitCounter@base@el@@@std@@@std@@@std@@YAPEBV?$_Vector_val@U?$_Simple_types@PEAVHitCounter@base@el@@@std@@@0@AEBV10@@Z
	??$addressof@$$CBV?$_Vector_val@U?$_Simple_types@V?$basic_string@DU?$char_traits@D@std@@V?$allocator@D@2@@std@@@std@@@std@@@std@@YAPEBV?$_Vector_val@U?$_Simple_types@V?$basic_string@DU?$char_traits@D@std@@V?$allocator@D@2@@std@@@std@@@0@AEBV10@@Z
	??$addressof@$$CBV?$_Vector_val@U?$_Simple_types@V?$vector@Unode@DataSet@@V?$allocator@Unode@DataSet@@@std@@@std@@@std@@@std@@@std@@YAPEBV?$_Vector_val@U?$_Simple_types@V?$vector@Unode@DataSet@@V?$allocator@Unode@DataSet@@@std@@@std@@@std@@@0@AEBV10@@Z
	??$addressof@$$CBV?$_Vector_val@U?$_Simple_types@VCustomFormatSpecifier@el@@@std@@@std@@@std@@YAPEBV?$_Vector_val@U?$_Simple_types@VCustomFormatSpecifier@el@@@std@@@0@AEBV10@@Z
	??$addressof@$$CBV?$basic_filebuf@DU?$char_traits@D@std@@@std@@@std@@YAPEBV?$basic_filebuf@DU?$char_traits@D@std@@@0@AEBV10@@Z
	??$addressof@$$CBV?$basic_string@DU?$char_traits@D@std@@V?$allocator@D@2@@std@@@std@@YAPEBV?$basic_string@DU?$char_traits@D@std@@V?$allocator@D@2@@0@AEBV10@@Z
	??$addressof@$$CBV?$codecvt@DDU_Mbstatet@@@std@@@std@@YAPEBV?$codecvt@DDU_Mbstatet@@@0@AEBV10@@Z
	??$addressof@$$CBV?$vector@HV?$allocator@H@std@@@std@@@std@@YAPEBV?$vector@HV?$allocator@H@std@@@0@AEBV10@@Z
	??$addressof@$$CBV?$vector@MV?$allocator@M@std@@@std@@@std@@YAPEBV?$vector@MV?$allocator@M@std@@@0@AEBV10@@Z
	??$addressof@D@std@@YAPEADAEAD@Z
	??$addressof@PEAD@std@@YAPEAPEADAEAPEAD@Z
	??$addressof@PEAU?$_Tree_node@U?$pair@$$CBV?$basic_string@DU?$char_traits@D@std@@V?$allocator@D@2@@std@@G@std@@PEAX@std@@@std@@YAPEAPEAU?$_Tree_node@U?$pair@$$CBV?$basic_string@DU?$char_traits@D@std@@V?$allocator@D@2@@std@@G@std@@PEAX@0@AEAPEAU10@@Z
	??$addressof@PEAU?$_Tree_node@U?$pair@$$CBV?$basic_string@DU?$char_traits@D@std@@V?$allocator@D@2@@std@@PEAVLogger@el@@@std@@PEAX@std@@@std@@YAPEAPEAU?$_Tree_node@U?$pair@$$CBV?$basic_string@DU?$char_traits@D@std@@V?$allocator@D@2@@std@@PEAVLogger@el@@@std@@PEAX@0@AEAPEAU10@@Z
	??$addressof@PEAU?$_Tree_node@U?$pair@$$CBV?$basic_string@DU?$char_traits@D@std@@V?$allocator@D@2@@std@@V12@@std@@PEAX@std@@@std@@YAPEAPEAU?$_Tree_node@U?$pair@$$CBV?$basic_string@DU?$char_traits@D@std@@V?$allocator@D@2@@std@@V12@@std@@PEAX@0@AEAPEAU10@@Z
	??$addressof@PEAU?$_Tree_node@U?$pair@$$CBV?$basic_string@DU?$char_traits@D@std@@V?$allocator@D@2@@std@@V?$shared_ptr@V?$basic_fstream@DU?$char_traits@D@std@@@std@@@2@@std@@PEAX@std@@@std@@YAPEAPEAU?$_Tree_node@U?$pair@$$CBV?$basic_string@DU?$char_traits@D@std@@V?$allocator@D@2@@std@@V?$shared_ptr@V?$basic_fstream@DU?$char_traits@D@std@@@std@@@2@@std@@PEAX@0@AEAPEAU10@@Z
	??$addressof@PEAU?$_Tree_node@U?$pair@$$CBV?$basic_string@DU?$char_traits@D@std@@V?$allocator@D@2@@std@@V?$shared_ptr@VLogDispatchCallback@el@@@2@@std@@PEAX@std@@@std@@YAPEAPEAU?$_Tree_node@U?$pair@$$CBV?$basic_string@DU?$char_traits@D@std@@V?$allocator@D@2@@std@@V?$shared_ptr@VLogDispatchCallback@el@@@2@@std@@PEAX@0@AEAPEAU10@@Z
	??$addressof@PEAU?$_Tree_node@U?$pair@$$CBV?$basic_string@DU?$char_traits@D@std@@V?$allocator@D@2@@std@@V?$shared_ptr@VLoggerRegistrationCallback@el@@@2@@std@@PEAX@std@@@std@@YAPEAPEAU?$_Tree_node@U?$pair@$$CBV?$basic_string@DU?$char_traits@D@std@@V?$allocator@D@2@@std@@V?$shared_ptr@VLoggerRegistrationCallback@el@@@2@@std@@PEAX@0@AEAPEAU10@@Z
	??$addressof@PEAU?$_Tree_node@U?$pair@$$CBV?$basic_string@DU?$char_traits@D@std@@V?$allocator@D@2@@std@@V?$shared_ptr@VPerformanceTrackingCallback@el@@@2@@std@@PEAX@std@@@std@@YAPEAPEAU?$_Tree_node@U?$pair@$$CBV?$basic_string@DU?$char_traits@D@std@@V?$allocator@D@2@@std@@V?$shared_ptr@VPerformanceTrackingCallback@el@@@2@@std@@PEAX@0@AEAPEAU10@@Z
	??$addressof@PEAU?$_Tree_node@U?$pair@$$CBW4Level@el@@I@std@@PEAX@std@@@std@@YAPEAPEAU?$_Tree_node@U?$pair@$$CBW4Level@el@@I@std@@PEAX@0@AEAPEAU10@@Z
	??$addressof@PEAU?$_Tree_node@U?$pair@$$CBW4Level@el@@V?$basic_string@DU?$char_traits@D@std@@V?$allocator@D@2@@std@@@std@@PEAX@std@@@std@@YAPEAPEAU?$_Tree_node@U?$pair@$$CBW4Level@el@@V?$basic_string@DU?$char_traits@D@std@@V?$allocator@D@2@@std@@@std@@PEAX@0@AEAPEAU10@@Z
	??$addressof@PEAU?$_Tree_node@U?$pair@$$CBW4Level@el@@V?$shared_ptr@V?$basic_fstream@DU?$char_traits@D@std@@@std@@@std@@@std@@PEAX@std@@@std@@YAPEAPEAU?$_Tree_node@U?$pair@$$CBW4Level@el@@V?$shared_ptr@V?$basic_fstream@DU?$char_traits@D@std@@@std@@@std@@@std@@PEAX@0@AEAPEAU10@@Z
	??$addressof@PEAU?$_Tree_node@U?$pair@$$CBW4Level@el@@VLogFormat@base@2@@std@@PEAX@std@@@std@@YAPEAPEAU?$_Tree_node@U?$pair@$$CBW4Level@el@@VLogFormat@base@2@@std@@PEAX@0@AEAPEAU10@@Z
	??$addressof@PEAU?$_Tree_node@U?$pair@$$CBW4Level@el@@VSubsecondPrecision@base@2@@std@@PEAX@std@@@std@@YAPEAPEAU?$_Tree_node@U?$pair@$$CBW4Level@el@@VSubsecondPrecision@base@2@@std@@PEAX@0@AEAPEAU10@@Z
	??$addressof@PEAU?$_Tree_node@U?$pair@$$CBW4Level@el@@_K@std@@PEAX@std@@@std@@YAPEAPEAU?$_Tree_node@U?$pair@$$CBW4Level@el@@_K@std@@PEAX@0@AEAPEAU10@@Z
	??$addressof@PEAU?$_Tree_node@U?$pair@$$CBW4Level@el@@_N@std@@PEAX@std@@@std@@YAPEAPEAU?$_Tree_node@U?$pair@$$CBW4Level@el@@_N@std@@PEAX@0@AEAPEAU10@@Z
	??$addressof@Q6AXPEBD_K@Z@std@@YAPEBQ6AXPEBD_K@ZAEBQ6AX01@Z@Z
	??$addressof@U?$pair@$$CBV?$basic_string@DU?$char_traits@D@std@@V?$allocator@D@2@@std@@G@std@@@std@@YAPEAU?$pair@$$CBV?$basic_string@DU?$char_traits@D@std@@V?$allocator@D@2@@std@@G@0@AEAU10@@Z
	??$addressof@U?$pair@$$CBV?$basic_string@DU?$char_traits@D@std@@V?$allocator@D@2@@std@@PEAVLogger@el@@@std@@@std@@YAPEAU?$pair@$$CBV?$basic_string@DU?$char_traits@D@std@@V?$allocator@D@2@@std@@PEAVLogger@el@@@0@AEAU10@@Z
	??$addressof@U?$pair@$$CBV?$basic_string@DU?$char_traits@D@std@@V?$allocator@D@2@@std@@V12@@std@@@std@@YAPEAU?$pair@$$CBV?$basic_string@DU?$char_traits@D@std@@V?$allocator@D@2@@std@@V12@@0@AEAU10@@Z
	??$addressof@U?$pair@$$CBV?$basic_string@DU?$char_traits@D@std@@V?$allocator@D@2@@std@@V?$shared_ptr@V?$basic_fstream@DU?$char_traits@D@std@@@std@@@2@@std@@@std@@YAPEAU?$pair@$$CBV?$basic_string@DU?$char_traits@D@std@@V?$allocator@D@2@@std@@V?$shared_ptr@V?$basic_fstream@DU?$char_traits@D@std@@@std@@@2@@0@AEAU10@@Z
	??$addressof@U?$pair@$$CBV?$basic_string@DU?$char_traits@D@std@@V?$allocator@D@2@@std@@V?$shared_ptr@VLogDispatchCallback@el@@@2@@std@@@std@@YAPEAU?$pair@$$CBV?$basic_string@DU?$char_traits@D@std@@V?$allocator@D@2@@std@@V?$shared_ptr@VLogDispatchCallback@el@@@2@@0@AEAU10@@Z
	??$addressof@U?$pair@$$CBV?$basic_string@DU?$char_traits@D@std@@V?$allocator@D@2@@std@@V?$shared_ptr@VLoggerRegistrationCallback@el@@@2@@std@@@std@@YAPEAU?$pair@$$CBV?$basic_string@DU?$char_traits@D@std@@V?$allocator@D@2@@std@@V?$shared_ptr@VLoggerRegistrationCallback@el@@@2@@0@AEAU10@@Z
	??$addressof@U?$pair@$$CBV?$basic_string@DU?$char_traits@D@std@@V?$allocator@D@2@@std@@V?$shared_ptr@VPerformanceTrackingCallback@el@@@2@@std@@@std@@YAPEAU?$pair@$$CBV?$basic_string@DU?$char_traits@D@std@@V?$allocator@D@2@@std@@V?$shared_ptr@VPerformanceTrackingCallback@el@@@2@@0@AEAU10@@Z
	??$addressof@U?$pair@$$CBW4Level@el@@I@std@@@std@@YAPEAU?$pair@$$CBW4Level@el@@I@0@AEAU10@@Z
	??$addressof@U?$pair@$$CBW4Level@el@@V?$basic_string@DU?$char_traits@D@std@@V?$allocator@D@2@@std@@@std@@@std@@YAPEAU?$pair@$$CBW4Level@el@@V?$basic_string@DU?$char_traits@D@std@@V?$allocator@D@2@@std@@@0@AEAU10@@Z
	??$addressof@U?$pair@$$CBW4Level@el@@V?$shared_ptr@V?$basic_fstream@DU?$char_traits@D@std@@@std@@@std@@@std@@@std@@YAPEAU?$pair@$$CBW4Level@el@@V?$shared_ptr@V?$basic_fstream@DU?$char_traits@D@std@@@std@@@std@@@0@AEAU10@@Z
	??$addressof@U?$pair@$$CBW4Level@el@@VLogFormat@base@2@@std@@@std@@YAPEAU?$pair@$$CBW4Level@el@@VLogFormat@base@2@@0@AEAU10@@Z
	??$addressof@U?$pair@$$CBW4Level@el@@VSubsecondPrecision@base@2@@std@@@std@@YAPEAU?$pair@$$CBW4Level@el@@VSubsecondPrecision@base@2@@0@AEAU10@@Z
	??$addressof@U?$pair@$$CBW4Level@el@@_K@std@@@std@@YAPEAU?$pair@$$CBW4Level@el@@_K@0@AEAU10@@Z
	??$addressof@U?$pair@$$CBW4Level@el@@_N@std@@@std@@YAPEAU?$pair@$$CBW4Level@el@@_N@0@AEAU10@@Z
	??$addressof@U_Container_base12@std@@@std@@YAPEAU_Container_base12@0@AEAU10@@Z
	??$addressof@U_Container_proxy@std@@@std@@YAPEAU_Container_proxy@0@AEAU10@@Z
	??$addressof@V?$_String_val@U?$_Simple_types@D@std@@@std@@@std@@YAPEAV?$_String_val@U?$_Simple_types@D@std@@@0@AEAV10@@Z
	??$addressof@V?$_Tree_val@U?$_Tree_simple_types@U?$pair@$$CBV?$basic_string@DU?$char_traits@D@std@@V?$allocator@D@2@@std@@G@std@@@std@@@std@@@std@@YAPEAV?$_Tree_val@U?$_Tree_simple_types@U?$pair@$$CBV?$basic_string@DU?$char_traits@D@std@@V?$allocator@D@2@@std@@G@std@@@std@@@0@AEAV10@@Z
	??$addressof@V?$_Tree_val@U?$_Tree_simple_types@U?$pair@$$CBV?$basic_string@DU?$char_traits@D@std@@V?$allocator@D@2@@std@@PEAVLogger@el@@@std@@@std@@@std@@@std@@YAPEAV?$_Tree_val@U?$_Tree_simple_types@U?$pair@$$CBV?$basic_string@DU?$char_traits@D@std@@V?$allocator@D@2@@std@@PEAVLogger@el@@@std@@@std@@@0@AEAV10@@Z
	??$addressof@V?$_Tree_val@U?$_Tree_simple_types@U?$pair@$$CBV?$basic_string@DU?$char_traits@D@std@@V?$allocator@D@2@@std@@V12@@std@@@std@@@std@@@std@@YAPEAV?$_Tree_val@U?$_Tree_simple_types@U?$pair@$$CBV?$basic_string@DU?$char_traits@D@std@@V?$allocator@D@2@@std@@V12@@std@@@std@@@0@AEAV10@@Z
	??$addressof@V?$_Tree_val@U?$_Tree_simple_types@U?$pair@$$CBV?$basic_string@DU?$char_traits@D@std@@V?$allocator@D@2@@std@@V?$shared_ptr@V?$basic_fstream@DU?$char_traits@D@std@@@std@@@2@@std@@@std@@@std@@@std@@YAPEAV?$_Tree_val@U?$_Tree_simple_types@U?$pair@$$CBV?$basic_string@DU?$char_traits@D@std@@V?$allocator@D@2@@std@@V?$shared_ptr@V?$basic_fstream@DU?$char_traits@D@std@@@std@@@2@@std@@@std@@@0@AEAV10@@Z
	??$addressof@V?$_Tree_val@U?$_Tree_simple_types@U?$pair@$$CBV?$basic_string@DU?$char_traits@D@std@@V?$allocator@D@2@@std@@V?$shared_ptr@VLogDispatchCallback@el@@@2@@std@@@std@@@std@@@std@@YAPEAV?$_Tree_val@U?$_Tree_simple_types@U?$pair@$$CBV?$basic_string@DU?$char_traits@D@std@@V?$allocator@D@2@@std@@V?$shared_ptr@VLogDispatchCallback@el@@@2@@std@@@std@@@0@AEAV10@@Z
	??$addressof@V?$_Tree_val@U?$_Tree_simple_types@U?$pair@$$CBV?$basic_string@DU?$char_traits@D@std@@V?$allocator@D@2@@std@@V?$shared_ptr@VLoggerRegistrationCallback@el@@@2@@std@@@std@@@std@@@std@@YAPEAV?$_Tree_val@U?$_Tree_simple_types@U?$pair@$$CBV?$basic_string@DU?$char_traits@D@std@@V?$allocator@D@2@@std@@V?$shared_ptr@VLoggerRegistrationCallback@el@@@2@@std@@@std@@@0@AEAV10@@Z
	??$addressof@V?$_Tree_val@U?$_Tree_simple_types@U?$pair@$$CBV?$basic_string@DU?$char_traits@D@std@@V?$allocator@D@2@@std@@V?$shared_ptr@VPerformanceTrackingCallback@el@@@2@@std@@@std@@@std@@@std@@YAPEAV?$_Tree_val@U?$_Tree_simple_types@U?$pair@$$CBV?$basic_string@DU?$char_traits@D@std@@V?$allocator@D@2@@std@@V?$shared_ptr@VPerformanceTrackingCallback@el@@@2@@std@@@std@@@0@AEAV10@@Z
	??$addressof@V?$_Tree_val@U?$_Tree_simple_types@U?$pair@$$CBW4Level@el@@I@std@@@std@@@std@@@std@@YAPEAV?$_Tree_val@U?$_Tree_simple_types@U?$pair@$$CBW4Level@el@@I@std@@@std@@@0@AEAV10@@Z
	??$addressof@V?$_Tree_val@U?$_Tree_simple_types@U?$pair@$$CBW4Level@el@@V?$basic_string@DU?$char_traits@D@std@@V?$allocator@D@2@@std@@@std@@@std@@@std@@@std@@YAPEAV?$_Tree_val@U?$_Tree_simple_types@U?$pair@$$CBW4Level@el@@V?$basic_string@DU?$char_traits@D@std@@V?$allocator@D@2@@std@@@std@@@std@@@0@AEAV10@@Z
	??$addressof@V?$_Tree_val@U?$_Tree_simple_types@U?$pair@$$CBW4Level@el@@V?$shared_ptr@V?$basic_fstream@DU?$char_traits@D@std@@@std@@@std@@@std@@@std@@@std@@@std@@YAPEAV?$_Tree_val@U?$_Tree_simple_types@U?$pair@$$CBW4Level@el@@V?$shared_ptr@V?$basic_fstream@DU?$char_traits@D@std@@@std@@@std@@@std@@@std@@@0@AEAV10@@Z
	??$addressof@V?$_Tree_val@U?$_Tree_simple_types@U?$pair@$$CBW4Level@el@@VLogFormat@base@2@@std@@@std@@@std@@@std@@YAPEAV?$_Tree_val@U?$_Tree_simple_types@U?$pair@$$CBW4Level@el@@VLogFormat@base@2@@std@@@std@@@0@AEAV10@@Z
	??$addressof@V?$_Tree_val@U?$_Tree_simple_types@U?$pair@$$CBW4Level@el@@VSubsecondPrecision@base@2@@std@@@std@@@std@@@std@@YAPEAV?$_Tree_val@U?$_Tree_simple_types@U?$pair@$$CBW4Level@el@@VSubsecondPrecision@base@2@@std@@@std@@@0@AEAV10@@Z
	??$addressof@V?$_Tree_val@U?$_Tree_simple_types@U?$pair@$$CBW4Level@el@@_K@std@@@std@@@std@@@std@@YAPEAV?$_Tree_val@U?$_Tree_simple_types@U?$pair@$$CBW4Level@el@@_K@std@@@std@@@0@AEAV10@@Z
	??$addressof@V?$_Tree_val@U?$_Tree_simple_types@U?$pair@$$CBW4Level@el@@_N@std@@@std@@@std@@@std@@YAPEAV?$_Tree_val@U?$_Tree_simple_types@U?$pair@$$CBW4Level@el@@_N@std@@@std@@@0@AEAV10@@Z
	??$addressof@V?$_Vector_val@U?$_Simple_types@H@std@@@std@@@std@@YAPEAV?$_Vector_val@U?$_Simple_types@H@std@@@0@AEAV10@@Z
	??$addressof@V?$_Vector_val@U?$_Simple_types@I@std@@@std@@@std@@YAPEAV?$_Vector_val@U?$_Simple_types@I@std@@@0@AEAV10@@Z
	??$addressof@V?$_Vector_val@U?$_Simple_types@M@std@@@std@@@std@@YAPEAV?$_Vector_val@U?$_Simple_types@M@std@@@0@AEAV10@@Z
	??$addressof@V?$_Vector_val@U?$_Simple_types@N@std@@@std@@@std@@YAPEAV?$_Vector_val@U?$_Simple_types@N@std@@@0@AEAV10@@Z
	??$addressof@V?$_Vector_val@U?$_Simple_types@PEAVConfiguration@el@@@std@@@std@@@std@@YAPEAV?$_Vector_val@U?$_Simple_types@PEAVConfiguration@el@@@std@@@0@AEAV10@@Z
	??$addressof@V?$_Vector_val@U?$_Simple_types@PEAVHitCounter@base@el@@@std@@@std@@@std@@YAPEAV?$_Vector_val@U?$_Simple_types@PEAVHitCounter@base@el@@@std@@@0@AEAV10@@Z
	??$addressof@V?$_Vector_val@U?$_Simple_types@V?$vector@Unode@DataSet@@V?$allocator@Unode@DataSet@@@std@@@std@@@std@@@std@@@std@@YAPEAV?$_Vector_val@U?$_Simple_types@V?$vector@Unode@DataSet@@V?$allocator@Unode@DataSet@@@std@@@std@@@std@@@0@AEAV10@@Z
	??$addressof@V?$_Vector_val@U?$_Simple_types@VCustomFormatSpecifier@el@@@std@@@std@@@std@@YAPEAV?$_Vector_val@U?$_Simple_types@VCustomFormatSpecifier@el@@@std@@@0@AEAV10@@Z
	??$addressof@V?$basic_filebuf@DU?$char_traits@D@std@@@std@@@std@@YAPEAV?$basic_filebuf@DU?$char_traits@D@std@@@0@AEAV10@@Z
	??$addressof@V?$basic_string@DU?$char_traits@D@std@@V?$allocator@D@2@@std@@@std@@YAPEAV?$basic_string@DU?$char_traits@D@std@@V?$allocator@D@2@@0@AEAV10@@Z
	??$addressof@V?$basic_stringbuf@DU?$char_traits@D@std@@V?$allocator@D@2@@std@@@std@@YAPEAV?$basic_stringbuf@DU?$char_traits@D@std@@V?$allocator@D@2@@0@AEAV10@@Z
	??$addressof@V?$function@$$A6A?AV?$basic_string@DU?$char_traits@D@std@@V?$allocator@D@2@@std@@PEBVLogMessage@el@@@Z@std@@@std@@YAPEAV?$function@$$A6A?AV?$basic_string@DU?$char_traits@D@std@@V?$allocator@D@2@@std@@PEBVLogMessage@el@@@Z@0@AEAV10@@Z
	??$addressof@V?$vector@HV?$allocator@H@std@@@std@@@std@@YAPEAV?$vector@HV?$allocator@H@std@@@0@AEAV10@@Z
	??$addressof@V?$vector@NV?$allocator@N@std@@@std@@@std@@YAPEAV?$vector@NV?$allocator@N@std@@@0@AEAV10@@Z
	??$addressof@V?$vector@Unode@DataSet@@V?$allocator@Unode@DataSet@@@std@@@std@@@std@@YAPEAV?$vector@Unode@DataSet@@V?$allocator@Unode@DataSet@@@std@@@0@AEAV10@@Z
	??$advance@PEAH_J@std@@YAXAEAPEAH_J@Z
	??$advance@PEAM_J@std@@YAXAEAPEAM_J@Z
	??$advance@V?$normal_iterator@V?$pointer@EUpar_t@cuda_cub@thrust@@Uuse_default@3@U43@@thrust@@@detail@thrust@@@iterator_core_access@thrust@@CAXAEAV?$normal_iterator@V?$pointer@EUpar_t@cuda_cub@thrust@@Uuse_default@3@U43@@thrust@@@detail@1@_J@Z
	??$advance@V?$pointer@EUpar_t@cuda_cub@thrust@@Uuse_default@3@U43@@thrust@@@iterator_core_access@thrust@@CAXAEAV?$pointer@EUpar_t@cuda_cub@thrust@@Uuse_default@3@U43@@1@_J@Z
	??$aligned_reinterpret_cast@PEAHPEAE@detail@thrust@@YAPEAHPEAE@Z
	??$aligned_reinterpret_cast@PEANPEAE@detail@thrust@@YAPEANPEAE@Z
	??$assign@PEAH$0A@@?$vector@HV?$allocator@H@std@@@std@@QEAAXPEAH0@Z
	??$assign@PEAM$0A@@?$vector@MV?$allocator@M@std@@@std@@QEAAXPEAM0@Z
	??$construct@H$$V@?$_Default_allocator_traits@V?$allocator@H@std@@@std@@SAXAEAV?$allocator@H@1@QEAH@Z
	??$construct@HAEAH@?$_Default_allocator_traits@V?$allocator@H@std@@@std@@SAXAEAV?$allocator@H@1@QEAHAEAH@Z
	??$construct@HAEBH@?$_Default_allocator_traits@V?$allocator@H@std@@@std@@SAXAEAV?$allocator@H@1@QEAHAEBH@Z
	??$construct@HH@?$_Default_allocator_traits@V?$allocator@H@std@@@std@@SAXAEAV?$allocator@H@1@QEAH$$QEAH@Z
	??$construct@IAEBI@?$_Default_allocator_traits@V?$allocator@I@std@@@std@@SAXAEAV?$allocator@I@1@QEAIAEBI@Z
	??$construct@MAEAM@?$_Default_allocator_traits@V?$allocator@M@std@@@std@@SAXAEAV?$allocator@M@1@QEAMAEAM@Z
	??$construct@MAEAN@?$_Default_allocator_traits@V?$allocator@M@std@@@std@@SAXAEAV?$allocator@M@1@QEAMAEAN@Z
	??$construct@MAEBM@?$_Default_allocator_traits@V?$allocator@M@std@@@std@@SAXAEAV?$allocator@M@1@QEAMAEBM@Z
	??$construct@MM@?$_Default_allocator_traits@V?$allocator@M@std@@@std@@SAXAEAV?$allocator@M@1@QEAM$$QEAM@Z
	??$construct@N$$V@?$_Default_allocator_traits@V?$allocator@N@std@@@std@@SAXAEAV?$allocator@N@1@QEAN@Z
	??$construct@NAEAN@?$_Default_allocator_traits@V?$allocator@N@std@@@std@@SAXAEAV?$allocator@N@1@QEANAEAN@Z
	??$construct@NAEBN@?$_Default_allocator_traits@V?$allocator@N@std@@@std@@SAXAEAV?$allocator@N@1@QEANAEBN@Z
	??$construct@NN@?$_Default_allocator_traits@V?$allocator@N@std@@@std@@SAXAEAV?$allocator@N@1@QEAN$$QEAN@Z
	??$construct@PEAVConfiguration@el@@AEBQEAV12@@?$_Default_allocator_traits@V?$allocator@PEAVConfiguration@el@@@std@@@std@@SAXAEAV?$allocator@PEAVConfiguration@el@@@1@QEAPEAVConfiguration@el@@AEBQEAV34@@Z
	??$construct@PEAVConfiguration@el@@PEAV12@@?$_Default_allocator_traits@V?$allocator@PEAVConfiguration@el@@@std@@@std@@SAXAEAV?$allocator@PEAVConfiguration@el@@@1@QEAPEAVConfiguration@el@@$$QEAPEAV34@@Z
	??$construct@PEAVHitCounter@base@el@@AEBQEAV123@@?$_Default_allocator_traits@V?$allocator@PEAVHitCounter@base@el@@@std@@@std@@SAXAEAV?$allocator@PEAVHitCounter@base@el@@@1@QEAPEAVHitCounter@base@el@@AEBQEAV345@@Z
	??$construct@PEAVHitCounter@base@el@@PEAV123@@?$_Default_allocator_traits@V?$allocator@PEAVHitCounter@base@el@@@std@@@std@@SAXAEAV?$allocator@PEAVHitCounter@base@el@@@1@QEAPEAVHitCounter@base@el@@$$QEAPEAV345@@Z
	??$construct@U?$pair@$$CBV?$basic_string@DU?$char_traits@D@std@@V?$allocator@D@2@@std@@G@std@@U?$pair@V?$basic_string@DU?$char_traits@D@std@@V?$allocator@D@2@@std@@G@2@@?$_Default_allocator_traits@V?$allocator@U?$_Tree_node@U?$pair@$$CBV?$basic_string@DU?$char_traits@D@std@@V?$allocator@D@2@@std@@G@std@@PEAX@std@@@std@@@std@@SAXAEAV?$allocator@U?$_Tree_node@U?$pair@$$CBV?$basic_string@DU?$char_traits@D@std@@V?$allocator@D@2@@std@@G@std@@PEAX@std@@@1@QEAU?$pair@$$CBV?$basic_string@DU?$char_traits@D@std@@V?$allocator@D@2@@std@@G@1@$$QEAU?$pair@V?$basic_string@DU?$char_traits@D@std@@V?$allocator@D@2@@std@@G@1@@Z
	??$construct@U?$pair@$$CBV?$basic_string@DU?$char_traits@D@std@@V?$allocator@D@2@@std@@PEAVLogger@el@@@std@@U?$pair@V?$basic_string@DU?$char_traits@D@std@@V?$allocator@D@2@@std@@PEAVLogger@el@@@2@@?$_Default_allocator_traits@V?$allocator@U?$_Tree_node@U?$pair@$$CBV?$basic_string@DU?$char_traits@D@std@@V?$allocator@D@2@@std@@PEAVLogger@el@@@std@@PEAX@std@@@std@@@std@@SAXAEAV?$allocator@U?$_Tree_node@U?$pair@$$CBV?$basic_string@DU?$char_traits@D@std@@V?$allocator@D@2@@std@@PEAVLogger@el@@@std@@PEAX@std@@@1@QEAU?$pair@$$CBV?$basic_string@DU?$char_traits@D@std@@V?$allocator@D@2@@std@@PEAVLogger@el@@@1@$$QEAU?$pair@V?$basic_string@DU?$char_traits@D@std@@V?$allocator@D@2@@std@@PEAVLogger@el@@@1@@Z
	??$construct@U?$pair@$$CBV?$basic_string@DU?$char_traits@D@std@@V?$allocator@D@2@@std@@V12@@std@@U?$pair@V?$basic_string@DU?$char_traits@D@std@@V?$allocator@D@2@@std@@V12@@2@@?$_Default_allocator_traits@V?$allocator@U?$_Tree_node@U?$pair@$$CBV?$basic_string@DU?$char_traits@D@std@@V?$allocator@D@2@@std@@V12@@std@@PEAX@std@@@std@@@std@@SAXAEAV?$allocator@U?$_Tree_node@U?$pair@$$CBV?$basic_string@DU?$char_traits@D@std@@V?$allocator@D@2@@std@@V12@@std@@PEAX@std@@@1@QEAU?$pair@$$CBV?$basic_string@DU?$char_traits@D@std@@V?$allocator@D@2@@std@@V12@@1@$$QEAU?$pair@V?$basic_string@DU?$char_traits@D@std@@V?$allocator@D@2@@std@@V12@@1@@Z
	??$construct@U?$pair@$$CBV?$basic_string@DU?$char_traits@D@std@@V?$allocator@D@2@@std@@V?$shared_ptr@V?$basic_fstream@DU?$char_traits@D@std@@@std@@@2@@std@@U?$pair@V?$basic_string@DU?$char_traits@D@std@@V?$allocator@D@2@@std@@V?$shared_ptr@V?$basic_fstream@DU?$char_traits@D@std@@@std@@@2@@2@@?$_Default_allocator_traits@V?$allocator@U?$_Tree_node@U?$pair@$$CBV?$basic_string@DU?$char_traits@D@std@@V?$allocator@D@2@@std@@V?$shared_ptr@V?$basic_fstream@DU?$char_traits@D@std@@@std@@@2@@std@@PEAX@std@@@std@@@std@@SAXAEAV?$allocator@U?$_Tree_node@U?$pair@$$CBV?$basic_string@DU?$char_traits@D@std@@V?$allocator@D@2@@std@@V?$shared_ptr@V?$basic_fstream@DU?$char_traits@D@std@@@std@@@2@@std@@PEAX@std@@@1@QEAU?$pair@$$CBV?$basic_string@DU?$char_traits@D@std@@V?$allocator@D@2@@std@@V?$shared_ptr@V?$basic_fstream@DU?$char_traits@D@std@@@std@@@2@@1@$$QEAU?$pair@V?$basic_string@DU?$char_traits@D@std@@V?$allocator@D@2@@std@@V?$shared_ptr@V?$basic_fstream@DU?$char_traits@D@std@@@std@@@2@@1@@Z
	??$construct@U?$pair@$$CBV?$basic_string@DU?$char_traits@D@std@@V?$allocator@D@2@@std@@V?$shared_ptr@VLogDispatchCallback@el@@@2@@std@@U?$pair@V?$basic_string@DU?$char_traits@D@std@@V?$allocator@D@2@@std@@V?$shared_ptr@VLogDispatchCallback@el@@@2@@2@@?$_Default_allocator_traits@V?$allocator@U?$_Tree_node@U?$pair@$$CBV?$basic_string@DU?$char_traits@D@std@@V?$allocator@D@2@@std@@V?$shared_ptr@VLogDispatchCallback@el@@@2@@std@@PEAX@std@@@std@@@std@@SAXAEAV?$allocator@U?$_Tree_node@U?$pair@$$CBV?$basic_string@DU?$char_traits@D@std@@V?$allocator@D@2@@std@@V?$shared_ptr@VLogDispatchCallback@el@@@2@@std@@PEAX@std@@@1@QEAU?$pair@$$CBV?$basic_string@DU?$char_traits@D@std@@V?$allocator@D@2@@std@@V?$shared_ptr@VLogDispatchCallback@el@@@2@@1@$$QEAU?$pair@V?$basic_string@DU?$char_traits@D@std@@V?$allocator@D@2@@std@@V?$shared_ptr@VLogDispatchCallback@el@@@2@@1@@Z
	??$construct@U?$pair@$$CBW4Level@el@@I@std@@AEAU12@@?$_Default_allocator_traits@V?$allocator@U?$_Tree_node@U?$pair@$$CBW4Level@el@@I@std@@PEAX@std@@@std@@@std@@SAXAEAV?$allocator@U?$_Tree_node@U?$pair@$$CBW4Level@el@@I@std@@PEAX@std@@@1@QEAU?$pair@$$CBW4Level@el@@I@1@AEAU31@@Z
	??$construct@U?$pair@$$CBW4Level@el@@I@std@@U?$pair@W4Level@el@@H@2@@?$_Default_allocator_traits@V?$allocator@U?$_Tree_node@U?$pair@$$CBW4Level@el@@I@std@@PEAX@std@@@std@@@std@@SAXAEAV?$allocator@U?$_Tree_node@U?$pair@$$CBW4Level@el@@I@std@@PEAX@std@@@1@QEAU?$pair@$$CBW4Level@el@@I@1@$$QEAU?$pair@W4Level@el@@H@1@@Z
	??$construct@U?$pair@$$CBW4Level@el@@V?$basic_string@DU?$char_traits@D@std@@V?$allocator@D@2@@std@@@std@@U?$pair@W4Level@el@@V?$basic_string@DU?$char_traits@D@std@@V?$allocator@D@2@@std@@@2@@?$_Default_allocator_traits@V?$allocator@U?$_Tree_node@U?$pair@$$CBW4Level@el@@V?$basic_string@DU?$char_traits@D@std@@V?$allocator@D@2@@std@@@std@@PEAX@std@@@std@@@std@@SAXAEAV?$allocator@U?$_Tree_node@U?$pair@$$CBW4Level@el@@V?$basic_string@DU?$char_traits@D@std@@V?$allocator@D@2@@std@@@std@@PEAX@std@@@1@QEAU?$pair@$$CBW4Level@el@@V?$basic_string@DU?$char_traits@D@std@@V?$allocator@D@2@@std@@@1@$$QEAU?$pair@W4Level@el@@V?$basic_string@DU?$char_traits@D@std@@V?$allocator@D@2@@std@@@1@@Z
	??$construct@U?$pair@$$CBW4Level@el@@V?$shared_ptr@V?$basic_fstream@DU?$char_traits@D@std@@@std@@@std@@@std@@U?$pair@W4Level@el@@V?$shared_ptr@V?$basic_fstream@DU?$char_traits@D@std@@@std@@@std@@@2@@?$_Default_allocator_traits@V?$allocator@U?$_Tree_node@U?$pair@$$CBW4Level@el@@V?$shared_ptr@V?$basic_fstream@DU?$char_traits@D@std@@@std@@@std@@@std@@PEAX@std@@@std@@@std@@SAXAEAV?$allocator@U?$_Tree_node@U?$pair@$$CBW4Level@el@@V?$shared_ptr@V?$basic_fstream@DU?$char_traits@D@std@@@std@@@std@@@std@@PEAX@std@@@1@QEAU?$pair@$$CBW4Level@el@@V?$shared_ptr@V?$basic_fstream@DU?$char_traits@D@std@@@std@@@std@@@1@$$QEAU?$pair@W4Level@el@@V?$shared_ptr@V?$basic_fstream@DU?$char_traits@D@std@@@std@@@std@@@1@@Z
	??$construct@U?$pair@$$CBW4Level@el@@VLogFormat@base@2@@std@@U?$pair@W4Level@el@@VLogFormat@base@2@@2@@?$_Default_allocator_traits@V?$allocator@U?$_Tree_node@U?$pair@$$CBW4Level@el@@VLogFormat@base@2@@std@@PEAX@std@@@std@@@std@@SAXAEAV?$allocator@U?$_Tree_node@U?$pair@$$CBW4Level@el@@VLogFormat@base@2@@std@@PEAX@std@@@1@QEAU?$pair@$$CBW4Level@el@@VLogFormat@base@2@@1@$$QEAU?$pair@W4Level@el@@VLogFormat@base@2@@1@@Z
	??$construct@U?$pair@$$CBW4Level@el@@VSubsecondPrecision@base@2@@std@@U?$pair@W4Level@el@@VSubsecondPrecision@base@2@@2@@?$_Default_allocator_traits@V?$allocator@U?$_Tree_node@U?$pair@$$CBW4Level@el@@VSubsecondPrecision@base@2@@std@@PEAX@std@@@std@@@std@@SAXAEAV?$allocator@U?$_Tree_node@U?$pair@$$CBW4Level@el@@VSubsecondPrecision@base@2@@std@@PEAX@std@@@1@QEAU?$pair@$$CBW4Level@el@@VSubsecondPrecision@base@2@@1@$$QEAU?$pair@W4Level@el@@VSubsecondPrecision@base@2@@1@@Z
	??$construct@U?$pair@$$CBW4Level@el@@_K@std@@U?$pair@W4Level@el@@_K@2@@?$_Default_allocator_traits@V?$allocator@U?$_Tree_node@U?$pair@$$CBW4Level@el@@_K@std@@PEAX@std@@@std@@@std@@SAXAEAV?$allocator@U?$_Tree_node@U?$pair@$$CBW4Level@el@@_K@std@@PEAX@std@@@1@QEAU?$pair@$$CBW4Level@el@@_K@1@$$QEAU?$pair@W4Level@el@@_K@1@@Z
	??$construct@U?$pair@$$CBW4Level@el@@_N@std@@U?$pair@W4Level@el@@_N@2@@?$_Default_allocator_traits@V?$allocator@U?$_Tree_node@U?$pair@$$CBW4Level@el@@_N@std@@PEAX@std@@@std@@@std@@SAXAEAV?$allocator@U?$_Tree_node@U?$pair@$$CBW4Level@el@@_N@std@@PEAX@std@@@1@QEAU?$pair@$$CBW4Level@el@@_N@1@$$QEAU?$pair@W4Level@el@@_N@1@@Z
	??$construct@Unode@DataSet@@AEAHAEAM@?$_Default_allocator_traits@V?$allocator@Unode@DataSet@@@std@@@std@@SAXAEAV?$allocator@Unode@DataSet@@@1@QEAUnode@DataSet@@AEAHAEAM@Z
	??$construct@Unode@DataSet@@AEAU12@@?$_Default_allocator_traits@V?$allocator@Unode@DataSet@@@std@@@std@@SAXAEAV?$allocator@Unode@DataSet@@@1@QEAUnode@DataSet@@AEAU34@@Z
	??$construct@Unode@DataSet@@HH@?$_Default_allocator_traits@V?$allocator@Unode@DataSet@@@std@@@std@@SAXAEAV?$allocator@Unode@DataSet@@@1@QEAUnode@DataSet@@$$QEAH2@Z
	??$construct@Unode@DataSet@@U12@@?$_Default_allocator_traits@V?$allocator@Unode@DataSet@@@std@@@std@@SAXAEAV?$allocator@Unode@DataSet@@@1@QEAUnode@DataSet@@$$QEAU34@@Z
	??$construct@V?$SyncArray@N@@$$V@?$_Default_allocator_traits@V?$allocator@V?$SyncArray@N@@@std@@@std@@SAXAEAV?$allocator@V?$SyncArray@N@@@1@QEAV?$SyncArray@N@@@Z
	??$construct@V?$basic_string@DU?$char_traits@D@std@@V?$allocator@D@2@@std@@AEBV12@@?$_Default_allocator_traits@V?$allocator@V?$basic_string@DU?$char_traits@D@std@@V?$allocator@D@2@@std@@@std@@@std@@SAXAEAV?$allocator@V?$basic_string@DU?$char_traits@D@std@@V?$allocator@D@2@@std@@@1@QEAV?$basic_string@DU?$char_traits@D@std@@V?$allocator@D@2@@1@AEBV31@@Z
	??$construct@V?$basic_string@DU?$char_traits@D@std@@V?$allocator@D@2@@std@@V12@@?$_Default_allocator_traits@V?$allocator@V?$basic_string@DU?$char_traits@D@std@@V?$allocator@D@2@@std@@@std@@@std@@SAXAEAV?$allocator@V?$basic_string@DU?$char_traits@D@std@@V?$allocator@D@2@@std@@@1@QEAV?$basic_string@DU?$char_traits@D@std@@V?$allocator@D@2@@1@$$QEAV31@@Z
	??$construct@V?$vector@NV?$allocator@N@std@@@std@@$$V@?$_Default_allocator_traits@V?$allocator@V?$vector@NV?$allocator@N@std@@@std@@@std@@@std@@SAXAEAV?$allocator@V?$vector@NV?$allocator@N@std@@@std@@@1@QEAV?$vector@NV?$allocator@N@std@@@1@@Z
	??$construct@V?$vector@NV?$allocator@N@std@@@std@@AEBV12@@?$_Default_allocator_traits@V?$allocator@V?$vector@NV?$allocator@N@std@@@std@@@std@@@std@@SAXAEAV?$allocator@V?$vector@NV?$allocator@N@std@@@std@@@1@QEAV?$vector@NV?$allocator@N@std@@@1@AEBV31@@Z
	??$construct@V?$vector@Unode@DataSet@@V?$allocator@Unode@DataSet@@@std@@@std@@$$V@?$_Default_allocator_traits@V?$allocator@V?$vector@Unode@DataSet@@V?$allocator@Unode@DataSet@@@std@@@std@@@std@@@std@@SAXAEAV?$allocator@V?$vector@Unode@DataSet@@V?$allocator@Unode@DataSet@@@std@@@std@@@1@QEAV?$vector@Unode@DataSet@@V?$allocator@Unode@DataSet@@@std@@@1@@Z
	??$construct@V?$vector@Unode@DataSet@@V?$allocator@Unode@DataSet@@@std@@@std@@AEAV12@@?$_Default_allocator_traits@V?$allocator@V?$vector@Unode@DataSet@@V?$allocator@Unode@DataSet@@@std@@@std@@@std@@@std@@SAXAEAV?$allocator@V?$vector@Unode@DataSet@@V?$allocator@Unode@DataSet@@@std@@@std@@@1@QEAV?$vector@Unode@DataSet@@V?$allocator@Unode@DataSet@@@std@@@1@AEAV31@@Z
	??$construct@V?$vector@Unode@DataSet@@V?$allocator@Unode@DataSet@@@std@@@std@@AEBV12@@?$_Default_allocator_traits@V?$allocator@V?$vector@Unode@DataSet@@V?$allocator@Unode@DataSet@@@std@@@std@@@std@@@std@@SAXAEAV?$allocator@V?$vector@Unode@DataSet@@V?$allocator@Unode@DataSet@@@std@@@std@@@1@QEAV?$vector@Unode@DataSet@@V?$allocator@Unode@DataSet@@@std@@@1@AEBV31@@Z
	??$construct@V?$vector@Unode@DataSet@@V?$allocator@Unode@DataSet@@@std@@@std@@V12@@?$_Default_allocator_traits@V?$allocator@V?$vector@Unode@DataSet@@V?$allocator@Unode@DataSet@@@std@@@std@@@std@@@std@@SAXAEAV?$allocator@V?$vector@Unode@DataSet@@V?$allocator@Unode@DataSet@@@std@@@std@@@1@QEAV?$vector@Unode@DataSet@@V?$allocator@Unode@DataSet@@@std@@@1@$$QEAV31@@Z
	??$construct@V?$vector@V?$vector@Unode@DataSet@@V?$allocator@Unode@DataSet@@@std@@@std@@V?$allocator@V?$vector@Unode@DataSet@@V?$allocator@Unode@DataSet@@@std@@@std@@@2@@std@@$$V@?$_Default_allocator_traits@V?$allocator@V?$vector@V?$vector@Unode@DataSet@@V?$allocator@Unode@DataSet@@@std@@@std@@V?$allocator@V?$vector@Unode@DataSet@@V?$allocator@Unode@DataSet@@@std@@@std@@@2@@std@@@std@@@std@@SAXAEAV?$allocator@V?$vector@V?$vector@Unode@DataSet@@V?$allocator@Unode@DataSet@@@std@@@std@@V?$allocator@V?$vector@Unode@DataSet@@V?$allocator@Unode@DataSet@@@std@@@std@@@2@@std@@@1@QEAV?$vector@V?$vector@Unode@DataSet@@V?$allocator@Unode@DataSet@@@std@@@std@@V?$allocator@V?$vector@Unode@DataSet@@V?$allocator@Unode@DataSet@@@std@@@std@@@2@@1@@Z
	??$construct@VCustomFormatSpecifier@el@@AEBV12@@?$_Default_allocator_traits@V?$allocator@VCustomFormatSpecifier@el@@@std@@@std@@SAXAEAV?$allocator@VCustomFormatSpecifier@el@@@1@QEAVCustomFormatSpecifier@el@@AEBV34@@Z
	??$construct@VCustomFormatSpecifier@el@@V12@@?$_Default_allocator_traits@V?$allocator@VCustomFormatSpecifier@el@@@std@@@std@@SAXAEAV?$allocator@VCustomFormatSpecifier@el@@@1@QEAVCustomFormatSpecifier@el@@$$QEAV34@@Z
	??$construct_values@EV?$temporary_array@EUpar_t@cuda_cub@thrust@@@detail@thrust@@_K@temporary_array_detail@detail@thrust@@YAXAEAV?$temporary_array@EUpar_t@cuda_cub@thrust@@@12@_K@Z
	??$copy@Upar_t@cuda_cub@thrust@@PEAHPEAH@cuda_cub@thrust@@YAPEAHAEAU?$execution_policy@Upar_t@cuda_cub@thrust@@@01@PEAH11@Z
	??$copy@Upar_t@cuda_cub@thrust@@PEANPEAN@cuda_cub@thrust@@YAPEANAEAU?$execution_policy@Upar_t@cuda_cub@thrust@@@01@PEAN11@Z
	??$copy_n@Upar_t@cuda_cub@thrust@@PEAH_JPEAH@cuda_cub@thrust@@YAPEAHAEAU?$execution_policy@Upar_t@cuda_cub@thrust@@@01@PEAH_J1@Z
	??$copy_n@Upar_t@cuda_cub@thrust@@PEAN_JPEAN@cuda_cub@thrust@@YAPEANAEAU?$execution_policy@Upar_t@cuda_cub@thrust@@@01@PEAN_J1@Z
	??$cudaFuncGetAttributes@$$A6AXXZ@@YA?AW4cudaError@@PEAUcudaFuncAttributes@@P6AXXZ@Z
	??$cudaOccupancyMaxActiveBlocksPerMultiprocessor@P6AXPEAHH@Z@@YA?AW4cudaError@@PEAHP6AX0H@ZH_K@Z
	??$cudaOccupancyMaxActiveBlocksPerMultiprocessor@P6AXPEBNPEAHHHHU?$GridEvenShare@H@cub@cuda_cub@thrust@@@Z@@YA?AW4cudaError@@PEAHP6AXPEBN0HHHU?$GridEvenShare@H@cub@cuda_cub@thrust@@@ZH_K@Z
	??$cudaOccupancyMaxActiveBlocksPerMultiprocessor@P6AXPEBNPEAN01PEAHHHHU?$GridEvenShare@H@cub@cuda_cub@thrust@@@Z@@YA?AW4cudaError@@PEAHP6AXPEBNPEAN120HHHU?$GridEvenShare@H@cub@cuda_cub@thrust@@@ZH_K@Z
	??$cudaOccupancyMaxActiveBlocksPerMultiprocessor@P6AXPEBNPEANPEBHPEAH3HHHU?$GridEvenShare@H@cub@cuda_cub@thrust@@@Z@@YA?AW4cudaError@@PEAHP6AXPEBNPEANPEBH00HHHU?$GridEvenShare@H@cub@cuda_cub@thrust@@@ZH_K@Z
	??$cudaOccupancyMaxActiveBlocksPerMultiprocessor@P6AXU?$unary_transform_f@PEAHPEAHUno_stencil_tag@__transform@cuda_cub@thrust@@U?$identity@H@4@Ualways_true_predicate@234@@__transform@cuda_cub@thrust@@_J@Z@@YA?AW4cudaError@@PEAHP6AXU?$unary_transform_f@PEAHPEAHUno_stencil_tag@__transform@cuda_cub@thrust@@U?$identity@H@4@Ualways_true_predicate@234@@__transform@cuda_cub@thrust@@_J@ZH_K@Z
	??$cudaOccupancyMaxActiveBlocksPerMultiprocessor@P6AXU?$unary_transform_f@PEANPEANUno_stencil_tag@__transform@cuda_cub@thrust@@U?$identity@N@4@Ualways_true_predicate@234@@__transform@cuda_cub@thrust@@_J@Z@@YA?AW4cudaError@@PEAHP6AXU?$unary_transform_f@PEANPEANUno_stencil_tag@__transform@cuda_cub@thrust@@U?$identity@N@4@Ualways_true_predicate@234@@__transform@cuda_cub@thrust@@_J@ZH_K@Z
	??$dereference@V?$normal_iterator@V?$pointer@EUpar_t@cuda_cub@thrust@@Uuse_default@3@U43@@thrust@@@detail@thrust@@@iterator_core_access@thrust@@CA?AV?$reference@EV?$pointer@EUpar_t@cuda_cub@thrust@@Uuse_default@3@U43@@thrust@@Uuse_default@2@@1@AEBV?$normal_iterator@V?$pointer@EUpar_t@cuda_cub@thrust@@Uuse_default@3@U43@@thrust@@@detail@1@@Z
	??$dereference@V?$pointer@EUpar_t@cuda_cub@thrust@@Uuse_default@3@U43@@thrust@@@iterator_core_access@thrust@@CA?AV?$reference@EV?$pointer@EUpar_t@cuda_cub@thrust@@Uuse_default@3@U43@@thrust@@Uuse_default@2@@1@AEBV?$pointer@EUpar_t@cuda_cub@thrust@@Uuse_default@3@U43@@1@@Z
	??$derived_cast@Upar_t@cuda_cub@thrust@@@detail@thrust@@YAAEAUpar_t@cuda_cub@1@AEAU?$execution_policy_base@Upar_t@cuda_cub@thrust@@@01@@Z
	??$destroy@PEAVConfiguration@el@@@?$_Default_allocator_traits@V?$allocator@PEAVConfiguration@el@@@std@@@std@@SAXAEAV?$allocator@PEAVConfiguration@el@@@1@QEAPEAVConfiguration@el@@@Z
	??$destroy@PEAVHitCounter@base@el@@@?$_Default_allocator_traits@V?$allocator@PEAVHitCounter@base@el@@@std@@@std@@SAXAEAV?$allocator@PEAVHitCounter@base@el@@@1@QEAPEAVHitCounter@base@el@@@Z
	??$destroy@U?$pair@$$CBV?$basic_string@DU?$char_traits@D@std@@V?$allocator@D@2@@std@@G@std@@@?$_Default_allocator_traits@V?$allocator@U?$_Tree_node@U?$pair@$$CBV?$basic_string@DU?$char_traits@D@std@@V?$allocator@D@2@@std@@G@std@@PEAX@std@@@std@@@std@@SAXAEAV?$allocator@U?$_Tree_node@U?$pair@$$CBV?$basic_string@DU?$char_traits@D@std@@V?$allocator@D@2@@std@@G@std@@PEAX@std@@@1@QEAU?$pair@$$CBV?$basic_string@DU?$char_traits@D@std@@V?$allocator@D@2@@std@@G@1@@Z
	??$destroy@U?$pair@$$CBV?$basic_string@DU?$char_traits@D@std@@V?$allocator@D@2@@std@@PEAVLogger@el@@@std@@@?$_Default_allocator_traits@V?$allocator@U?$_Tree_node@U?$pair@$$CBV?$basic_string@DU?$char_traits@D@std@@V?$allocator@D@2@@std@@PEAVLogger@el@@@std@@PEAX@std@@@std@@@std@@SAXAEAV?$allocator@U?$_Tree_node@U?$pair@$$CBV?$basic_string@DU?$char_traits@D@std@@V?$allocator@D@2@@std@@PEAVLogger@el@@@std@@PEAX@std@@@1@QEAU?$pair@$$CBV?$basic_string@DU?$char_traits@D@std@@V?$allocator@D@2@@std@@PEAVLogger@el@@@1@@Z
	??$destroy@U?$pair@$$CBV?$basic_string@DU?$char_traits@D@std@@V?$allocator@D@2@@std@@V12@@std@@@?$_Default_allocator_traits@V?$allocator@U?$_Tree_node@U?$pair@$$CBV?$basic_string@DU?$char_traits@D@std@@V?$allocator@D@2@@std@@V12@@std@@PEAX@std@@@std@@@std@@SAXAEAV?$allocator@U?$_Tree_node@U?$pair@$$CBV?$basic_string@DU?$char_traits@D@std@@V?$allocator@D@2@@std@@V12@@std@@PEAX@std@@@1@QEAU?$pair@$$CBV?$basic_string@DU?$char_traits@D@std@@V?$allocator@D@2@@std@@V12@@1@@Z
	??$destroy@U?$pair@$$CBV?$basic_string@DU?$char_traits@D@std@@V?$allocator@D@2@@std@@V?$shared_ptr@V?$basic_fstream@DU?$char_traits@D@std@@@std@@@2@@std@@@?$_Default_allocator_traits@V?$allocator@U?$_Tree_node@U?$pair@$$CBV?$basic_string@DU?$char_traits@D@std@@V?$allocator@D@2@@std@@V?$shared_ptr@V?$basic_fstream@DU?$char_traits@D@std@@@std@@@2@@std@@PEAX@std@@@std@@@std@@SAXAEAV?$allocator@U?$_Tree_node@U?$pair@$$CBV?$basic_string@DU?$char_traits@D@std@@V?$allocator@D@2@@std@@V?$shared_ptr@V?$basic_fstream@DU?$char_traits@D@std@@@std@@@2@@std@@PEAX@std@@@1@QEAU?$pair@$$CBV?$basic_string@DU?$char_traits@D@std@@V?$allocator@D@2@@std@@V?$shared_ptr@V?$basic_fstream@DU?$char_traits@D@std@@@std@@@2@@1@@Z
	??$destroy@U?$pair@$$CBV?$basic_string@DU?$char_traits@D@std@@V?$allocator@D@2@@std@@V?$shared_ptr@VLogDispatchCallback@el@@@2@@std@@@?$_Default_allocator_traits@V?$allocator@U?$_Tree_node@U?$pair@$$CBV?$basic_string@DU?$char_traits@D@std@@V?$allocator@D@2@@std@@V?$shared_ptr@VLogDispatchCallback@el@@@2@@std@@PEAX@std@@@std@@@std@@SAXAEAV?$allocator@U?$_Tree_node@U?$pair@$$CBV?$basic_string@DU?$char_traits@D@std@@V?$allocator@D@2@@std@@V?$shared_ptr@VLogDispatchCallback@el@@@2@@std@@PEAX@std@@@1@QEAU?$pair@$$CBV?$basic_string@DU?$char_traits@D@std@@V?$allocator@D@2@@std@@V?$shared_ptr@VLogDispatchCallback@el@@@2@@1@@Z
	??$destroy@U?$pair@$$CBV?$basic_string@DU?$char_traits@D@std@@V?$allocator@D@2@@std@@V?$shared_ptr@VLoggerRegistrationCallback@el@@@2@@std@@@?$_Default_allocator_traits@V?$allocator@U?$_Tree_node@U?$pair@$$CBV?$basic_string@DU?$char_traits@D@std@@V?$allocator@D@2@@std@@V?$shared_ptr@VLoggerRegistrationCallback@el@@@2@@std@@PEAX@std@@@std@@@std@@SAXAEAV?$allocator@U?$_Tree_node@U?$pair@$$CBV?$basic_string@DU?$char_traits@D@std@@V?$allocator@D@2@@std@@V?$shared_ptr@VLoggerRegistrationCallback@el@@@2@@std@@PEAX@std@@@1@QEAU?$pair@$$CBV?$basic_string@DU?$char_traits@D@std@@V?$allocator@D@2@@std@@V?$shared_ptr@VLoggerRegistrationCallback@el@@@2@@1@@Z
	??$destroy@U?$pair@$$CBV?$basic_string@DU?$char_traits@D@std@@V?$allocator@D@2@@std@@V?$shared_ptr@VPerformanceTrackingCallback@el@@@2@@std@@@?$_Default_allocator_traits@V?$allocator@U?$_Tree_node@U?$pair@$$CBV?$basic_string@DU?$char_traits@D@std@@V?$allocator@D@2@@std@@V?$shared_ptr@VPerformanceTrackingCallback@el@@@2@@std@@PEAX@std@@@std@@@std@@SAXAEAV?$allocator@U?$_Tree_node@U?$pair@$$CBV?$basic_string@DU?$char_traits@D@std@@V?$allocator@D@2@@std@@V?$shared_ptr@VPerformanceTrackingCallback@el@@@2@@std@@PEAX@std@@@1@QEAU?$pair@$$CBV?$basic_string@DU?$char_traits@D@std@@V?$allocator@D@2@@std@@V?$shared_ptr@VPerformanceTrackingCallback@el@@@2@@1@@Z
	??$destroy@U?$pair@$$CBW4Level@el@@I@std@@@?$_Default_allocator_traits@V?$allocator@U?$_Tree_node@U?$pair@$$CBW4Level@el@@I@std@@PEAX@std@@@std@@@std@@SAXAEAV?$allocator@U?$_Tree_node@U?$pair@$$CBW4Level@el@@I@std@@PEAX@std@@@1@QEAU?$pair@$$CBW4Level@el@@I@1@@Z
	??$destroy@U?$pair@$$CBW4Level@el@@V?$basic_string@DU?$char_traits@D@std@@V?$allocator@D@2@@std@@@std@@@?$_Default_allocator_traits@V?$allocator@U?$_Tree_node@U?$pair@$$CBW4Level@el@@V?$basic_string@DU?$char_traits@D@std@@V?$allocator@D@2@@std@@@std@@PEAX@std@@@std@@@std@@SAXAEAV?$allocator@U?$_Tree_node@U?$pair@$$CBW4Level@el@@V?$basic_string@DU?$char_traits@D@std@@V?$allocator@D@2@@std@@@std@@PEAX@std@@@1@QEAU?$pair@$$CBW4Level@el@@V?$basic_string@DU?$char_traits@D@std@@V?$allocator@D@2@@std@@@1@@Z
	??$destroy@U?$pair@$$CBW4Level@el@@V?$shared_ptr@V?$basic_fstream@DU?$char_traits@D@std@@@std@@@std@@@std@@@?$_Default_allocator_traits@V?$allocator@U?$_Tree_node@U?$pair@$$CBW4Level@el@@V?$shared_ptr@V?$basic_fstream@DU?$char_traits@D@std@@@std@@@std@@@std@@PEAX@std@@@std@@@std@@SAXAEAV?$allocator@U?$_Tree_node@U?$pair@$$CBW4Level@el@@V?$shared_ptr@V?$basic_fstream@DU?$char_traits@D@std@@@std@@@std@@@std@@PEAX@std@@@1@QEAU?$pair@$$CBW4Level@el@@V?$shared_ptr@V?$basic_fstream@DU?$char_traits@D@std@@@std@@@std@@@1@@Z
	??$destroy@U?$pair@$$CBW4Level@el@@VLogFormat@base@2@@std@@@?$_Default_allocator_traits@V?$allocator@U?$_Tree_node@U?$pair@$$CBW4Level@el@@VLogFormat@base@2@@std@@PEAX@std@@@std@@@std@@SAXAEAV?$allocator@U?$_Tree_node@U?$pair@$$CBW4Level@el@@VLogFormat@base@2@@std@@PEAX@std@@@1@QEAU?$pair@$$CBW4Level@el@@VLogFormat@base@2@@1@@Z
	??$destroy@U?$pair@$$CBW4Level@el@@VSubsecondPrecision@base@2@@std@@@?$_Default_allocator_traits@V?$allocator@U?$_Tree_node@U?$pair@$$CBW4Level@el@@VSubsecondPrecision@base@2@@std@@PEAX@std@@@std@@@std@@SAXAEAV?$allocator@U?$_Tree_node@U?$pair@$$CBW4Level@el@@VSubsecondPrecision@base@2@@std@@PEAX@std@@@1@QEAU?$pair@$$CBW4Level@el@@VSubsecondPrecision@base@2@@1@@Z
	??$destroy@U?$pair@$$CBW4Level@el@@_K@std@@@?$_Default_allocator_traits@V?$allocator@U?$_Tree_node@U?$pair@$$CBW4Level@el@@_K@std@@PEAX@std@@@std@@@std@@SAXAEAV?$allocator@U?$_Tree_node@U?$pair@$$CBW4Level@el@@_K@std@@PEAX@std@@@1@QEAU?$pair@$$CBW4Level@el@@_K@1@@Z
	??$destroy@U?$pair@$$CBW4Level@el@@_N@std@@@?$_Default_allocator_traits@V?$allocator@U?$_Tree_node@U?$pair@$$CBW4Level@el@@_N@std@@PEAX@std@@@std@@@std@@SAXAEAV?$allocator@U?$_Tree_node@U?$pair@$$CBW4Level@el@@_N@std@@PEAX@std@@@1@QEAU?$pair@$$CBW4Level@el@@_N@1@@Z
	??$destroy@V?$SyncArray@N@@@?$_Default_allocator_traits@V?$allocator@V?$SyncArray@N@@@std@@@std@@SAXAEAV?$allocator@V?$SyncArray@N@@@1@QEAV?$SyncArray@N@@@Z
	??$destroy@V?$basic_string@DU?$char_traits@D@std@@V?$allocator@D@2@@std@@@?$_Default_allocator_traits@V?$allocator@V?$basic_string@DU?$char_traits@D@std@@V?$allocator@D@2@@std@@@std@@@std@@SAXAEAV?$allocator@V?$basic_string@DU?$char_traits@D@std@@V?$allocator@D@2@@std@@@1@QEAV?$basic_string@DU?$char_traits@D@std@@V?$allocator@D@2@@1@@Z
	??$destroy@V?$vector@NV?$allocator@N@std@@@std@@@?$_Default_allocator_traits@V?$allocator@V?$vector@NV?$allocator@N@std@@@std@@@std@@@std@@SAXAEAV?$allocator@V?$vector@NV?$allocator@N@std@@@std@@@1@QEAV?$vector@NV?$allocator@N@std@@@1@@Z
	??$destroy@V?$vector@Unode@DataSet@@V?$allocator@Unode@DataSet@@@std@@@std@@@?$_Default_allocator_traits@V?$allocator@V?$vector@Unode@DataSet@@V?$allocator@Unode@DataSet@@@std@@@std@@@std@@@std@@SAXAEAV?$allocator@V?$vector@Unode@DataSet@@V?$allocator@Unode@DataSet@@@std@@@std@@@1@QEAV?$vector@Unode@DataSet@@V?$allocator@Unode@DataSet@@@std@@@1@@Z
	??$destroy@V?$vector@V?$vector@Unode@DataSet@@V?$allocator@Unode@DataSet@@@std@@@std@@V?$allocator@V?$vector@Unode@DataSet@@V?$allocator@Unode@DataSet@@@std@@@std@@@2@@std@@@?$_Default_allocator_traits@V?$allocator@V?$vector@V?$vector@Unode@DataSet@@V?$allocator@Unode@DataSet@@@std@@@std@@V?$allocator@V?$vector@Unode@DataSet@@V?$allocator@Unode@DataSet@@@std@@@std@@@2@@std@@@std@@@std@@SAXAEAV?$allocator@V?$vector@V?$vector@Unode@DataSet@@V?$allocator@Unode@DataSet@@@std@@@std@@V?$allocator@V?$vector@Unode@DataSet@@V?$allocator@Unode@DataSet@@@std@@@std@@@2@@std@@@1@QEAV?$vector@V?$vector@Unode@DataSet@@V?$allocator@Unode@DataSet@@@std@@@std@@V?$allocator@V?$vector@Unode@DataSet@@V?$allocator@Unode@DataSet@@@std@@@std@@@2@@1@@Z
	??$destroy@VCustomFormatSpecifier@el@@@?$_Default_allocator_traits@V?$allocator@VCustomFormatSpecifier@el@@@std@@@std@@SAXAEAV?$allocator@VCustomFormatSpecifier@el@@@1@QEAVCustomFormatSpecifier@el@@@Z
	??$destroy_range@U?$no_throw_allocator@V?$temporary_allocator@EUpar_t@cuda_cub@thrust@@@detail@thrust@@@detail@thrust@@V?$pointer@EUpar_t@cuda_cub@thrust@@Uuse_default@3@U43@@3@_J@allocator_traits_detail@detail@thrust@@YAXAEAU?$no_throw_allocator@V?$temporary_allocator@EUpar_t@cuda_cub@thrust@@@detail@thrust@@@12@V?$pointer@EUpar_t@cuda_cub@thrust@@Uuse_default@3@U43@@2@_J@Z
	??$destroy_range@U?$no_throw_allocator@V?$temporary_allocator@EUpar_t@cuda_cub@thrust@@@detail@thrust@@@detail@thrust@@V?$pointer@EUpar_t@cuda_cub@thrust@@Uuse_default@3@U43@@3@_J@detail@thrust@@YAXAEAU?$no_throw_allocator@V?$temporary_allocator@EUpar_t@cuda_cub@thrust@@@detail@thrust@@@01@V?$pointer@EUpar_t@cuda_cub@thrust@@Uuse_default@3@U43@@1@_J@Z
	??$device_to_device@Upar_t@cuda_cub@thrust@@PEAHPEAH@__copy@cuda_cub@thrust@@YAPEAHAEAU?$execution_policy@Upar_t@cuda_cub@thrust@@@12@PEAH11@Z
	??$device_to_device@Upar_t@cuda_cub@thrust@@PEANPEAN@__copy@cuda_cub@thrust@@YAPEANAEAU?$execution_policy@Upar_t@cuda_cub@thrust@@@12@PEAN11@Z
	??$distance@PEAH@detail@generic@0system@thrust@@YA_JPEAH0Urandom_access_traversal_tag@3@@Z
	??$distance@PEAH@generic@detail@system@thrust@@YA_JPEAH0@Z
	??$distance@PEAH@std@@YA_JPEAH0@Z
	??$distance@PEAH@thrust@@YA_JPEAH0@Z
	??$distance@PEAM@std@@YA_JPEAM0@Z
	??$distance@PEAN@detail@generic@0system@thrust@@YA_JPEAN0Urandom_access_traversal_tag@3@@Z
	??$distance@PEAN@generic@detail@system@thrust@@YA_JPEAN0@Z
	??$distance@PEAN@std@@YA_JPEAN0@Z
	??$distance@PEAN@thrust@@YA_JPEAN0@Z
	??$distance@PEAV?$vector@Unode@DataSet@@V?$allocator@Unode@DataSet@@@std@@@std@@@std@@YA_JPEAV?$vector@Unode@DataSet@@V?$allocator@Unode@DataSet@@@std@@@0@0@Z
	??$distance@PEBH@std@@YA_JPEBH0@Z
	??$distance@PEBV?$vector@Unode@DataSet@@V?$allocator@Unode@DataSet@@@std@@@std@@@std@@YA_JPEBV?$vector@Unode@DataSet@@V?$allocator@Unode@DataSet@@@std@@@0@0@Z
	??$distance@V?$_Tree_unchecked_const_iterator@V?$_Tree_val@U?$_Tree_simple_types@U?$pair@$$CBV?$basic_string@DU?$char_traits@D@std@@V?$allocator@D@2@@std@@PEAVLogger@el@@@std@@@std@@@std@@U_Iterator_base0@2@@std@@@std@@YA_JV?$_Tree_unchecked_const_iterator@V?$_Tree_val@U?$_Tree_simple_types@U?$pair@$$CBV?$basic_string@DU?$char_traits@D@std@@V?$allocator@D@2@@std@@PEAVLogger@el@@@std@@@std@@@std@@U_Iterator_base0@2@@0@0@Z
	??$distance_from@V?$normal_iterator@V?$pointer@EUpar_t@cuda_cub@thrust@@Uuse_default@3@U43@@thrust@@@detail@thrust@@V123@@iterator_core_access@thrust@@CA_JAEBV?$normal_iterator@V?$pointer@EUpar_t@cuda_cub@thrust@@Uuse_default@3@U43@@thrust@@@detail@1@0@Z
	??$distance_from@V?$normal_iterator@V?$pointer@EUpar_t@cuda_cub@thrust@@Uuse_default@3@U43@@thrust@@@detail@thrust@@V123@@iterator_core_access@thrust@@CA_JAEBV?$normal_iterator@V?$pointer@EUpar_t@cuda_cub@thrust@@Uuse_default@3@U43@@thrust@@@detail@1@0U?$integral_constant@_N$00@31@@Z
	??$distance_from@V?$pointer@EUpar_t@cuda_cub@thrust@@Uuse_default@3@U43@@thrust@@V12@@iterator_core_access@thrust@@CA_JAEBV?$pointer@EUpar_t@cuda_cub@thrust@@Uuse_default@3@U43@@1@0@Z
	??$distance_from@V?$pointer@EUpar_t@cuda_cub@thrust@@Uuse_default@3@U43@@thrust@@V12@@iterator_core_access@thrust@@CA_JAEBV?$pointer@EUpar_t@cuda_cub@thrust@@Uuse_default@3@U43@@1@0U?$integral_constant@_N$00@detail@1@@Z
	??$distance_to@V?$normal_iterator@V?$pointer@EUpar_t@cuda_cub@thrust@@Uuse_default@3@U43@@thrust@@@detail@thrust@@V?$pointer@EUpar_t@cuda_cub@thrust@@Uuse_default@3@U43@@3@Uuse_default@3@U53@U53@U53@U53@@?$iterator_adaptor@V?$normal_iterator@V?$pointer@EUpar_t@cuda_cub@thrust@@Uuse_default@3@U43@@thrust@@@detail@thrust@@V?$pointer@EUpar_t@cuda_cub@thrust@@Uuse_default@3@U43@@3@Uuse_default@3@U53@U53@U53@U53@@thrust@@AEBA_JAEBV01@@Z
	??$distance_to@V?$pointer@EUpar_t@cuda_cub@thrust@@Uuse_default@3@U43@@thrust@@PEAEEUpar_t@cuda_cub@2@Urandom_access_traversal_tag@2@V?$reference@EV?$pointer@EUpar_t@cuda_cub@thrust@@Uuse_default@3@U43@@thrust@@Uuse_default@2@@2@_J@?$iterator_adaptor@V?$pointer@EUpar_t@cuda_cub@thrust@@Uuse_default@3@U43@@thrust@@PEAEEUpar_t@cuda_cub@2@Urandom_access_traversal_tag@2@V?$reference@EV?$pointer@EUpar_t@cuda_cub@thrust@@Uuse_default@3@U43@@thrust@@Uuse_default@2@@2@_J@thrust@@AEBA_JAEBV01@@Z
	??$doit@NH_J@?$dispatch@U?$integral_constant@_N$00@detail@thrust@@U?$less@N@3@@__radix_sort@cuda_cub@thrust@@SA?AW4cudaError@@PEAXAEA_KAEAU?$DoubleBuffer@N@cub@23@AEAU?$DoubleBuffer@H@623@_JPEAUCUstream_st@@_N@Z
	??$doit@NN_J@?$dispatch@U?$integral_constant@_N$00@detail@thrust@@U?$less@N@3@@__radix_sort@cuda_cub@thrust@@SA?AW4cudaError@@PEAXAEA_KAEAU?$DoubleBuffer@N@cub@23@2_JPEAUCUstream_st@@_N@Z
	??$doit@P6AXU?$unary_transform_f@PEAHPEAHUno_stencil_tag@__transform@cuda_cub@thrust@@U?$identity@H@4@Ualways_true_predicate@234@@__transform@cuda_cub@thrust@@_J@ZU1234@_J@triple_chevron@launcher@cuda_cub@thrust@@QEBA?AW4cudaError@@P6AXU?$unary_transform_f@PEAHPEAHUno_stencil_tag@__transform@cuda_cub@thrust@@U?$identity@H@4@Ualways_true_predicate@234@@__transform@23@_J@Z01@Z
	??$doit@P6AXU?$unary_transform_f@PEANPEANUno_stencil_tag@__transform@cuda_cub@thrust@@U?$identity@N@4@Ualways_true_predicate@234@@__transform@cuda_cub@thrust@@_J@ZU1234@_J@triple_chevron@launcher@cuda_cub@thrust@@QEBA?AW4cudaError@@P6AXU?$unary_transform_f@PEANPEANUno_stencil_tag@__transform@cuda_cub@thrust@@U?$identity@N@4@Ualways_true_predicate@234@@__transform@23@_J@Z01@Z
	??$doit_host@P6AXU?$unary_transform_f@PEAHPEAHUno_stencil_tag@__transform@cuda_cub@thrust@@U?$identity@H@4@Ualways_true_predicate@234@@__transform@cuda_cub@thrust@@_J@ZU1234@_J@triple_chevron@launcher@cuda_cub@thrust@@QEBA?AW4cudaError@@P6AXU?$unary_transform_f@PEAHPEAHUno_stencil_tag@__transform@cuda_cub@thrust@@U?$identity@H@4@Ualways_true_predicate@234@@__transform@23@_J@Z01@Z
	??$doit_host@P6AXU?$unary_transform_f@PEANPEANUno_stencil_tag@__transform@cuda_cub@thrust@@U?$identity@N@4@Ualways_true_predicate@234@@__transform@cuda_cub@thrust@@_J@ZU1234@_J@triple_chevron@launcher@cuda_cub@thrust@@QEBA?AW4cudaError@@P6AXU?$unary_transform_f@PEANPEANUno_stencil_tag@__transform@cuda_cub@thrust@@U?$identity@N@4@Ualways_true_predicate@234@@__transform@23@_J@Z01@Z
	??$down_cast_pair@EUpar_t@cuda_cub@thrust@@U?$pair@V?$pointer@EUpar_t@cuda_cub@thrust@@Uuse_default@3@U43@@thrust@@_J@3@@get_temporary_buffer_detail@detail@thrust@@YA?AU?$pair@V?$pointer@EUpar_t@cuda_cub@thrust@@Uuse_default@3@U43@@thrust@@_J@2@U32@@Z
	??$emplace@U?$pair@V?$basic_string@DU?$char_traits@D@std@@V?$allocator@D@2@@std@@G@std@@@?$_Tree@V?$_Tmap_traits@V?$basic_string@DU?$char_traits@D@std@@V?$allocator@D@2@@std@@GU?$less@V?$basic_string@DU?$char_traits@D@std@@V?$allocator@D@2@@std@@@2@V?$allocator@U?$pair@$$CBV?$basic_string@DU?$char_traits@D@std@@V?$allocator@D@2@@std@@G@std@@@2@$0A@@std@@@std@@QEAA?AU?$pair@V?$_Tree_iterator@V?$_Tree_val@U?$_Tree_simple_types@U?$pair@$$CBV?$basic_string@DU?$char_traits@D@std@@V?$allocator@D@2@@std@@G@std@@@std@@@std@@@std@@_N@1@$$QEAU?$pair@V?$basic_string@DU?$char_traits@D@std@@V?$allocator@D@2@@std@@G@1@@Z
	??$emplace@U?$pair@V?$basic_string@DU?$char_traits@D@std@@V?$allocator@D@2@@std@@PEAVLogger@el@@@std@@@?$_Tree@V?$_Tmap_traits@V?$basic_string@DU?$char_traits@D@std@@V?$allocator@D@2@@std@@PEAVLogger@el@@U?$less@V?$basic_string@DU?$char_traits@D@std@@V?$allocator@D@2@@std@@@2@V?$allocator@U?$pair@$$CBV?$basic_string@DU?$char_traits@D@std@@V?$allocator@D@2@@std@@PEAVLogger@el@@@std@@@2@$0A@@std@@@std@@QEAA?AU?$pair@V?$_Tree_iterator@V?$_Tree_val@U?$_Tree_simple_types@U?$pair@$$CBV?$basic_string@DU?$char_traits@D@std@@V?$allocator@D@2@@std@@PEAVLogger@el@@@std@@@std@@@std@@@std@@_N@1@$$QEAU?$pair@V?$basic_string@DU?$char_traits@D@std@@V?$allocator@D@2@@std@@PEAVLogger@el@@@1@@Z
	??$emplace@U?$pair@V?$basic_string@DU?$char_traits@D@std@@V?$allocator@D@2@@std@@V12@@std@@@?$_Tree@V?$_Tmap_traits@V?$basic_string@DU?$char_traits@D@std@@V?$allocator@D@2@@std@@V12@U?$less@V?$basic_string@DU?$char_traits@D@std@@V?$allocator@D@2@@std@@@2@V?$allocator@U?$pair@$$CBV?$basic_string@DU?$char_traits@D@std@@V?$allocator@D@2@@std@@V12@@std@@@2@$0A@@std@@@std@@QEAA?AU?$pair@V?$_Tree_iterator@V?$_Tree_val@U?$_Tree_simple_types@U?$pair@$$CBV?$basic_string@DU?$char_traits@D@std@@V?$allocator@D@2@@std@@V12@@std@@@std@@@std@@@std@@_N@1@$$QEAU?$pair@V?$basic_string@DU?$char_traits@D@std@@V?$allocator@D@2@@std@@V12@@1@@Z
	??$emplace@U?$pair@V?$basic_string@DU?$char_traits@D@std@@V?$allocator@D@2@@std@@V?$shared_ptr@V?$basic_fstream@DU?$char_traits@D@std@@@std@@@2@@std@@@?$_Tree@V?$_Tmap_traits@V?$basic_string@DU?$char_traits@D@std@@V?$allocator@D@2@@std@@V?$shared_ptr@V?$basic_fstream@DU?$char_traits@D@std@@@std@@@2@U?$less@V?$basic_string@DU?$char_traits@D@std@@V?$allocator@D@2@@std@@@2@V?$allocator@U?$pair@$$CBV?$basic_string@DU?$char_traits@D@std@@V?$allocator@D@2@@std@@V?$shared_ptr@V?$basic_fstream@DU?$char_traits@D@std@@@std@@@2@@std@@@2@$0A@@std@@@std@@QEAA?AU?$pair@V?$_Tree_iterator@V?$_Tree_val@U?$_Tree_simple_types@U?$pair@$$CBV?$basic_string@DU?$char_traits@D@std@@V?$allocator@D@2@@std@@V?$shared_ptr@V?$basic_fstream@DU?$char_traits@D@std@@@std@@@2@@std@@@std@@@std@@@std@@_N@1@$$QEAU?$pair@V?$basic_string@DU?$char_traits@D@std@@V?$allocator@D@2@@std@@V?$shared_ptr@V?$basic_fstream@DU?$char_traits@D@std@@@std@@@2@@1@@Z
	??$emplace@U?$pair@V?$basic_string@DU?$char_traits@D@std@@V?$allocator@D@2@@std@@V?$shared_ptr@VLogDispatchCallback@el@@@2@@std@@@?$_Tree@V?$_Tmap_traits@V?$basic_string@DU?$char_traits@D@std@@V?$allocator@D@2@@std@@V?$shared_ptr@VLogDispatchCallback@el@@@2@U?$less@V?$basic_string@DU?$char_traits@D@std@@V?$allocator@D@2@@std@@@2@V?$allocator@U?$pair@$$CBV?$basic_string@DU?$char_traits@D@std@@V?$allocator@D@2@@std@@V?$shared_ptr@VLogDispatchCallback@el@@@2@@std@@@2@$0A@@std@@@std@@QEAA?AU?$pair@V?$_Tree_iterator@V?$_Tree_val@U?$_Tree_simple_types@U?$pair@$$CBV?$basic_string@DU?$char_traits@D@std@@V?$allocator@D@2@@std@@V?$shared_ptr@VLogDispatchCallback@el@@@2@@std@@@std@@@std@@@std@@_N@1@$$QEAU?$pair@V?$basic_string@DU?$char_traits@D@std@@V?$allocator@D@2@@std@@V?$shared_ptr@VLogDispatchCallback@el@@@2@@1@@Z
	??$emplace@U?$pair@W4Level@el@@H@std@@@?$_Tree@V?$_Tmap_traits@W4Level@el@@IU?$less@W4Level@el@@@std@@V?$allocator@U?$pair@$$CBW4Level@el@@I@std@@@4@$0A@@std@@@std@@QEAA?AU?$pair@V?$_Tree_iterator@V?$_Tree_val@U?$_Tree_simple_types@U?$pair@$$CBW4Level@el@@I@std@@@std@@@std@@@std@@_N@1@$$QEAU?$pair@W4Level@el@@H@1@@Z
	??$emplace@U?$pair@W4Level@el@@V?$basic_string@DU?$char_traits@D@std@@V?$allocator@D@2@@std@@@std@@@?$_Tree@V?$_Tmap_traits@W4Level@el@@V?$basic_string@DU?$char_traits@D@std@@V?$allocator@D@2@@std@@U?$less@W4Level@el@@@4@V?$allocator@U?$pair@$$CBW4Level@el@@V?$basic_string@DU?$char_traits@D@std@@V?$allocator@D@2@@std@@@std@@@4@$0A@@std@@@std@@QEAA?AU?$pair@V?$_Tree_iterator@V?$_Tree_val@U?$_Tree_simple_types@U?$pair@$$CBW4Level@el@@V?$basic_string@DU?$char_traits@D@std@@V?$allocator@D@2@@std@@@std@@@std@@@std@@@std@@_N@1@$$QEAU?$pair@W4Level@el@@V?$basic_string@DU?$char_traits@D@std@@V?$allocator@D@2@@std@@@1@@Z
	??$emplace@U?$pair@W4Level@el@@V?$shared_ptr@V?$basic_fstream@DU?$char_traits@D@std@@@std@@@std@@@std@@@?$_Tree@V?$_Tmap_traits@W4Level@el@@V?$shared_ptr@V?$basic_fstream@DU?$char_traits@D@std@@@std@@@std@@U?$less@W4Level@el@@@4@V?$allocator@U?$pair@$$CBW4Level@el@@V?$shared_ptr@V?$basic_fstream@DU?$char_traits@D@std@@@std@@@std@@@std@@@4@$0A@@std@@@std@@QEAA?AU?$pair@V?$_Tree_iterator@V?$_Tree_val@U?$_Tree_simple_types@U?$pair@$$CBW4Level@el@@V?$shared_ptr@V?$basic_fstream@DU?$char_traits@D@std@@@std@@@std@@@std@@@std@@@std@@@std@@_N@1@$$QEAU?$pair@W4Level@el@@V?$shared_ptr@V?$basic_fstream@DU?$char_traits@D@std@@@std@@@std@@@1@@Z
	??$emplace@U?$pair@W4Level@el@@VLogFormat@base@2@@std@@@?$_Tree@V?$_Tmap_traits@W4Level@el@@VLogFormat@base@2@U?$less@W4Level@el@@@std@@V?$allocator@U?$pair@$$CBW4Level@el@@VLogFormat@base@2@@std@@@6@$0A@@std@@@std@@QEAA?AU?$pair@V?$_Tree_iterator@V?$_Tree_val@U?$_Tree_simple_types@U?$pair@$$CBW4Level@el@@VLogFormat@base@2@@std@@@std@@@std@@@std@@_N@1@$$QEAU?$pair@W4Level@el@@VLogFormat@base@2@@1@@Z
	??$emplace@U?$pair@W4Level@el@@VSubsecondPrecision@base@2@@std@@@?$_Tree@V?$_Tmap_traits@W4Level@el@@VSubsecondPrecision@base@2@U?$less@W4Level@el@@@std@@V?$allocator@U?$pair@$$CBW4Level@el@@VSubsecondPrecision@base@2@@std@@@6@$0A@@std@@@std@@QEAA?AU?$pair@V?$_Tree_iterator@V?$_Tree_val@U?$_Tree_simple_types@U?$pair@$$CBW4Level@el@@VSubsecondPrecision@base@2@@std@@@std@@@std@@@std@@_N@1@$$QEAU?$pair@W4Level@el@@VSubsecondPrecision@base@2@@1@@Z
	??$emplace@U?$pair@W4Level@el@@_K@std@@@?$_Tree@V?$_Tmap_traits@W4Level@el@@_KU?$less@W4Level@el@@@std@@V?$allocator@U?$pair@$$CBW4Level@el@@_K@std@@@4@$0A@@std@@@std@@QEAA?AU?$pair@V?$_Tree_iterator@V?$_Tree_val@U?$_Tree_simple_types@U?$pair@$$CBW4Level@el@@_K@std@@@std@@@std@@@std@@_N@1@$$QEAU?$pair@W4Level@el@@_K@1@@Z
	??$emplace@U?$pair@W4Level@el@@_N@std@@@?$_Tree@V?$_Tmap_traits@W4Level@el@@_NU?$less@W4Level@el@@@std@@V?$allocator@U?$pair@$$CBW4Level@el@@_N@std@@@4@$0A@@std@@@std@@QEAA?AU?$pair@V?$_Tree_iterator@V?$_Tree_val@U?$_Tree_simple_types@U?$pair@$$CBW4Level@el@@_N@std@@@std@@@std@@@std@@_N@1@$$QEAU?$pair@W4Level@el@@_N@1@@Z
	??$emplace_back@$$V@?$vector@NV?$allocator@N@std@@@std@@QEAA?A_TXZ
	??$emplace_back@$$V@?$vector@V?$vector@Unode@DataSet@@V?$allocator@Unode@DataSet@@@std@@@std@@V?$allocator@V?$vector@Unode@DataSet@@V?$allocator@Unode@DataSet@@@std@@@std@@@2@@std@@QEAA?A_TXZ
	??$emplace_back@AEAHAEAM@?$vector@Unode@DataSet@@V?$allocator@Unode@DataSet@@@std@@@std@@QEAA?A_TAEAHAEAM@Z
	??$emplace_back@AEBH@?$vector@HV?$allocator@H@std@@@std@@QEAA?A_TAEBH@Z
	??$emplace_back@AEBM@?$vector@MV?$allocator@M@std@@@std@@QEAA?A_TAEBM@Z
	??$emplace_back@AEBN@?$vector@NV?$allocator@N@std@@@std@@QEAA?A_TAEBN@Z
	??$emplace_back@AEBQEAVConfiguration@el@@@?$vector@PEAVConfiguration@el@@V?$allocator@PEAVConfiguration@el@@@std@@@std@@QEAA?A_TAEBQEAVConfiguration@el@@@Z
	??$emplace_back@AEBQEAVHitCounter@base@el@@@?$vector@PEAVHitCounter@base@el@@V?$allocator@PEAVHitCounter@base@el@@@std@@@std@@QEAA?A_TAEBQEAVHitCounter@base@el@@@Z
	??$emplace_back@AEBV?$basic_string@DU?$char_traits@D@std@@V?$allocator@D@2@@std@@@?$vector@V?$basic_string@DU?$char_traits@D@std@@V?$allocator@D@2@@std@@V?$allocator@V?$basic_string@DU?$char_traits@D@std@@V?$allocator@D@2@@std@@@2@@std@@QEAA?A_TAEBV?$basic_string@DU?$char_traits@D@std@@V?$allocator@D@2@@1@@Z
	??$emplace_back@AEBV?$vector@Unode@DataSet@@V?$allocator@Unode@DataSet@@@std@@@std@@@?$vector@V?$vector@Unode@DataSet@@V?$allocator@Unode@DataSet@@@std@@@std@@V?$allocator@V?$vector@Unode@DataSet@@V?$allocator@Unode@DataSet@@@std@@@std@@@2@@std@@QEAA?A_TAEBV?$vector@Unode@DataSet@@V?$allocator@Unode@DataSet@@@std@@@1@@Z
	??$emplace_back@AEBVCustomFormatSpecifier@el@@@?$vector@VCustomFormatSpecifier@el@@V?$allocator@VCustomFormatSpecifier@el@@@std@@@std@@QEAA?A_TAEBVCustomFormatSpecifier@el@@@Z
	??$emplace_back@H@?$vector@HV?$allocator@H@std@@@std@@QEAA?A_T$$QEAH@Z
	??$emplace_back@HH@?$vector@Unode@DataSet@@V?$allocator@Unode@DataSet@@@std@@@std@@QEAA?A_T$$QEAH0@Z
	??$emplace_back@M@?$vector@MV?$allocator@M@std@@@std@@QEAA?A_T$$QEAM@Z
	??$emplace_back@N@?$vector@NV?$allocator@N@std@@@std@@QEAA?A_T$$QEAN@Z
	??$emplace_back@V?$basic_string@DU?$char_traits@D@std@@V?$allocator@D@2@@std@@@?$vector@V?$basic_string@DU?$char_traits@D@std@@V?$allocator@D@2@@std@@V?$allocator@V?$basic_string@DU?$char_traits@D@std@@V?$allocator@D@2@@std@@@2@@std@@QEAA?A_T$$QEAV?$basic_string@DU?$char_traits@D@std@@V?$allocator@D@2@@1@@Z
	??$endl@DU?$char_traits@D@std@@@std@@YAAEAV?$basic_ostream@DU?$char_traits@D@std@@@0@AEAV10@@Z
	??$exchange@PEAH$$T@std@@YAPEAHAEAPEAH$$QEA$$T@Z
	??$exchange@PEAN$$T@std@@YAPEANAEAPEAN$$QEA$$T@Z
	??$exchange@PEAU?$_Tree_node@U?$pair@$$CBV?$basic_string@DU?$char_traits@D@std@@V?$allocator@D@2@@std@@G@std@@PEAX@std@@$$T@std@@YAPEAU?$_Tree_node@U?$pair@$$CBV?$basic_string@DU?$char_traits@D@std@@V?$allocator@D@2@@std@@G@std@@PEAX@0@AEAPEAU10@$$QEA$$T@Z
	??$exchange@PEAU?$_Tree_node@U?$pair@$$CBV?$basic_string@DU?$char_traits@D@std@@V?$allocator@D@2@@std@@G@std@@PEAX@std@@AEAPEAU12@@std@@YAPEAU?$_Tree_node@U?$pair@$$CBV?$basic_string@DU?$char_traits@D@std@@V?$allocator@D@2@@std@@G@std@@PEAX@0@AEAPEAU10@0@Z
	??$exchange@PEAU?$_Tree_node@U?$pair@$$CBV?$basic_string@DU?$char_traits@D@std@@V?$allocator@D@2@@std@@PEAVLogger@el@@@std@@PEAX@std@@$$T@std@@YAPEAU?$_Tree_node@U?$pair@$$CBV?$basic_string@DU?$char_traits@D@std@@V?$allocator@D@2@@std@@PEAVLogger@el@@@std@@PEAX@0@AEAPEAU10@$$QEA$$T@Z
	??$exchange@PEAU?$_Tree_node@U?$pair@$$CBV?$basic_string@DU?$char_traits@D@std@@V?$allocator@D@2@@std@@PEAVLogger@el@@@std@@PEAX@std@@AEAPEAU12@@std@@YAPEAU?$_Tree_node@U?$pair@$$CBV?$basic_string@DU?$char_traits@D@std@@V?$allocator@D@2@@std@@PEAVLogger@el@@@std@@PEAX@0@AEAPEAU10@0@Z
	??$exchange@PEAU?$_Tree_node@U?$pair@$$CBV?$basic_string@DU?$char_traits@D@std@@V?$allocator@D@2@@std@@V12@@std@@PEAX@std@@$$T@std@@YAPEAU?$_Tree_node@U?$pair@$$CBV?$basic_string@DU?$char_traits@D@std@@V?$allocator@D@2@@std@@V12@@std@@PEAX@0@AEAPEAU10@$$QEA$$T@Z
	??$exchange@PEAU?$_Tree_node@U?$pair@$$CBV?$basic_string@DU?$char_traits@D@std@@V?$allocator@D@2@@std@@V12@@std@@PEAX@std@@AEAPEAU12@@std@@YAPEAU?$_Tree_node@U?$pair@$$CBV?$basic_string@DU?$char_traits@D@std@@V?$allocator@D@2@@std@@V12@@std@@PEAX@0@AEAPEAU10@0@Z
	??$exchange@PEAU?$_Tree_node@U?$pair@$$CBV?$basic_string@DU?$char_traits@D@std@@V?$allocator@D@2@@std@@V?$shared_ptr@V?$basic_fstream@DU?$char_traits@D@std@@@std@@@2@@std@@PEAX@std@@$$T@std@@YAPEAU?$_Tree_node@U?$pair@$$CBV?$basic_string@DU?$char_traits@D@std@@V?$allocator@D@2@@std@@V?$shared_ptr@V?$basic_fstream@DU?$char_traits@D@std@@@std@@@2@@std@@PEAX@0@AEAPEAU10@$$QEA$$T@Z
	??$exchange@PEAU?$_Tree_node@U?$pair@$$CBV?$basic_string@DU?$char_traits@D@std@@V?$allocator@D@2@@std@@V?$shared_ptr@V?$basic_fstream@DU?$char_traits@D@std@@@std@@@2@@std@@PEAX@std@@AEAPEAU12@@std@@YAPEAU?$_Tree_node@U?$pair@$$CBV?$basic_string@DU?$char_traits@D@std@@V?$allocator@D@2@@std@@V?$shared_ptr@V?$basic_fstream@DU?$char_traits@D@std@@@std@@@2@@std@@PEAX@0@AEAPEAU10@0@Z
	??$exchange@PEAU?$_Tree_node@U?$pair@$$CBV?$basic_string@DU?$char_traits@D@std@@V?$allocator@D@2@@std@@V?$shared_ptr@VLogDispatchCallback@el@@@2@@std@@PEAX@std@@$$T@std@@YAPEAU?$_Tree_node@U?$pair@$$CBV?$basic_string@DU?$char_traits@D@std@@V?$allocator@D@2@@std@@V?$shared_ptr@VLogDispatchCallback@el@@@2@@std@@PEAX@0@AEAPEAU10@$$QEA$$T@Z
	??$exchange@PEAU?$_Tree_node@U?$pair@$$CBV?$basic_string@DU?$char_traits@D@std@@V?$allocator@D@2@@std@@V?$shared_ptr@VLogDispatchCallback@el@@@2@@std@@PEAX@std@@AEAPEAU12@@std@@YAPEAU?$_Tree_node@U?$pair@$$CBV?$basic_string@DU?$char_traits@D@std@@V?$allocator@D@2@@std@@V?$shared_ptr@VLogDispatchCallback@el@@@2@@std@@PEAX@0@AEAPEAU10@0@Z
	??$exchange@PEAU?$_Tree_node@U?$pair@$$CBV?$basic_string@DU?$char_traits@D@std@@V?$allocator@D@2@@std@@V?$shared_ptr@VLoggerRegistrationCallback@el@@@2@@std@@PEAX@std@@AEAPEAU12@@std@@YAPEAU?$_Tree_node@U?$pair@$$CBV?$basic_string@DU?$char_traits@D@std@@V?$allocator@D@2@@std@@V?$shared_ptr@VLoggerRegistrationCallback@el@@@2@@std@@PEAX@0@AEAPEAU10@0@Z
	??$exchange@PEAU?$_Tree_node@U?$pair@$$CBV?$basic_string@DU?$char_traits@D@std@@V?$allocator@D@2@@std@@V?$shared_ptr@VPerformanceTrackingCallback@el@@@2@@std@@PEAX@std@@AEAPEAU12@@std@@YAPEAU?$_Tree_node@U?$pair@$$CBV?$basic_string@DU?$char_traits@D@std@@V?$allocator@D@2@@std@@V?$shared_ptr@VPerformanceTrackingCallback@el@@@2@@std@@PEAX@0@AEAPEAU10@0@Z
	??$exchange@PEAU?$_Tree_node@U?$pair@$$CBW4Level@el@@I@std@@PEAX@std@@$$T@std@@YAPEAU?$_Tree_node@U?$pair@$$CBW4Level@el@@I@std@@PEAX@0@AEAPEAU10@$$QEA$$T@Z
	??$exchange@PEAU?$_Tree_node@U?$pair@$$CBW4Level@el@@I@std@@PEAX@std@@AEAPEAU12@@std@@YAPEAU?$_Tree_node@U?$pair@$$CBW4Level@el@@I@std@@PEAX@0@AEAPEAU10@0@Z
	??$exchange@PEAU?$_Tree_node@U?$pair@$$CBW4Level@el@@V?$basic_string@DU?$char_traits@D@std@@V?$allocator@D@2@@std@@@std@@PEAX@std@@$$T@std@@YAPEAU?$_Tree_node@U?$pair@$$CBW4Level@el@@V?$basic_string@DU?$char_traits@D@std@@V?$allocator@D@2@@std@@@std@@PEAX@0@AEAPEAU10@$$QEA$$T@Z
	??$exchange@PEAU?$_Tree_node@U?$pair@$$CBW4Level@el@@V?$basic_string@DU?$char_traits@D@std@@V?$allocator@D@2@@std@@@std@@PEAX@std@@AEAPEAU12@@std@@YAPEAU?$_Tree_node@U?$pair@$$CBW4Level@el@@V?$basic_string@DU?$char_traits@D@std@@V?$allocator@D@2@@std@@@std@@PEAX@0@AEAPEAU10@0@Z
	??$exchange@PEAU?$_Tree_node@U?$pair@$$CBW4Level@el@@V?$shared_ptr@V?$basic_fstream@DU?$char_traits@D@std@@@std@@@std@@@std@@PEAX@std@@$$T@std@@YAPEAU?$_Tree_node@U?$pair@$$CBW4Level@el@@V?$shared_ptr@V?$basic_fstream@DU?$char_traits@D@std@@@std@@@std@@@std@@PEAX@0@AEAPEAU10@$$QEA$$T@Z
	??$exchange@PEAU?$_Tree_node@U?$pair@$$CBW4Level@el@@V?$shared_ptr@V?$basic_fstream@DU?$char_traits@D@std@@@std@@@std@@@std@@PEAX@std@@AEAPEAU12@@std@@YAPEAU?$_Tree_node@U?$pair@$$CBW4Level@el@@V?$shared_ptr@V?$basic_fstream@DU?$char_traits@D@std@@@std@@@std@@@std@@PEAX@0@AEAPEAU10@0@Z
	??$exchange@PEAU?$_Tree_node@U?$pair@$$CBW4Level@el@@VLogFormat@base@2@@std@@PEAX@std@@$$T@std@@YAPEAU?$_Tree_node@U?$pair@$$CBW4Level@el@@VLogFormat@base@2@@std@@PEAX@0@AEAPEAU10@$$QEA$$T@Z
	??$exchange@PEAU?$_Tree_node@U?$pair@$$CBW4Level@el@@VLogFormat@base@2@@std@@PEAX@std@@AEAPEAU12@@std@@YAPEAU?$_Tree_node@U?$pair@$$CBW4Level@el@@VLogFormat@base@2@@std@@PEAX@0@AEAPEAU10@0@Z
	??$exchange@PEAU?$_Tree_node@U?$pair@$$CBW4Level@el@@VSubsecondPrecision@base@2@@std@@PEAX@std@@$$T@std@@YAPEAU?$_Tree_node@U?$pair@$$CBW4Level@el@@VSubsecondPrecision@base@2@@std@@PEAX@0@AEAPEAU10@$$QEA$$T@Z
	??$exchange@PEAU?$_Tree_node@U?$pair@$$CBW4Level@el@@VSubsecondPrecision@base@2@@std@@PEAX@std@@AEAPEAU12@@std@@YAPEAU?$_Tree_node@U?$pair@$$CBW4Level@el@@VSubsecondPrecision@base@2@@std@@PEAX@0@AEAPEAU10@0@Z
	??$exchange@PEAU?$_Tree_node@U?$pair@$$CBW4Level@el@@_K@std@@PEAX@std@@$$T@std@@YAPEAU?$_Tree_node@U?$pair@$$CBW4Level@el@@_K@std@@PEAX@0@AEAPEAU10@$$QEA$$T@Z
	??$exchange@PEAU?$_Tree_node@U?$pair@$$CBW4Level@el@@_K@std@@PEAX@std@@AEAPEAU12@@std@@YAPEAU?$_Tree_node@U?$pair@$$CBW4Level@el@@_K@std@@PEAX@0@AEAPEAU10@0@Z
	??$exchange@PEAU?$_Tree_node@U?$pair@$$CBW4Level@el@@_N@std@@PEAX@std@@$$T@std@@YAPEAU?$_Tree_node@U?$pair@$$CBW4Level@el@@_N@std@@PEAX@0@AEAPEAU10@$$QEA$$T@Z
	??$exchange@PEAU?$_Tree_node@U?$pair@$$CBW4Level@el@@_N@std@@PEAX@std@@AEAPEAU12@@std@@YAPEAU?$_Tree_node@U?$pair@$$CBW4Level@el@@_N@std@@PEAX@0@AEAPEAU10@0@Z
	??$exchange@PEAU_Container_proxy@std@@$$T@std@@YAPEAU_Container_proxy@0@AEAPEAU10@$$QEA$$T@Z
	??$exchange@PEAUnode@DataSet@@$$T@std@@YAPEAUnode@DataSet@@AEAPEAU12@$$QEA$$T@Z
	??$exchange@PEAV?$vector@Unode@DataSet@@V?$allocator@Unode@DataSet@@@std@@@std@@$$T@std@@YAPEAV?$vector@Unode@DataSet@@V?$allocator@Unode@DataSet@@@std@@@0@AEAPEAV10@$$QEA$$T@Z
	??$exchange@PEAV_Facet_base@std@@$$T@std@@YAPEAV_Facet_base@0@AEAPEAV10@$$QEA$$T@Z
	??$find@V?$_Vector_const_iterator@V?$_Vector_val@U?$_Simple_types@V?$basic_string@DU?$char_traits@D@std@@V?$allocator@D@2@@std@@@std@@@std@@@std@@V?$basic_string@DU?$char_traits@D@std@@V?$allocator@D@2@@2@@std@@YA?AV?$_Vector_const_iterator@V?$_Vector_val@U?$_Simple_types@V?$basic_string@DU?$char_traits@D@std@@V?$allocator@D@2@@std@@@std@@@std@@@0@V10@V10@AEBV?$basic_string@DU?$char_traits@D@std@@V?$allocator@D@2@@0@@Z
	??$find@V?$_Vector_iterator@V?$_Vector_val@U?$_Simple_types@VCustomFormatSpecifier@el@@@std@@@std@@@std@@PEBD@std@@YA?AV?$_Vector_iterator@V?$_Vector_val@U?$_Simple_types@VCustomFormatSpecifier@el@@@std@@@std@@@0@V10@V10@AEBQEBD@Z
	??$find_if@V?$_Vector_iterator@V?$_Vector_val@U?$_Simple_types@PEAVConfiguration@el@@@std@@@std@@@std@@VPredicate@Configuration@el@@@std@@YA?AV?$_Vector_iterator@V?$_Vector_val@U?$_Simple_types@PEAVConfiguration@el@@@std@@@std@@@0@V10@V10@VPredicate@Configuration@el@@@Z
	??$find_if@V?$_Vector_iterator@V?$_Vector_val@U?$_Simple_types@PEAVHitCounter@base@el@@@std@@@std@@@std@@VPredicate@HitCounter@base@el@@@std@@YA?AV?$_Vector_iterator@V?$_Vector_val@U?$_Simple_types@PEAVHitCounter@base@el@@@std@@@std@@@0@V10@V10@VPredicate@HitCounter@base@el@@@Z
	??$flush@DU?$char_traits@D@std@@@std@@YAAEAV?$basic_ostream@DU?$char_traits@D@std@@@0@AEAV10@@Z
	??$forward@AEAG@std@@YAAEAGAEAG@Z
	??$forward@AEAH@std@@YAAEAHAEAH@Z
	??$forward@AEAM@std@@YAAEAMAEAM@Z
	??$forward@AEAN@std@@YAAEANAEAN@Z
	??$forward@AEAPEAD@std@@YAAEAPEADAEAPEAD@Z
	??$forward@AEAPEAPEAVConfiguration@el@@@std@@YAAEAPEAPEAVConfiguration@el@@AEAPEAPEAV12@@Z
	??$forward@AEAPEAPEAVHitCounter@base@el@@@std@@YAAEAPEAPEAVHitCounter@base@el@@AEAPEAPEAV123@@Z
	??$forward@AEAPEAU?$_Tree_node@U?$pair@$$CBV?$basic_string@DU?$char_traits@D@std@@V?$allocator@D@2@@std@@G@std@@PEAX@std@@@std@@YAAEAPEAU?$_Tree_node@U?$pair@$$CBV?$basic_string@DU?$char_traits@D@std@@V?$allocator@D@2@@std@@G@std@@PEAX@0@AEAPEAU10@@Z
	??$forward@AEAPEAU?$_Tree_node@U?$pair@$$CBV?$basic_string@DU?$char_traits@D@std@@V?$allocator@D@2@@std@@PEAVLogger@el@@@std@@PEAX@std@@@std@@YAAEAPEAU?$_Tree_node@U?$pair@$$CBV?$basic_string@DU?$char_traits@D@std@@V?$allocator@D@2@@std@@PEAVLogger@el@@@std@@PEAX@0@AEAPEAU10@@Z
	??$forward@AEAPEAU?$_Tree_node@U?$pair@$$CBV?$basic_string@DU?$char_traits@D@std@@V?$allocator@D@2@@std@@V12@@std@@PEAX@std@@@std@@YAAEAPEAU?$_Tree_node@U?$pair@$$CBV?$basic_string@DU?$char_traits@D@std@@V?$allocator@D@2@@std@@V12@@std@@PEAX@0@AEAPEAU10@@Z
	??$forward@AEAPEAU?$_Tree_node@U?$pair@$$CBV?$basic_string@DU?$char_traits@D@std@@V?$allocator@D@2@@std@@V?$shared_ptr@V?$basic_fstream@DU?$char_traits@D@std@@@std@@@2@@std@@PEAX@std@@@std@@YAAEAPEAU?$_Tree_node@U?$pair@$$CBV?$basic_string@DU?$char_traits@D@std@@V?$allocator@D@2@@std@@V?$shared_ptr@V?$basic_fstream@DU?$char_traits@D@std@@@std@@@2@@std@@PEAX@0@AEAPEAU10@@Z
	??$forward@AEAPEAU?$_Tree_node@U?$pair@$$CBV?$basic_string@DU?$char_traits@D@std@@V?$allocator@D@2@@std@@V?$shared_ptr@VLogDispatchCallback@el@@@2@@std@@PEAX@std@@@std@@YAAEAPEAU?$_Tree_node@U?$pair@$$CBV?$basic_string@DU?$char_traits@D@std@@V?$allocator@D@2@@std@@V?$shared_ptr@VLogDispatchCallback@el@@@2@@std@@PEAX@0@AEAPEAU10@@Z
	??$forward@AEAPEAU?$_Tree_node@U?$pair@$$CBW4Level@el@@I@std@@PEAX@std@@@std@@YAAEAPEAU?$_Tree_node@U?$pair@$$CBW4Level@el@@I@std@@PEAX@0@AEAPEAU10@@Z
	??$forward@AEAPEAU?$_Tree_node@U?$pair@$$CBW4Level@el@@V?$basic_string@DU?$char_traits@D@std@@V?$allocator@D@2@@std@@@std@@PEAX@std@@@std@@YAAEAPEAU?$_Tree_node@U?$pair@$$CBW4Level@el@@V?$basic_string@DU?$char_traits@D@std@@V?$allocator@D@2@@std@@@std@@PEAX@0@AEAPEAU10@@Z
	??$forward@AEAPEAU?$_Tree_node@U?$pair@$$CBW4Level@el@@V?$shared_ptr@V?$basic_fstream@DU?$char_traits@D@std@@@std@@@std@@@std@@PEAX@std@@@std@@YAAEAPEAU?$_Tree_node@U?$pair@$$CBW4Level@el@@V?$shared_ptr@V?$basic_fstream@DU?$char_traits@D@std@@@std@@@std@@@std@@PEAX@0@AEAPEAU10@@Z
	??$forward@AEAPEAU?$_Tree_node@U?$pair@$$CBW4Level@el@@VLogFormat@base@2@@std@@PEAX@std@@@std@@YAAEAPEAU?$_Tree_node@U?$pair@$$CBW4Level@el@@VLogFormat@base@2@@std@@PEAX@0@AEAPEAU10@@Z
	??$forward@AEAPEAU?$_Tree_node@U?$pair@$$CBW4Level@el@@VSubsecondPrecision@base@2@@std@@PEAX@std@@@std@@YAAEAPEAU?$_Tree_node@U?$pair@$$CBW4Level@el@@VSubsecondPrecision@base@2@@std@@PEAX@0@AEAPEAU10@@Z
	??$forward@AEAPEAU?$_Tree_node@U?$pair@$$CBW4Level@el@@_K@std@@PEAX@std@@@std@@YAAEAPEAU?$_Tree_node@U?$pair@$$CBW4Level@el@@_K@std@@PEAX@0@AEAPEAU10@@Z
	??$forward@AEAPEAU?$_Tree_node@U?$pair@$$CBW4Level@el@@_N@std@@PEAX@std@@@std@@YAAEAPEAU?$_Tree_node@U?$pair@$$CBW4Level@el@@_N@std@@PEAX@0@AEAPEAU10@@Z
	??$forward@AEAPEAVLogger@el@@@std@@YAAEAPEAVLogger@el@@AEAPEAV12@@Z
	??$forward@AEAPEAV_Facet_base@std@@@std@@YAAEAPEAV_Facet_base@0@AEAPEAV10@@Z
	??$forward@AEAU?$pair@$$CBW4Level@el@@I@std@@@std@@YAAEAU?$pair@$$CBW4Level@el@@I@0@AEAU10@@Z
	??$forward@AEAUnode@DataSet@@@std@@YAAEAUnode@DataSet@@AEAU12@@Z
	??$forward@AEAV?$basic_string@DU?$char_traits@D@std@@V?$allocator@D@2@@std@@@std@@YAAEAV?$basic_string@DU?$char_traits@D@std@@V?$allocator@D@2@@0@AEAV10@@Z
	??$forward@AEAV?$reverse_iterator@PEAD@std@@@std@@YAAEAV?$reverse_iterator@PEAD@0@AEAV10@@Z
	??$forward@AEAV?$vector@Unode@DataSet@@V?$allocator@Unode@DataSet@@@std@@@std@@@std@@YAAEAV?$vector@Unode@DataSet@@V?$allocator@Unode@DataSet@@@std@@@0@AEAV10@@Z
	??$forward@AEAW4Level@el@@@std@@YAAEAW4Level@el@@AEAW412@@Z
	??$forward@AEBH@std@@YAAEBHAEBH@Z
	??$forward@AEBI@std@@YAAEBIAEBI@Z
	??$forward@AEBM@std@@YAAEBMAEBM@Z
	??$forward@AEBN@std@@YAAEBNAEBN@Z
	??$forward@AEBQ6AXPEBD_K@Z@std@@YAAEBQ6AXPEBD_K@ZAEBQ6AX01@Z@Z
	??$forward@AEBQEAD@std@@YAAEBQEADAEBQEAD@Z
	??$forward@AEBQEAU?$_Tree_node@U?$pair@$$CBV?$basic_string@DU?$char_traits@D@std@@V?$allocator@D@2@@std@@G@std@@PEAX@std@@@std@@YAAEBQEAU?$_Tree_node@U?$pair@$$CBV?$basic_string@DU?$char_traits@D@std@@V?$allocator@D@2@@std@@G@std@@PEAX@0@AEBQEAU10@@Z
	??$forward@AEBQEAU?$_Tree_node@U?$pair@$$CBV?$basic_string@DU?$char_traits@D@std@@V?$allocator@D@2@@std@@PEAVLogger@el@@@std@@PEAX@std@@@std@@YAAEBQEAU?$_Tree_node@U?$pair@$$CBV?$basic_string@DU?$char_traits@D@std@@V?$allocator@D@2@@std@@PEAVLogger@el@@@std@@PEAX@0@AEBQEAU10@@Z
	??$forward@AEBQEAU?$_Tree_node@U?$pair@$$CBV?$basic_string@DU?$char_traits@D@std@@V?$allocator@D@2@@std@@V12@@std@@PEAX@std@@@std@@YAAEBQEAU?$_Tree_node@U?$pair@$$CBV?$basic_string@DU?$char_traits@D@std@@V?$allocator@D@2@@std@@V12@@std@@PEAX@0@AEBQEAU10@@Z
	??$forward@AEBQEAU?$_Tree_node@U?$pair@$$CBV?$basic_string@DU?$char_traits@D@std@@V?$allocator@D@2@@std@@V?$shared_ptr@V?$basic_fstream@DU?$char_traits@D@std@@@std@@@2@@std@@PEAX@std@@@std@@YAAEBQEAU?$_Tree_node@U?$pair@$$CBV?$basic_string@DU?$char_traits@D@std@@V?$allocator@D@2@@std@@V?$shared_ptr@V?$basic_fstream@DU?$char_traits@D@std@@@std@@@2@@std@@PEAX@0@AEBQEAU10@@Z
	??$forward@AEBQEAU?$_Tree_node@U?$pair@$$CBV?$basic_string@DU?$char_traits@D@std@@V?$allocator@D@2@@std@@V?$shared_ptr@VLogDispatchCallback@el@@@2@@std@@PEAX@std@@@std@@YAAEBQEAU?$_Tree_node@U?$pair@$$CBV?$basic_string@DU?$char_traits@D@std@@V?$allocator@D@2@@std@@V?$shared_ptr@VLogDispatchCallback@el@@@2@@std@@PEAX@0@AEBQEAU10@@Z
	??$forward@AEBQEAU?$_Tree_node@U?$pair@$$CBV?$basic_string@DU?$char_traits@D@std@@V?$allocator@D@2@@std@@V?$shared_ptr@VLoggerRegistrationCallback@el@@@2@@std@@PEAX@std@@@std@@YAAEBQEAU?$_Tree_node@U?$pair@$$CBV?$basic_string@DU?$char_traits@D@std@@V?$allocator@D@2@@std@@V?$shared_ptr@VLoggerRegistrationCallback@el@@@2@@std@@PEAX@0@AEBQEAU10@@Z
	??$forward@AEBQEAU?$_Tree_node@U?$pair@$$CBV?$basic_string@DU?$char_traits@D@std@@V?$allocator@D@2@@std@@V?$shared_ptr@VPerformanceTrackingCallback@el@@@2@@std@@PEAX@std@@@std@@YAAEBQEAU?$_Tree_node@U?$pair@$$CBV?$basic_string@DU?$char_traits@D@std@@V?$allocator@D@2@@std@@V?$shared_ptr@VPerformanceTrackingCallback@el@@@2@@std@@PEAX@0@AEBQEAU10@@Z
	??$forward@AEBQEAU?$_Tree_node@U?$pair@$$CBW4Level@el@@I@std@@PEAX@std@@@std@@YAAEBQEAU?$_Tree_node@U?$pair@$$CBW4Level@el@@I@std@@PEAX@0@AEBQEAU10@@Z
	??$forward@AEBQEAU?$_Tree_node@U?$pair@$$CBW4Level@el@@V?$basic_string@DU?$char_traits@D@std@@V?$allocator@D@2@@std@@@std@@PEAX@std@@@std@@YAAEBQEAU?$_Tree_node@U?$pair@$$CBW4Level@el@@V?$basic_string@DU?$char_traits@D@std@@V?$allocator@D@2@@std@@@std@@PEAX@0@AEBQEAU10@@Z
	??$forward@AEBQEAU?$_Tree_node@U?$pair@$$CBW4Level@el@@V?$shared_ptr@V?$basic_fstream@DU?$char_traits@D@std@@@std@@@std@@@std@@PEAX@std@@@std@@YAAEBQEAU?$_Tree_node@U?$pair@$$CBW4Level@el@@V?$shared_ptr@V?$basic_fstream@DU?$char_traits@D@std@@@std@@@std@@@std@@PEAX@0@AEBQEAU10@@Z
	??$forward@AEBQEAU?$_Tree_node@U?$pair@$$CBW4Level@el@@VLogFormat@base@2@@std@@PEAX@std@@@std@@YAAEBQEAU?$_Tree_node@U?$pair@$$CBW4Level@el@@VLogFormat@base@2@@std@@PEAX@0@AEBQEAU10@@Z
	??$forward@AEBQEAU?$_Tree_node@U?$pair@$$CBW4Level@el@@VSubsecondPrecision@base@2@@std@@PEAX@std@@@std@@YAAEBQEAU?$_Tree_node@U?$pair@$$CBW4Level@el@@VSubsecondPrecision@base@2@@std@@PEAX@0@AEBQEAU10@@Z
	??$forward@AEBQEAU?$_Tree_node@U?$pair@$$CBW4Level@el@@_K@std@@PEAX@std@@@std@@YAAEBQEAU?$_Tree_node@U?$pair@$$CBW4Level@el@@_K@std@@PEAX@0@AEBQEAU10@@Z
	??$forward@AEBQEAU?$_Tree_node@U?$pair@$$CBW4Level@el@@_N@std@@PEAX@std@@@std@@YAAEBQEAU?$_Tree_node@U?$pair@$$CBW4Level@el@@_N@std@@PEAX@0@AEBQEAU10@@Z
	??$forward@AEBQEAVConfiguration@el@@@std@@YAAEBQEAVConfiguration@el@@AEBQEAV12@@Z
	??$forward@AEBQEAVHitCounter@base@el@@@std@@YAAEBQEAVHitCounter@base@el@@AEBQEAV123@@Z
	??$forward@AEBU?$less@V?$basic_string@DU?$char_traits@D@std@@V?$allocator@D@2@@std@@@std@@@std@@YAAEBU?$less@V?$basic_string@DU?$char_traits@D@std@@V?$allocator@D@2@@std@@@0@AEBU10@@Z
	??$forward@AEBU?$less@W4Level@el@@@std@@@std@@YAAEBU?$less@W4Level@el@@@0@AEBU10@@Z
	??$forward@AEBV?$allocator@D@std@@@std@@YAAEBV?$allocator@D@0@AEBV10@@Z
	??$forward@AEBV?$allocator@H@std@@@std@@YAAEBV?$allocator@H@0@AEBV10@@Z
	??$forward@AEBV?$allocator@I@std@@@std@@YAAEBV?$allocator@I@0@AEBV10@@Z
	??$forward@AEBV?$allocator@N@std@@@std@@YAAEBV?$allocator@N@0@AEBV10@@Z
	??$forward@AEBV?$allocator@V?$SyncArray@N@@@std@@@std@@YAAEBV?$allocator@V?$SyncArray@N@@@0@AEBV10@@Z
	??$forward@AEBV?$allocator@V?$vector@NV?$allocator@N@std@@@std@@@std@@@std@@YAAEBV?$allocator@V?$vector@NV?$allocator@N@std@@@std@@@0@AEBV10@@Z
	??$forward@AEBV?$allocator@V?$vector@Unode@DataSet@@V?$allocator@Unode@DataSet@@@std@@@std@@@std@@@std@@YAAEBV?$allocator@V?$vector@Unode@DataSet@@V?$allocator@Unode@DataSet@@@std@@@std@@@0@AEBV10@@Z
	??$forward@AEBV?$allocator@V?$vector@V?$vector@Unode@DataSet@@V?$allocator@Unode@DataSet@@@std@@@std@@V?$allocator@V?$vector@Unode@DataSet@@V?$allocator@Unode@DataSet@@@std@@@std@@@2@@std@@@std@@@std@@YAAEBV?$allocator@V?$vector@V?$vector@Unode@DataSet@@V?$allocator@Unode@DataSet@@@std@@@std@@V?$allocator@V?$vector@Unode@DataSet@@V?$allocator@Unode@DataSet@@@std@@@std@@@2@@std@@@0@AEBV10@@Z
	??$forward@AEBV?$basic_string@DU?$char_traits@D@std@@V?$allocator@D@2@@std@@@std@@YAAEBV?$basic_string@DU?$char_traits@D@std@@V?$allocator@D@2@@0@AEBV10@@Z
	??$forward@AEBV?$vector@NV?$allocator@N@std@@@std@@@std@@YAAEBV?$vector@NV?$allocator@N@std@@@0@AEBV10@@Z
	??$forward@AEBV?$vector@Unode@DataSet@@V?$allocator@Unode@DataSet@@@std@@@std@@@std@@YAAEBV?$vector@Unode@DataSet@@V?$allocator@Unode@DataSet@@@std@@@0@AEBV10@@Z
	??$forward@AEBVCustomFormatSpecifier@el@@@std@@YAAEBVCustomFormatSpecifier@el@@AEBV12@@Z
	??$forward@AEBVLogFormat@base@el@@@std@@YAAEBVLogFormat@base@el@@AEBV123@@Z
	??$forward@AEBVSubsecondPrecision@base@el@@@std@@YAAEBVSubsecondPrecision@base@el@@AEBV123@@Z
	??$forward@AEB_K@std@@YAAEB_KAEB_K@Z
	??$forward@AEB_N@std@@YAAEB_NAEB_N@Z
	??$forward@G@std@@YA$$QEAGAEAG@Z
	??$forward@H@std@@YA$$QEAHAEAH@Z
	??$forward@M@std@@YA$$QEAMAEAM@Z
	??$forward@N@std@@YA$$QEANAEAN@Z
	??$forward@P6AXPEBD_K@Z@std@@YA$$QEAP6AXPEBD_K@ZAEAP6AX01@Z@Z
	??$forward@PEAH@std@@YA$$QEAPEAHAEAPEAH@Z
	??$forward@PEAN@std@@YA$$QEAPEANAEAPEAN@Z
	??$forward@PEAU?$_Tree_node@U?$pair@$$CBV?$basic_string@DU?$char_traits@D@std@@V?$allocator@D@2@@std@@G@std@@PEAX@std@@@std@@YA$$QEAPEAU?$_Tree_node@U?$pair@$$CBV?$basic_string@DU?$char_traits@D@std@@V?$allocator@D@2@@std@@G@std@@PEAX@0@AEAPEAU10@@Z
	??$forward@PEAU?$_Tree_node@U?$pair@$$CBV?$basic_string@DU?$char_traits@D@std@@V?$allocator@D@2@@std@@PEAVLogger@el@@@std@@PEAX@std@@@std@@YA$$QEAPEAU?$_Tree_node@U?$pair@$$CBV?$basic_string@DU?$char_traits@D@std@@V?$allocator@D@2@@std@@PEAVLogger@el@@@std@@PEAX@0@AEAPEAU10@@Z
	??$forward@PEAU?$_Tree_node@U?$pair@$$CBV?$basic_string@DU?$char_traits@D@std@@V?$allocator@D@2@@std@@V12@@std@@PEAX@std@@@std@@YA$$QEAPEAU?$_Tree_node@U?$pair@$$CBV?$basic_string@DU?$char_traits@D@std@@V?$allocator@D@2@@std@@V12@@std@@PEAX@0@AEAPEAU10@@Z
	??$forward@PEAU?$_Tree_node@U?$pair@$$CBV?$basic_string@DU?$char_traits@D@std@@V?$allocator@D@2@@std@@V?$shared_ptr@V?$basic_fstream@DU?$char_traits@D@std@@@std@@@2@@std@@PEAX@std@@@std@@YA$$QEAPEAU?$_Tree_node@U?$pair@$$CBV?$basic_string@DU?$char_traits@D@std@@V?$allocator@D@2@@std@@V?$shared_ptr@V?$basic_fstream@DU?$char_traits@D@std@@@std@@@2@@std@@PEAX@0@AEAPEAU10@@Z
	??$forward@PEAU?$_Tree_node@U?$pair@$$CBV?$basic_string@DU?$char_traits@D@std@@V?$allocator@D@2@@std@@V?$shared_ptr@VLogDispatchCallback@el@@@2@@std@@PEAX@std@@@std@@YA$$QEAPEAU?$_Tree_node@U?$pair@$$CBV?$basic_string@DU?$char_traits@D@std@@V?$allocator@D@2@@std@@V?$shared_ptr@VLogDispatchCallback@el@@@2@@std@@PEAX@0@AEAPEAU10@@Z
	??$forward@PEAU?$_Tree_node@U?$pair@$$CBW4Level@el@@I@std@@PEAX@std@@@std@@YA$$QEAPEAU?$_Tree_node@U?$pair@$$CBW4Level@el@@I@std@@PEAX@0@AEAPEAU10@@Z
	??$forward@PEAU?$_Tree_node@U?$pair@$$CBW4Level@el@@V?$basic_string@DU?$char_traits@D@std@@V?$allocator@D@2@@std@@@std@@PEAX@std@@@std@@YA$$QEAPEAU?$_Tree_node@U?$pair@$$CBW4Level@el@@V?$basic_string@DU?$char_traits@D@std@@V?$allocator@D@2@@std@@@std@@PEAX@0@AEAPEAU10@@Z
	??$forward@PEAU?$_Tree_node@U?$pair@$$CBW4Level@el@@V?$shared_ptr@V?$basic_fstream@DU?$char_traits@D@std@@@std@@@std@@@std@@PEAX@std@@@std@@YA$$QEAPEAU?$_Tree_node@U?$pair@$$CBW4Level@el@@V?$shared_ptr@V?$basic_fstream@DU?$char_traits@D@std@@@std@@@std@@@std@@PEAX@0@AEAPEAU10@@Z
	??$forward@PEAU?$_Tree_node@U?$pair@$$CBW4Level@el@@VLogFormat@base@2@@std@@PEAX@std@@@std@@YA$$QEAPEAU?$_Tree_node@U?$pair@$$CBW4Level@el@@VLogFormat@base@2@@std@@PEAX@0@AEAPEAU10@@Z
	??$forward@PEAU?$_Tree_node@U?$pair@$$CBW4Level@el@@VSubsecondPrecision@base@2@@std@@PEAX@std@@@std@@YA$$QEAPEAU?$_Tree_node@U?$pair@$$CBW4Level@el@@VSubsecondPrecision@base@2@@std@@PEAX@0@AEAPEAU10@@Z
	??$forward@PEAU?$_Tree_node@U?$pair@$$CBW4Level@el@@_K@std@@PEAX@std@@@std@@YA$$QEAPEAU?$_Tree_node@U?$pair@$$CBW4Level@el@@_K@std@@PEAX@0@AEAPEAU10@@Z
	??$forward@PEAU?$_Tree_node@U?$pair@$$CBW4Level@el@@_N@std@@PEAX@std@@@std@@YA$$QEAPEAU?$_Tree_node@U?$pair@$$CBW4Level@el@@_N@std@@PEAX@0@AEAPEAU10@@Z
	??$forward@PEAU_Container_base12@std@@@std@@YA$$QEAPEAU_Container_base12@0@AEAPEAU10@@Z
	??$forward@PEAUnode@DataSet@@@std@@YA$$QEAPEAUnode@DataSet@@AEAPEAU12@@Z
	??$forward@PEAV?$vector@Unode@DataSet@@V?$allocator@Unode@DataSet@@@std@@@std@@@std@@YA$$QEAPEAV?$vector@Unode@DataSet@@V?$allocator@Unode@DataSet@@@std@@@0@AEAPEAV10@@Z
	??$forward@PEAVConfiguration@el@@@std@@YA$$QEAPEAVConfiguration@el@@AEAPEAV12@@Z
	??$forward@PEAVCustomFormatSpecifier@el@@@std@@YA$$QEAPEAVCustomFormatSpecifier@el@@AEAPEAV12@@Z
	??$forward@PEAVHitCounter@base@el@@@std@@YA$$QEAPEAVHitCounter@base@el@@AEAPEAV123@@Z
	??$forward@PEAVLogger@el@@@std@@YA$$QEAPEAVLogger@el@@AEAPEAV12@@Z
	??$forward@PEBD@std@@YA$$QEAPEBDAEAPEBD@Z
	??$forward@PEBV?$basic_string@DU?$char_traits@D@std@@V?$allocator@D@2@@std@@@std@@YA$$QEAPEBV?$basic_string@DU?$char_traits@D@std@@V?$allocator@D@2@@0@AEAPEBV10@@Z
	??$forward@PEBVLogMessage@el@@@std@@YA$$QEAPEBVLogMessage@el@@AEAPEBV12@@Z
	??$forward@U?$pair@V?$basic_string@DU?$char_traits@D@std@@V?$allocator@D@2@@std@@G@std@@@std@@YA$$QEAU?$pair@V?$basic_string@DU?$char_traits@D@std@@V?$allocator@D@2@@std@@G@0@AEAU10@@Z
	??$forward@U?$pair@V?$basic_string@DU?$char_traits@D@std@@V?$allocator@D@2@@std@@PEAVLogger@el@@@std@@@std@@YA$$QEAU?$pair@V?$basic_string@DU?$char_traits@D@std@@V?$allocator@D@2@@std@@PEAVLogger@el@@@0@AEAU10@@Z
	??$forward@U?$pair@V?$basic_string@DU?$char_traits@D@std@@V?$allocator@D@2@@std@@V12@@std@@@std@@YA$$QEAU?$pair@V?$basic_string@DU?$char_traits@D@std@@V?$allocator@D@2@@std@@V12@@0@AEAU10@@Z
	??$forward@U?$pair@V?$basic_string@DU?$char_traits@D@std@@V?$allocator@D@2@@std@@V?$shared_ptr@V?$basic_fstream@DU?$char_traits@D@std@@@std@@@2@@std@@@std@@YA$$QEAU?$pair@V?$basic_string@DU?$char_traits@D@std@@V?$allocator@D@2@@std@@V?$shared_ptr@V?$basic_fstream@DU?$char_traits@D@std@@@std@@@2@@0@AEAU10@@Z
	??$forward@U?$pair@V?$basic_string@DU?$char_traits@D@std@@V?$allocator@D@2@@std@@V?$shared_ptr@VLogDispatchCallback@el@@@2@@std@@@std@@YA$$QEAU?$pair@V?$basic_string@DU?$char_traits@D@std@@V?$allocator@D@2@@std@@V?$shared_ptr@VLogDispatchCallback@el@@@2@@0@AEAU10@@Z
	??$forward@U?$pair@W4Level@el@@H@std@@@std@@YA$$QEAU?$pair@W4Level@el@@H@0@AEAU10@@Z
	??$forward@U?$pair@W4Level@el@@V?$basic_string@DU?$char_traits@D@std@@V?$allocator@D@2@@std@@@std@@@std@@YA$$QEAU?$pair@W4Level@el@@V?$basic_string@DU?$char_traits@D@std@@V?$allocator@D@2@@std@@@0@AEAU10@@Z
	??$forward@U?$pair@W4Level@el@@V?$shared_ptr@V?$basic_fstream@DU?$char_traits@D@std@@@std@@@std@@@std@@@std@@YA$$QEAU?$pair@W4Level@el@@V?$shared_ptr@V?$basic_fstream@DU?$char_traits@D@std@@@std@@@std@@@0@AEAU10@@Z
	??$forward@U?$pair@W4Level@el@@VLogFormat@base@2@@std@@@std@@YA$$QEAU?$pair@W4Level@el@@VLogFormat@base@2@@0@AEAU10@@Z
	??$forward@U?$pair@W4Level@el@@VSubsecondPrecision@base@2@@std@@@std@@YA$$QEAU?$pair@W4Level@el@@VSubsecondPrecision@base@2@@0@AEAU10@@Z
	??$forward@U?$pair@W4Level@el@@_K@std@@@std@@YA$$QEAU?$pair@W4Level@el@@_K@0@AEAU10@@Z
	??$forward@U?$pair@W4Level@el@@_N@std@@@std@@YA$$QEAU?$pair@W4Level@el@@_N@0@AEAU10@@Z
	??$forward@U_Zero_then_variadic_args_t@std@@@std@@YA$$QEAU_Zero_then_variadic_args_t@0@AEAU10@@Z
	??$forward@Unode@DataSet@@@std@@YA$$QEAUnode@DataSet@@AEAU12@@Z
	??$forward@V?$_Tree_iterator@V?$_Tree_val@U?$_Tree_simple_types@U?$pair@$$CBV?$basic_string@DU?$char_traits@D@std@@V?$allocator@D@2@@std@@G@std@@@std@@@std@@@std@@@std@@YA$$QEAV?$_Tree_iterator@V?$_Tree_val@U?$_Tree_simple_types@U?$pair@$$CBV?$basic_string@DU?$char_traits@D@std@@V?$allocator@D@2@@std@@G@std@@@std@@@std@@@0@AEAV10@@Z
	??$forward@V?$_Tree_iterator@V?$_Tree_val@U?$_Tree_simple_types@U?$pair@$$CBV?$basic_string@DU?$char_traits@D@std@@V?$allocator@D@2@@std@@PEAVLogger@el@@@std@@@std@@@std@@@std@@@std@@YA$$QEAV?$_Tree_iterator@V?$_Tree_val@U?$_Tree_simple_types@U?$pair@$$CBV?$basic_string@DU?$char_traits@D@std@@V?$allocator@D@2@@std@@PEAVLogger@el@@@std@@@std@@@std@@@0@AEAV10@@Z
	??$forward@V?$_Tree_iterator@V?$_Tree_val@U?$_Tree_simple_types@U?$pair@$$CBV?$basic_string@DU?$char_traits@D@std@@V?$allocator@D@2@@std@@V12@@std@@@std@@@std@@@std@@@std@@YA$$QEAV?$_Tree_iterator@V?$_Tree_val@U?$_Tree_simple_types@U?$pair@$$CBV?$basic_string@DU?$char_traits@D@std@@V?$allocator@D@2@@std@@V12@@std@@@std@@@std@@@0@AEAV10@@Z
	??$forward@V?$_Tree_iterator@V?$_Tree_val@U?$_Tree_simple_types@U?$pair@$$CBV?$basic_string@DU?$char_traits@D@std@@V?$allocator@D@2@@std@@V?$shared_ptr@V?$basic_fstream@DU?$char_traits@D@std@@@std@@@2@@std@@@std@@@std@@@std@@@std@@YA$$QEAV?$_Tree_iterator@V?$_Tree_val@U?$_Tree_simple_types@U?$pair@$$CBV?$basic_string@DU?$char_traits@D@std@@V?$allocator@D@2@@std@@V?$shared_ptr@V?$basic_fstream@DU?$char_traits@D@std@@@std@@@2@@std@@@std@@@std@@@0@AEAV10@@Z
	??$forward@V?$_Tree_iterator@V?$_Tree_val@U?$_Tree_simple_types@U?$pair@$$CBV?$basic_string@DU?$char_traits@D@std@@V?$allocator@D@2@@std@@V?$shared_ptr@VLogDispatchCallback@el@@@2@@std@@@std@@@std@@@std@@@std@@YA$$QEAV?$_Tree_iterator@V?$_Tree_val@U?$_Tree_simple_types@U?$pair@$$CBV?$basic_string@DU?$char_traits@D@std@@V?$allocator@D@2@@std@@V?$shared_ptr@VLogDispatchCallback@el@@@2@@std@@@std@@@std@@@0@AEAV10@@Z
	??$forward@V?$_Tree_iterator@V?$_Tree_val@U?$_Tree_simple_types@U?$pair@$$CBW4Level@el@@I@std@@@std@@@std@@@std@@@std@@YA$$QEAV?$_Tree_iterator@V?$_Tree_val@U?$_Tree_simple_types@U?$pair@$$CBW4Level@el@@I@std@@@std@@@std@@@0@AEAV10@@Z
	??$forward@V?$_Tree_iterator@V?$_Tree_val@U?$_Tree_simple_types@U?$pair@$$CBW4Level@el@@V?$basic_string@DU?$char_traits@D@std@@V?$allocator@D@2@@std@@@std@@@std@@@std@@@std@@@std@@YA$$QEAV?$_Tree_iterator@V?$_Tree_val@U?$_Tree_simple_types@U?$pair@$$CBW4Level@el@@V?$basic_string@DU?$char_traits@D@std@@V?$allocator@D@2@@std@@@std@@@std@@@std@@@0@AEAV10@@Z
	??$forward@V?$_Tree_iterator@V?$_Tree_val@U?$_Tree_simple_types@U?$pair@$$CBW4Level@el@@V?$shared_ptr@V?$basic_fstream@DU?$char_traits@D@std@@@std@@@std@@@std@@@std@@@std@@@std@@@std@@YA$$QEAV?$_Tree_iterator@V?$_Tree_val@U?$_Tree_simple_types@U?$pair@$$CBW4Level@el@@V?$shared_ptr@V?$basic_fstream@DU?$char_traits@D@std@@@std@@@std@@@std@@@std@@@std@@@0@AEAV10@@Z
	??$forward@V?$_Tree_iterator@V?$_Tree_val@U?$_Tree_simple_types@U?$pair@$$CBW4Level@el@@VLogFormat@base@2@@std@@@std@@@std@@@std@@@std@@YA$$QEAV?$_Tree_iterator@V?$_Tree_val@U?$_Tree_simple_types@U?$pair@$$CBW4Level@el@@VLogFormat@base@2@@std@@@std@@@std@@@0@AEAV10@@Z
	??$forward@V?$_Tree_iterator@V?$_Tree_val@U?$_Tree_simple_types@U?$pair@$$CBW4Level@el@@VSubsecondPrecision@base@2@@std@@@std@@@std@@@std@@@std@@YA$$QEAV?$_Tree_iterator@V?$_Tree_val@U?$_Tree_simple_types@U?$pair@$$CBW4Level@el@@VSubsecondPrecision@base@2@@std@@@std@@@std@@@0@AEAV10@@Z
	??$forward@V?$_Tree_iterator@V?$_Tree_val@U?$_Tree_simple_types@U?$pair@$$CBW4Level@el@@_K@std@@@std@@@std@@@std@@@std@@YA$$QEAV?$_Tree_iterator@V?$_Tree_val@U?$_Tree_simple_types@U?$pair@$$CBW4Level@el@@_K@std@@@std@@@std@@@0@AEAV10@@Z
	??$forward@V?$_Tree_iterator@V?$_Tree_val@U?$_Tree_simple_types@U?$pair@$$CBW4Level@el@@_N@std@@@std@@@std@@@std@@@std@@YA$$QEAV?$_Tree_iterator@V?$_Tree_val@U?$_Tree_simple_types@U?$pair@$$CBW4Level@el@@_N@std@@@std@@@std@@@0@AEAV10@@Z
	??$forward@V?$allocator@D@std@@@std@@YA$$QEAV?$allocator@D@0@AEAV10@@Z
	??$forward@V?$allocator@H@std@@@std@@YA$$QEAV?$allocator@H@0@AEAV10@@Z
	??$forward@V?$allocator@N@std@@@std@@YA$$QEAV?$allocator@N@0@AEAV10@@Z
	??$forward@V?$allocator@Unode@DataSet@@@std@@@std@@YA$$QEAV?$allocator@Unode@DataSet@@@0@AEAV10@@Z
	??$forward@V?$allocator@V?$vector@Unode@DataSet@@V?$allocator@Unode@DataSet@@@std@@@std@@@std@@@std@@YA$$QEAV?$allocator@V?$vector@Unode@DataSet@@V?$allocator@Unode@DataSet@@@std@@@std@@@0@AEAV10@@Z
	??$forward@V?$basic_string@DU?$char_traits@D@std@@V?$allocator@D@2@@std@@@std@@YA$$QEAV?$basic_string@DU?$char_traits@D@std@@V?$allocator@D@2@@0@AEAV10@@Z
	??$forward@V?$shared_ptr@V?$basic_fstream@DU?$char_traits@D@std@@@std@@@std@@@std@@YA$$QEAV?$shared_ptr@V?$basic_fstream@DU?$char_traits@D@std@@@std@@@0@AEAV10@@Z
	??$forward@V?$shared_ptr@VLogDispatchCallback@el@@@std@@@std@@YA$$QEAV?$shared_ptr@VLogDispatchCallback@el@@@0@AEAV10@@Z
	??$forward@V?$vector@Unode@DataSet@@V?$allocator@Unode@DataSet@@@std@@@std@@@std@@YA$$QEAV?$vector@Unode@DataSet@@V?$allocator@Unode@DataSet@@@std@@@0@AEAV10@@Z
	??$forward@VCustomFormatSpecifier@el@@@std@@YA$$QEAVCustomFormatSpecifier@el@@AEAV12@@Z
	??$forward@VLogFormat@base@el@@@std@@YA$$QEAVLogFormat@base@el@@AEAV123@@Z
	??$forward@VSubsecondPrecision@base@el@@@std@@YA$$QEAVSubsecondPrecision@base@el@@AEAV123@@Z
	??$forward@W4Level@el@@@std@@YA$$QEAW4Level@el@@AEAW412@@Z
	??$forward@_K@std@@YA$$QEA_KAEA_K@Z
	??$forward@_N@std@@YA$$QEA_NAEA_N@Z
	??$free@Upar_t@cuda_cub@thrust@@V?$pointer@EUpar_t@cuda_cub@thrust@@Uuse_default@3@U43@@3@@cuda_cub@thrust@@YAXAEAU?$execution_policy@Upar_t@cuda_cub@thrust@@@01@V?$pointer@EUpar_t@cuda_cub@thrust@@Uuse_default@3@U43@@1@@Z
	??$free@Upar_t@cuda_cub@thrust@@V?$pointer@EUpar_t@cuda_cub@thrust@@Uuse_default@3@U43@@3@@thrust@@YAXAEBU?$execution_policy_base@Upar_t@cuda_cub@thrust@@@detail@0@V?$pointer@EUpar_t@cuda_cub@thrust@@Uuse_default@3@U43@@0@@Z
	??$get@PEBDK@?$RegistryWithPred@VHitCounter@base@el@@VPredicate@123@@utils@base@el@@IEAAPEAVHitCounter@23@AEBQEBDK@Z
	??$get@W4Level@el@@W4ConfigurationType@2@@?$RegistryWithPred@VConfiguration@el@@VPredicate@12@@utils@base@el@@IEAAPEAVConfiguration@3@AEBW4Level@3@W4ConfigurationType@3@@Z
	??$getConfigByRef@V?$basic_string@DU?$char_traits@D@std@@V?$allocator@D@2@@std@@@TypedConfigurations@base@el@@AEAAAEAV?$basic_string@DU?$char_traits@D@std@@V?$allocator@D@2@@std@@W4Level@2@PEAV?$map@W4Level@el@@V?$basic_string@DU?$char_traits@D@std@@V?$allocator@D@2@@std@@U?$less@W4Level@el@@@4@V?$allocator@U?$pair@$$CBW4Level@el@@V?$basic_string@DU?$char_traits@D@std@@V?$allocator@D@2@@std@@@std@@@4@@4@PEBD@Z
	??$getConfigByRef@V?$shared_ptr@V?$basic_fstream@DU?$char_traits@D@std@@@std@@@std@@@TypedConfigurations@base@el@@AEAAAEAV?$shared_ptr@V?$basic_fstream@DU?$char_traits@D@std@@@std@@@std@@W4Level@2@PEAV?$map@W4Level@el@@V?$shared_ptr@V?$basic_fstream@DU?$char_traits@D@std@@@std@@@std@@U?$less@W4Level@el@@@4@V?$allocator@U?$pair@$$CBW4Level@el@@V?$shared_ptr@V?$basic_fstream@DU?$char_traits@D@std@@@std@@@std@@@std@@@4@@4@PEBD@Z
	??$getConfigByRef@VLogFormat@base@el@@@TypedConfigurations@base@el@@AEAAAEAVLogFormat@12@W4Level@2@PEAV?$map@W4Level@el@@VLogFormat@base@2@U?$less@W4Level@el@@@std@@V?$allocator@U?$pair@$$CBW4Level@el@@VLogFormat@base@2@@std@@@6@@std@@PEBD@Z
	??$getConfigByRef@VSubsecondPrecision@base@el@@@TypedConfigurations@base@el@@AEAAAEAVSubsecondPrecision@12@W4Level@2@PEAV?$map@W4Level@el@@VSubsecondPrecision@base@2@U?$less@W4Level@el@@@std@@V?$allocator@U?$pair@$$CBW4Level@el@@VSubsecondPrecision@base@2@@std@@@6@@std@@PEBD@Z
	??$getConfigByVal@_K@TypedConfigurations@base@el@@AEAA_KW4Level@2@PEBV?$map@W4Level@el@@_KU?$less@W4Level@el@@@std@@V?$allocator@U?$pair@$$CBW4Level@el@@_K@std@@@4@@std@@PEBD@Z
	??$getConfigByVal@_N@TypedConfigurations@base@el@@AEAA_NW4Level@2@PEBV?$map@W4Level@el@@_NU?$less@W4Level@el@@@std@@V?$allocator@U?$pair@$$CBW4Level@el@@_N@std@@@4@@std@@PEBD@Z
	??$get_agent_plan@U?$ParallelForAgent@U?$unary_transform_f@PEAHPEAHUno_stencil_tag@__transform@cuda_cub@thrust@@U?$identity@H@4@Ualways_true_predicate@234@@__transform@cuda_cub@thrust@@_J@__parallel_for@cuda_cub@thrust@@@core@cuda_cub@thrust@@YA?AUAgentPlan@012@H@Z
	??$get_agent_plan@U?$ParallelForAgent@U?$unary_transform_f@PEANPEANUno_stencil_tag@__transform@cuda_cub@thrust@@U?$identity@N@4@Ualways_true_predicate@234@@__transform@cuda_cub@thrust@@_J@__parallel_for@cuda_cub@thrust@@@core@cuda_cub@thrust@@YA?AUAgentPlan@012@H@Z
	??$get_stream@Upar_t@cuda_cub@thrust@@@cuda_cub@thrust@@YAPEAUCUstream_st@@AEAU?$execution_policy@Upar_t@cuda_cub@thrust@@@01@@Z
	??$get_temporary_buffer@EUpar_t@cuda_cub@thrust@@@generic@detail@system@thrust@@YA?AU?$pair@V?$pointer@EUpar_t@cuda_cub@thrust@@Uuse_default@3@U43@@thrust@@_J@3@AEAU?$execution_policy@Upar_t@cuda_cub@thrust@@@3@_J@Z
	??$get_temporary_buffer@EUpar_t@cuda_cub@thrust@@@thrust@@YA?AU?$pair@V?$pointer@EUpar_t@cuda_cub@thrust@@Uuse_default@3@U43@@thrust@@_J@0@AEBU?$execution_policy_base@Upar_t@cuda_cub@thrust@@@detail@0@_J@Z
	??$getline@DU?$char_traits@D@std@@V?$allocator@D@2@@std@@YAAEAV?$basic_istream@DU?$char_traits@D@std@@@0@$$QEAV10@AEAV?$basic_string@DU?$char_traits@D@std@@V?$allocator@D@2@@0@D@Z
	??$getline@DU?$char_traits@D@std@@V?$allocator@D@2@@std@@YAAEAV?$basic_istream@DU?$char_traits@D@std@@@0@AEAV10@AEAV?$basic_string@DU?$char_traits@D@std@@V?$allocator@D@2@@0@@Z
	??$insert@U?$pair@V?$basic_string@DU?$char_traits@D@std@@V?$allocator@D@2@@std@@G@std@@$0A@@?$map@V?$basic_string@DU?$char_traits@D@std@@V?$allocator@D@2@@std@@GU?$less@V?$basic_string@DU?$char_traits@D@std@@V?$allocator@D@2@@std@@@2@V?$allocator@U?$pair@$$CBV?$basic_string@DU?$char_traits@D@std@@V?$allocator@D@2@@std@@G@std@@@2@@std@@QEAA?AU?$pair@V?$_Tree_iterator@V?$_Tree_val@U?$_Tree_simple_types@U?$pair@$$CBV?$basic_string@DU?$char_traits@D@std@@V?$allocator@D@2@@std@@G@std@@@std@@@std@@@std@@_N@1@$$QEAU?$pair@V?$basic_string@DU?$char_traits@D@std@@V?$allocator@D@2@@std@@G@1@@Z
	??$insert@U?$pair@V?$basic_string@DU?$char_traits@D@std@@V?$allocator@D@2@@std@@PEAVLogger@el@@@std@@$0A@@?$map@V?$basic_string@DU?$char_traits@D@std@@V?$allocator@D@2@@std@@PEAVLogger@el@@U?$less@V?$basic_string@DU?$char_traits@D@std@@V?$allocator@D@2@@std@@@2@V?$allocator@U?$pair@$$CBV?$basic_string@DU?$char_traits@D@std@@V?$allocator@D@2@@std@@PEAVLogger@el@@@std@@@2@@std@@QEAA?AU?$pair@V?$_Tree_iterator@V?$_Tree_val@U?$_Tree_simple_types@U?$pair@$$CBV?$basic_string@DU?$char_traits@D@std@@V?$allocator@D@2@@std@@PEAVLogger@el@@@std@@@std@@@std@@@std@@_N@1@$$QEAU?$pair@V?$basic_string@DU?$char_traits@D@std@@V?$allocator@D@2@@std@@PEAVLogger@el@@@1@@Z
	??$insert@U?$pair@V?$basic_string@DU?$char_traits@D@std@@V?$allocator@D@2@@std@@V12@@std@@$0A@@?$map@V?$basic_string@DU?$char_traits@D@std@@V?$allocator@D@2@@std@@V12@U?$less@V?$basic_string@DU?$char_traits@D@std@@V?$allocator@D@2@@std@@@2@V?$allocator@U?$pair@$$CBV?$basic_string@DU?$char_traits@D@std@@V?$allocator@D@2@@std@@V12@@std@@@2@@std@@QEAA?AU?$pair@V?$_Tree_iterator@V?$_Tree_val@U?$_Tree_simple_types@U?$pair@$$CBV?$basic_string@DU?$char_traits@D@std@@V?$allocator@D@2@@std@@V12@@std@@@std@@@std@@@std@@_N@1@$$QEAU?$pair@V?$basic_string@DU?$char_traits@D@std@@V?$allocator@D@2@@std@@V12@@1@@Z
	??$insert@U?$pair@V?$basic_string@DU?$char_traits@D@std@@V?$allocator@D@2@@std@@V?$shared_ptr@V?$basic_fstream@DU?$char_traits@D@std@@@std@@@2@@std@@$0A@@?$map@V?$basic_string@DU?$char_traits@D@std@@V?$allocator@D@2@@std@@V?$shared_ptr@V?$basic_fstream@DU?$char_traits@D@std@@@std@@@2@U?$less@V?$basic_string@DU?$char_traits@D@std@@V?$allocator@D@2@@std@@@2@V?$allocator@U?$pair@$$CBV?$basic_string@DU?$char_traits@D@std@@V?$allocator@D@2@@std@@V?$shared_ptr@V?$basic_fstream@DU?$char_traits@D@std@@@std@@@2@@std@@@2@@std@@QEAA?AU?$pair@V?$_Tree_iterator@V?$_Tree_val@U?$_Tree_simple_types@U?$pair@$$CBV?$basic_string@DU?$char_traits@D@std@@V?$allocator@D@2@@std@@V?$shared_ptr@V?$basic_fstream@DU?$char_traits@D@std@@@std@@@2@@std@@@std@@@std@@@std@@_N@1@$$QEAU?$pair@V?$basic_string@DU?$char_traits@D@std@@V?$allocator@D@2@@std@@V?$shared_ptr@V?$basic_fstream@DU?$char_traits@D@std@@@std@@@2@@1@@Z
	??$insert@U?$pair@V?$basic_string@DU?$char_traits@D@std@@V?$allocator@D@2@@std@@V?$shared_ptr@VLogDispatchCallback@el@@@2@@std@@$0A@@?$map@V?$basic_string@DU?$char_traits@D@std@@V?$allocator@D@2@@std@@V?$shared_ptr@VLogDispatchCallback@el@@@2@U?$less@V?$basic_string@DU?$char_traits@D@std@@V?$allocator@D@2@@std@@@2@V?$allocator@U?$pair@$$CBV?$basic_string@DU?$char_traits@D@std@@V?$allocator@D@2@@std@@V?$shared_ptr@VLogDispatchCallback@el@@@2@@std@@@2@@std@@QEAA?AU?$pair@V?$_Tree_iterator@V?$_Tree_val@U?$_Tree_simple_types@U?$pair@$$CBV?$basic_string@DU?$char_traits@D@std@@V?$allocator@D@2@@std@@V?$shared_ptr@VLogDispatchCallback@el@@@2@@std@@@std@@@std@@@std@@_N@1@$$QEAU?$pair@V?$basic_string@DU?$char_traits@D@std@@V?$allocator@D@2@@std@@V?$shared_ptr@VLogDispatchCallback@el@@@2@@1@@Z
	??$insert@U?$pair@W4Level@el@@H@std@@$0A@@?$map@W4Level@el@@IU?$less@W4Level@el@@@std@@V?$allocator@U?$pair@$$CBW4Level@el@@I@std@@@4@@std@@QEAA?AU?$pair@V?$_Tree_iterator@V?$_Tree_val@U?$_Tree_simple_types@U?$pair@$$CBW4Level@el@@I@std@@@std@@@std@@@std@@_N@1@$$QEAU?$pair@W4Level@el@@H@1@@Z
	??$insert@U?$pair@W4Level@el@@V?$basic_string@DU?$char_traits@D@std@@V?$allocator@D@2@@std@@@std@@$0A@@?$map@W4Level@el@@V?$basic_string@DU?$char_traits@D@std@@V?$allocator@D@2@@std@@U?$less@W4Level@el@@@4@V?$allocator@U?$pair@$$CBW4Level@el@@V?$basic_string@DU?$char_traits@D@std@@V?$allocator@D@2@@std@@@std@@@4@@std@@QEAA?AU?$pair@V?$_Tree_iterator@V?$_Tree_val@U?$_Tree_simple_types@U?$pair@$$CBW4Level@el@@V?$basic_string@DU?$char_traits@D@std@@V?$allocator@D@2@@std@@@std@@@std@@@std@@@std@@_N@1@$$QEAU?$pair@W4Level@el@@V?$basic_string@DU?$char_traits@D@std@@V?$allocator@D@2@@std@@@1@@Z
	??$insert@U?$pair@W4Level@el@@V?$shared_ptr@V?$basic_fstream@DU?$char_traits@D@std@@@std@@@std@@@std@@$0A@@?$map@W4Level@el@@V?$shared_ptr@V?$basic_fstream@DU?$char_traits@D@std@@@std@@@std@@U?$less@W4Level@el@@@4@V?$allocator@U?$pair@$$CBW4Level@el@@V?$shared_ptr@V?$basic_fstream@DU?$char_traits@D@std@@@std@@@std@@@std@@@4@@std@@QEAA?AU?$pair@V?$_Tree_iterator@V?$_Tree_val@U?$_Tree_simple_types@U?$pair@$$CBW4Level@el@@V?$shared_ptr@V?$basic_fstream@DU?$char_traits@D@std@@@std@@@std@@@std@@@std@@@std@@@std@@_N@1@$$QEAU?$pair@W4Level@el@@V?$shared_ptr@V?$basic_fstream@DU?$char_traits@D@std@@@std@@@std@@@1@@Z
	??$insert@U?$pair@W4Level@el@@VLogFormat@base@2@@std@@$0A@@?$map@W4Level@el@@VLogFormat@base@2@U?$less@W4Level@el@@@std@@V?$allocator@U?$pair@$$CBW4Level@el@@VLogFormat@base@2@@std@@@6@@std@@QEAA?AU?$pair@V?$_Tree_iterator@V?$_Tree_val@U?$_Tree_simple_types@U?$pair@$$CBW4Level@el@@VLogFormat@base@2@@std@@@std@@@std@@@std@@_N@1@$$QEAU?$pair@W4Level@el@@VLogFormat@base@2@@1@@Z
	??$insert@U?$pair@W4Level@el@@VSubsecondPrecision@base@2@@std@@$0A@@?$map@W4Level@el@@VSubsecondPrecision@base@2@U?$less@W4Level@el@@@std@@V?$allocator@U?$pair@$$CBW4Level@el@@VSubsecondPrecision@base@2@@std@@@6@@std@@QEAA?AU?$pair@V?$_Tree_iterator@V?$_Tree_val@U?$_Tree_simple_types@U?$pair@$$CBW4Level@el@@VSubsecondPrecision@base@2@@std@@@std@@@std@@@std@@_N@1@$$QEAU?$pair@W4Level@el@@VSubsecondPrecision@base@2@@1@@Z
	??$insert@U?$pair@W4Level@el@@_K@std@@$0A@@?$map@W4Level@el@@_KU?$less@W4Level@el@@@std@@V?$allocator@U?$pair@$$CBW4Level@el@@_K@std@@@4@@std@@QEAA?AU?$pair@V?$_Tree_iterator@V?$_Tree_val@U?$_Tree_simple_types@U?$pair@$$CBW4Level@el@@_K@std@@@std@@@std@@@std@@_N@1@$$QEAU?$pair@W4Level@el@@_K@1@@Z
	??$insert@U?$pair@W4Level@el@@_N@std@@$0A@@?$map@W4Level@el@@_NU?$less@W4Level@el@@@std@@V?$allocator@U?$pair@$$CBW4Level@el@@_N@std@@@4@@std@@QEAA?AU?$pair@V?$_Tree_iterator@V?$_Tree_val@U?$_Tree_simple_types@U?$pair@$$CBW4Level@el@@_N@std@@@std@@@std@@@std@@_N@1@$$QEAU?$pair@W4Level@el@@_N@1@@Z
	??$insert@V?$_Vector_const_iterator@V?$_Vector_val@U?$_Simple_types@V?$vector@Unode@DataSet@@V?$allocator@Unode@DataSet@@@std@@@std@@@std@@@std@@@std@@$0A@@?$vector@V?$vector@Unode@DataSet@@V?$allocator@Unode@DataSet@@@std@@@std@@V?$allocator@V?$vector@Unode@DataSet@@V?$allocator@Unode@DataSet@@@std@@@std@@@2@@std@@QEAA?AV?$_Vector_iterator@V?$_Vector_val@U?$_Simple_types@V?$vector@Unode@DataSet@@V?$allocator@Unode@DataSet@@@std@@@std@@@std@@@std@@@1@V?$_Vector_const_iterator@V?$_Vector_val@U?$_Simple_types@V?$vector@Unode@DataSet@@V?$allocator@Unode@DataSet@@@std@@@std@@@std@@@std@@@1@00@Z
	??$insert@V?$_Vector_iterator@V?$_Vector_val@U?$_Simple_types@H@std@@@std@@@std@@$0A@@?$vector@HV?$allocator@H@std@@@std@@QEAA?AV?$_Vector_iterator@V?$_Vector_val@U?$_Simple_types@H@std@@@std@@@1@V?$_Vector_const_iterator@V?$_Vector_val@U?$_Simple_types@H@std@@@std@@@1@V21@1@Z
	??$insert@V?$_Vector_iterator@V?$_Vector_val@U?$_Simple_types@N@std@@@std@@@std@@$0A@@?$vector@MV?$allocator@M@std@@@std@@QEAA?AV?$_Vector_iterator@V?$_Vector_val@U?$_Simple_types@M@std@@@std@@@1@V?$_Vector_const_iterator@V?$_Vector_val@U?$_Simple_types@M@std@@@std@@@1@V?$_Vector_iterator@V?$_Vector_val@U?$_Simple_types@N@std@@@std@@@1@1@Z
	??$insert@V?$_Vector_iterator@V?$_Vector_val@U?$_Simple_types@N@std@@@std@@@std@@$0A@@?$vector@NV?$allocator@N@std@@@std@@QEAA?AV?$_Vector_iterator@V?$_Vector_val@U?$_Simple_types@N@std@@@std@@@1@V?$_Vector_const_iterator@V?$_Vector_val@U?$_Simple_types@N@std@@@std@@@1@V21@1@Z
	??$insert@V?$_Vector_iterator@V?$_Vector_val@U?$_Simple_types@V?$vector@Unode@DataSet@@V?$allocator@Unode@DataSet@@@std@@@std@@@std@@@std@@@std@@$0A@@?$vector@V?$vector@Unode@DataSet@@V?$allocator@Unode@DataSet@@@std@@@std@@V?$allocator@V?$vector@Unode@DataSet@@V?$allocator@Unode@DataSet@@@std@@@std@@@2@@std@@QEAA?AV?$_Vector_iterator@V?$_Vector_val@U?$_Simple_types@V?$vector@Unode@DataSet@@V?$allocator@Unode@DataSet@@@std@@@std@@@std@@@std@@@1@V?$_Vector_const_iterator@V?$_Vector_val@U?$_Simple_types@V?$vector@Unode@DataSet@@V?$allocator@Unode@DataSet@@@std@@@std@@@std@@@std@@@1@V21@1@Z
	??$installCallback@VDefaultLogDispatchCallback@base@el@@V?$shared_ptr@VLogDispatchCallback@el@@@std@@@Utils@utils@base@el@@SA_NAEBV?$basic_string@DU?$char_traits@D@std@@V?$allocator@D@2@@std@@PEAV?$map@V?$basic_string@DU?$char_traits@D@std@@V?$allocator@D@2@@std@@V?$shared_ptr@VLogDispatchCallback@el@@@2@U?$less@V?$basic_string@DU?$char_traits@D@std@@V?$allocator@D@2@@std@@@2@V?$allocator@U?$pair@$$CBV?$basic_string@DU?$char_traits@D@std@@V?$allocator@D@2@@std@@V?$shared_ptr@VLogDispatchCallback@el@@@2@@std@@@2@@5@@Z
	??$installLogDispatchCallback@VDefaultLogDispatchCallback@base@el@@@Storage@base@el@@QEAA_NAEBV?$basic_string@DU?$char_traits@D@std@@V?$allocator@D@2@@std@@@Z
	??$invoke@AEAP6AXPEBD_K@ZPEBD_K@std@@YAXAEAP6AXPEBD_K@Z$$QEAPEBD$$QEA_K@Z
	??$launch@U?$unary_transform_f@PEAHPEAHUno_stencil_tag@__transform@cuda_cub@thrust@@U?$identity@H@4@Ualways_true_predicate@234@@__transform@cuda_cub@thrust@@_J@?$AgentLauncher@U?$ParallelForAgent@U?$unary_transform_f@PEAHPEAHUno_stencil_tag@__transform@cuda_cub@thrust@@U?$identity@H@4@Ualways_true_predicate@234@@__transform@cuda_cub@thrust@@_J@__parallel_for@cuda_cub@thrust@@@core@cuda_cub@thrust@@QEBAXU?$unary_transform_f@PEAHPEAHUno_stencil_tag@__transform@cuda_cub@thrust@@U?$identity@H@4@Ualways_true_predicate@234@@__transform@23@_J@Z
	??$launch@U?$unary_transform_f@PEANPEANUno_stencil_tag@__transform@cuda_cub@thrust@@U?$identity@N@4@Ualways_true_predicate@234@@__transform@cuda_cub@thrust@@_J@?$AgentLauncher@U?$ParallelForAgent@U?$unary_transform_f@PEANPEANUno_stencil_tag@__transform@cuda_cub@thrust@@U?$identity@N@4@Ualways_true_predicate@234@@__transform@cuda_cub@thrust@@_J@__parallel_for@cuda_cub@thrust@@@core@cuda_cub@thrust@@QEBAXU?$unary_transform_f@PEANPEANUno_stencil_tag@__transform@cuda_cub@thrust@@U?$identity@N@4@Ualways_true_predicate@234@@__transform@23@_J@Z
	??$launch_impl@U?$unary_transform_f@PEAHPEAHUno_stencil_tag@__transform@cuda_cub@thrust@@U?$identity@H@4@Ualways_true_predicate@234@@__transform@cuda_cub@thrust@@_J@?$AgentLauncher@U?$ParallelForAgent@U?$unary_transform_f@PEAHPEAHUno_stencil_tag@__transform@cuda_cub@thrust@@U?$identity@H@4@Ualways_true_predicate@234@@__transform@cuda_cub@thrust@@_J@__parallel_for@cuda_cub@thrust@@@core@cuda_cub@thrust@@QEBAXU?$integral_constant@_N$00@detail@3@U?$unary_transform_f@PEAHPEAHUno_stencil_tag@__transform@cuda_cub@thrust@@U?$identity@H@4@Ualways_true_predicate@234@@__transform@23@_J@Z
	??$launch_impl@U?$unary_transform_f@PEANPEANUno_stencil_tag@__transform@cuda_cub@thrust@@U?$identity@N@4@Ualways_true_predicate@234@@__transform@cuda_cub@thrust@@_J@?$AgentLauncher@U?$ParallelForAgent@U?$unary_transform_f@PEANPEANUno_stencil_tag@__transform@cuda_cub@thrust@@U?$identity@N@4@Ualways_true_predicate@234@@__transform@cuda_cub@thrust@@_J@__parallel_for@cuda_cub@thrust@@@core@cuda_cub@thrust@@QEBAXU?$integral_constant@_N$00@detail@3@U?$unary_transform_f@PEANPEANUno_stencil_tag@__transform@cuda_cub@thrust@@U?$identity@N@4@Ualways_true_predicate@234@@__transform@23@_J@Z
	??$make_pair@AEAV?$basic_string@DU?$char_traits@D@std@@V?$allocator@D@2@@std@@V12@@std@@YA?AU?$pair@V?$basic_string@DU?$char_traits@D@std@@V?$allocator@D@2@@std@@V12@@0@AEAV?$basic_string@DU?$char_traits@D@std@@V?$allocator@D@2@@0@$$QEAV20@@Z
	??$make_pair@AEAV?$basic_string@DU?$char_traits@D@std@@V?$allocator@D@2@@std@@V?$shared_ptr@V?$basic_fstream@DU?$char_traits@D@std@@@std@@@2@@std@@YA?AU?$pair@V?$basic_string@DU?$char_traits@D@std@@V?$allocator@D@2@@std@@V?$shared_ptr@V?$basic_fstream@DU?$char_traits@D@std@@@std@@@2@@0@AEAV?$basic_string@DU?$char_traits@D@std@@V?$allocator@D@2@@0@$$QEAV?$shared_ptr@V?$basic_fstream@DU?$char_traits@D@std@@@std@@@0@@Z
	??$make_pair@AEAW4Level@el@@AEAV?$basic_string@DU?$char_traits@D@std@@V?$allocator@D@2@@std@@@std@@YA?AU?$pair@W4Level@el@@V?$basic_string@DU?$char_traits@D@std@@V?$allocator@D@2@@std@@@0@AEAW4Level@el@@AEAV?$basic_string@DU?$char_traits@D@std@@V?$allocator@D@2@@0@@Z
	??$make_pair@AEAW4Level@el@@AEBV?$basic_string@DU?$char_traits@D@std@@V?$allocator@D@2@@std@@@std@@YA?AU?$pair@W4Level@el@@V?$basic_string@DU?$char_traits@D@std@@V?$allocator@D@2@@std@@@0@AEAW4Level@el@@AEBV?$basic_string@DU?$char_traits@D@std@@V?$allocator@D@2@@0@@Z
	??$make_pair@AEAW4Level@el@@AEBVLogFormat@base@2@@std@@YA?AU?$pair@W4Level@el@@VLogFormat@base@2@@0@AEAW4Level@el@@AEBVLogFormat@base@3@@Z
	??$make_pair@AEAW4Level@el@@AEBVSubsecondPrecision@base@2@@std@@YA?AU?$pair@W4Level@el@@VSubsecondPrecision@base@2@@0@AEAW4Level@el@@AEBVSubsecondPrecision@base@3@@Z
	??$make_pair@AEAW4Level@el@@AEB_K@std@@YA?AU?$pair@W4Level@el@@_K@0@AEAW4Level@el@@AEB_K@Z
	??$make_pair@AEAW4Level@el@@AEB_N@std@@YA?AU?$pair@W4Level@el@@_N@0@AEAW4Level@el@@AEB_N@Z
	??$make_pair@AEAW4Level@el@@V?$shared_ptr@V?$basic_fstream@DU?$char_traits@D@std@@@std@@@std@@@std@@YA?AU?$pair@W4Level@el@@V?$shared_ptr@V?$basic_fstream@DU?$char_traits@D@std@@@std@@@std@@@0@AEAW4Level@el@@$$QEAV?$shared_ptr@V?$basic_fstream@DU?$char_traits@D@std@@@std@@@0@@Z
	??$make_pair@AEBV?$basic_string@DU?$char_traits@D@std@@V?$allocator@D@2@@std@@AEAPEAVLogger@el@@@std@@YA?AU?$pair@V?$basic_string@DU?$char_traits@D@std@@V?$allocator@D@2@@std@@PEAVLogger@el@@@0@AEBV?$basic_string@DU?$char_traits@D@std@@V?$allocator@D@2@@0@AEAPEAVLogger@el@@@Z
	??$make_pair@AEBV?$basic_string@DU?$char_traits@D@std@@V?$allocator@D@2@@std@@V?$shared_ptr@VLogDispatchCallback@el@@@2@@std@@YA?AU?$pair@V?$basic_string@DU?$char_traits@D@std@@V?$allocator@D@2@@std@@V?$shared_ptr@VLogDispatchCallback@el@@@2@@0@AEBV?$basic_string@DU?$char_traits@D@std@@V?$allocator@D@2@@0@$$QEAV?$shared_ptr@VLogDispatchCallback@el@@@0@@Z
	??$make_pair@V?$basic_string@DU?$char_traits@D@std@@V?$allocator@D@2@@std@@AEAG@std@@YA?AU?$pair@V?$basic_string@DU?$char_traits@D@std@@V?$allocator@D@2@@std@@G@0@$$QEAV?$basic_string@DU?$char_traits@D@std@@V?$allocator@D@2@@0@AEAG@Z
	??$make_pair@V?$pointer@EUpar_t@cuda_cub@thrust@@Uuse_default@3@U43@@thrust@@_J@thrust@@YA?AU?$pair@V?$pointer@EUpar_t@cuda_cub@thrust@@Uuse_default@3@U43@@thrust@@_J@0@V?$pointer@EUpar_t@cuda_cub@thrust@@Uuse_default@3@U43@@0@_J@Z
	??$make_pair@W4Level@el@@AEBVLogFormat@base@2@@std@@YA?AU?$pair@W4Level@el@@VLogFormat@base@2@@0@$$QEAW4Level@el@@AEBVLogFormat@base@3@@Z
	??$make_pair@W4Level@el@@AEBVSubsecondPrecision@base@2@@std@@YA?AU?$pair@W4Level@el@@VSubsecondPrecision@base@2@@0@$$QEAW4Level@el@@AEBVSubsecondPrecision@base@3@@Z
	??$make_pair@W4Level@el@@AEB_K@std@@YA?AU?$pair@W4Level@el@@_K@0@$$QEAW4Level@el@@AEB_K@Z
	??$make_pair@W4Level@el@@AEB_N@std@@YA?AU?$pair@W4Level@el@@_N@0@$$QEAW4Level@el@@AEB_N@Z
	??$make_pair@W4Level@el@@H@std@@YA?AU?$pair@W4Level@el@@H@0@$$QEAW4Level@el@@$$QEAH@Z
	??$malloc@EUpar_t@cuda_cub@thrust@@@generic@detail@system@thrust@@YA?AV?$pointer@EUpar_t@cuda_cub@thrust@@Uuse_default@3@U43@@3@AEAU?$execution_policy@Upar_t@cuda_cub@thrust@@@3@_K@Z
	??$malloc@EUpar_t@cuda_cub@thrust@@@thrust@@YA?AV?$pointer@EUpar_t@cuda_cub@thrust@@Uuse_default@3@U43@@0@AEBU?$execution_policy_base@Upar_t@cuda_cub@thrust@@@detail@0@_K@Z
	??$malloc@Upar_t@cuda_cub@thrust@@@cuda_cub@thrust@@YAPEAXAEAU?$execution_policy@Upar_t@cuda_cub@thrust@@@01@_K@Z
	??$malloc@Upar_t@cuda_cub@thrust@@@thrust@@YA?AV?$pointer@XUpar_t@cuda_cub@thrust@@Uuse_default@3@U43@@0@AEBU?$execution_policy_base@Upar_t@cuda_cub@thrust@@@detail@0@_K@Z
	??$max2power@H@@YAHH@Z
	??$max2power@_K@@YA_K_K@Z
	??$max@PEAD@std@@YAAEBQEADAEBQEAD0@Z
	??$max@_K@std@@YAAEB_KAEB_K0@Z
	??$max_blocks_per_sm_impl@P6AXU?$unary_transform_f@PEAHPEAHUno_stencil_tag@__transform@cuda_cub@thrust@@U?$identity@H@4@Ualways_true_predicate@234@@__transform@cuda_cub@thrust@@_J@Z@?$AgentLauncher@U?$ParallelForAgent@U?$unary_transform_f@PEAHPEAHUno_stencil_tag@__transform@cuda_cub@thrust@@U?$identity@H@4@Ualways_true_predicate@234@@__transform@cuda_cub@thrust@@_J@__parallel_for@cuda_cub@thrust@@@core@cuda_cub@thrust@@SA?AV?$cuda_optional@H@123@P6AXU?$unary_transform_f@PEAHPEAHUno_stencil_tag@__transform@cuda_cub@thrust@@U?$identity@H@4@Ualways_true_predicate@234@@__transform@23@_J@ZH@Z
	??$max_blocks_per_sm_impl@P6AXU?$unary_transform_f@PEANPEANUno_stencil_tag@__transform@cuda_cub@thrust@@U?$identity@N@4@Ualways_true_predicate@234@@__transform@cuda_cub@thrust@@_J@Z@?$AgentLauncher@U?$ParallelForAgent@U?$unary_transform_f@PEANPEANUno_stencil_tag@__transform@cuda_cub@thrust@@U?$identity@N@4@Ualways_true_predicate@234@@__transform@cuda_cub@thrust@@_J@__parallel_for@cuda_cub@thrust@@@core@cuda_cub@thrust@@SA?AV?$cuda_optional@H@123@P6AXU?$unary_transform_f@PEANPEANUno_stencil_tag@__transform@cuda_cub@thrust@@U?$identity@N@4@Ualways_true_predicate@234@@__transform@23@_J@ZH@Z
	??$max_sm_occupancy@P6AXU?$unary_transform_f@PEAHPEAHUno_stencil_tag@__transform@cuda_cub@thrust@@U?$identity@H@4@Ualways_true_predicate@234@@__transform@cuda_cub@thrust@@_J@Z@?$AgentLauncher@U?$ParallelForAgent@U?$unary_transform_f@PEAHPEAHUno_stencil_tag@__transform@cuda_cub@thrust@@U?$identity@H@4@Ualways_true_predicate@234@@__transform@cuda_cub@thrust@@_J@__parallel_for@cuda_cub@thrust@@@core@cuda_cub@thrust@@QEBA?AV?$cuda_optional@H@123@P6AXU?$unary_transform_f@PEAHPEAHUno_stencil_tag@__transform@cuda_cub@thrust@@U?$identity@H@4@Ualways_true_predicate@234@@__transform@23@_J@Z@Z
	??$max_sm_occupancy@P6AXU?$unary_transform_f@PEANPEANUno_stencil_tag@__transform@cuda_cub@thrust@@U?$identity@N@4@Ualways_true_predicate@234@@__transform@cuda_cub@thrust@@_J@Z@?$AgentLauncher@U?$ParallelForAgent@U?$unary_transform_f@PEANPEANUno_stencil_tag@__transform@cuda_cub@thrust@@U?$identity@N@4@Ualways_true_predicate@234@@__transform@cuda_cub@thrust@@_J@__parallel_for@cuda_cub@thrust@@@core@cuda_cub@thrust@@QEBA?AV?$cuda_optional@H@123@P6AXU?$unary_transform_f@PEANPEANUno_stencil_tag@__transform@cuda_cub@thrust@@U?$identity@N@4@Ualways_true_predicate@234@@__transform@23@_J@Z@Z
	??$min@_K@std@@YAAEB_KAEB_K0@Z
	??$move@AEAD@std@@YA$$QEADAEAD@Z
	??$move@AEAH@std@@YA$$QEAHAEAH@Z
	??$move@AEAI@std@@YA$$QEAIAEAI@Z
	??$move@AEAM@std@@YA$$QEAMAEAM@Z
	??$move@AEAN@std@@YA$$QEANAEAN@Z
	??$move@AEAP6AXPEBD_K@Z@std@@YA$$QEAP6AXPEBD_K@ZAEAP6AX01@Z@Z
	??$move@AEAPEAD@std@@YA$$QEAPEADAEAPEAD@Z
	??$move@AEAPEAVConfiguration@el@@@std@@YA$$QEAPEAVConfiguration@el@@AEAPEAV12@@Z
	??$move@AEAPEAVHitCounter@base@el@@@std@@YA$$QEAPEAVHitCounter@base@el@@AEAPEAV123@@Z
	??$move@AEAPEAVLogBuilder@el@@@std@@YA$$QEAPEAVLogBuilder@el@@AEAPEAV12@@Z
	??$move@AEAPEAV_Ref_count_base@std@@@std@@YA$$QEAPEAV_Ref_count_base@0@AEAPEAV10@@Z
	??$move@AEAUnode@DataSet@@@std@@YA$$QEAUnode@DataSet@@AEAU12@@Z
	??$move@AEAV?$_String_iterator@V?$_String_val@U?$_Simple_types@D@std@@@std@@@std@@@std@@YA$$QEAV?$_String_iterator@V?$_String_val@U?$_Simple_types@D@std@@@std@@@0@AEAV10@@Z
	??$move@AEAV?$allocator@D@std@@@std@@YA$$QEAV?$allocator@D@0@AEAV10@@Z
	??$move@AEAV?$allocator@H@std@@@std@@YA$$QEAV?$allocator@H@0@AEAV10@@Z
	??$move@AEAV?$allocator@N@std@@@std@@YA$$QEAV?$allocator@N@0@AEAV10@@Z
	??$move@AEAV?$allocator@Unode@DataSet@@@std@@@std@@YA$$QEAV?$allocator@Unode@DataSet@@@0@AEAV10@@Z
	??$move@AEAV?$allocator@V?$vector@Unode@DataSet@@V?$allocator@Unode@DataSet@@@std@@@std@@@std@@@std@@YA$$QEAV?$allocator@V?$vector@Unode@DataSet@@V?$allocator@Unode@DataSet@@@std@@@std@@@0@AEAV10@@Z
	??$move@AEAV?$basic_istream@DU?$char_traits@D@std@@@std@@@std@@YA$$QEAV?$basic_istream@DU?$char_traits@D@std@@@0@AEAV10@@Z
	??$move@AEAV?$basic_string@DU?$char_traits@D@std@@V?$allocator@D@2@@std@@@std@@YA$$QEAV?$basic_string@DU?$char_traits@D@std@@V?$allocator@D@2@@0@AEAV10@@Z
	??$move@AEAV?$function@$$A6A?AV?$basic_string@DU?$char_traits@D@std@@V?$allocator@D@2@@std@@PEBVLogMessage@el@@@Z@std@@@std@@YA$$QEAV?$function@$$A6A?AV?$basic_string@DU?$char_traits@D@std@@V?$allocator@D@2@@std@@PEBVLogMessage@el@@@Z@0@AEAV10@@Z
	??$move@AEAV?$shared_ptr@V?$basic_fstream@DU?$char_traits@D@std@@@std@@@std@@@std@@YA$$QEAV?$shared_ptr@V?$basic_fstream@DU?$char_traits@D@std@@@std@@@0@AEAV10@@Z
	??$move@AEAV?$shared_ptr@VLogDispatchCallback@el@@@std@@@std@@YA$$QEAV?$shared_ptr@VLogDispatchCallback@el@@@0@AEAV10@@Z
	??$move@AEAV?$vector@Unode@DataSet@@V?$allocator@Unode@DataSet@@@std@@@std@@@std@@YA$$QEAV?$vector@Unode@DataSet@@V?$allocator@Unode@DataSet@@@std@@@0@AEAV10@@Z
	??$move@AEAVCustomFormatSpecifier@el@@@std@@YA$$QEAVCustomFormatSpecifier@el@@AEAV12@@Z
	??$move@AEAVLogMessage@el@@@std@@YA$$QEAVLogMessage@el@@AEAV12@@Z
	??$move@AEAW4DispatchAction@base@el@@@std@@YA$$QEAW4DispatchAction@base@el@@AEAW4123@@Z
	??$move@AEAW4Level@el@@@std@@YA$$QEAW4Level@el@@AEAW412@@Z
	??$next@PEAH@std@@YAPEAHPEAH_J@Z
	??$next@PEAM@std@@YAPEAMPEAM_J@Z
	??$parallel_for@U?$unary_transform_f@PEAHPEAHUno_stencil_tag@__transform@cuda_cub@thrust@@U?$identity@H@4@Ualways_true_predicate@234@@__transform@cuda_cub@thrust@@_J@__parallel_for@cuda_cub@thrust@@YA?AW4cudaError@@_JU?$unary_transform_f@PEAHPEAHUno_stencil_tag@__transform@cuda_cub@thrust@@U?$identity@H@4@Ualways_true_predicate@234@@__transform@12@PEAUCUstream_st@@@Z
	??$parallel_for@U?$unary_transform_f@PEANPEANUno_stencil_tag@__transform@cuda_cub@thrust@@U?$identity@N@4@Ualways_true_predicate@234@@__transform@cuda_cub@thrust@@_J@__parallel_for@cuda_cub@thrust@@YA?AW4cudaError@@_JU?$unary_transform_f@PEANPEANUno_stencil_tag@__transform@cuda_cub@thrust@@U?$identity@N@4@Ualways_true_predicate@234@@__transform@12@PEAUCUstream_st@@@Z
	??$parallel_for@Upar_t@cuda_cub@thrust@@U?$unary_transform_f@PEAHPEAHUno_stencil_tag@__transform@cuda_cub@thrust@@U?$identity@H@4@Ualways_true_predicate@234@@__transform@23@_J@cuda_cub@thrust@@YAXAEAU?$execution_policy@Upar_t@cuda_cub@thrust@@@01@U?$unary_transform_f@PEAHPEAHUno_stencil_tag@__transform@cuda_cub@thrust@@U?$identity@H@4@Ualways_true_predicate@234@@__transform@01@_J@Z
	??$parallel_for@Upar_t@cuda_cub@thrust@@U?$unary_transform_f@PEANPEANUno_stencil_tag@__transform@cuda_cub@thrust@@U?$identity@N@4@Ualways_true_predicate@234@@__transform@23@_J@cuda_cub@thrust@@YAXAEAU?$execution_policy@Upar_t@cuda_cub@thrust@@@01@U?$unary_transform_f@PEANPEANUno_stencil_tag@__transform@cuda_cub@thrust@@U?$identity@N@4@Ualways_true_predicate@234@@__transform@01@_J@Z
	??$pow@HM$0A@@@YANHM@Z
	??$print_info@P6AXU?$unary_transform_f@PEAHPEAHUno_stencil_tag@__transform@cuda_cub@thrust@@U?$identity@H@4@Ualways_true_predicate@234@@__transform@cuda_cub@thrust@@_J@Z@?$AgentLauncher@U?$ParallelForAgent@U?$unary_transform_f@PEAHPEAHUno_stencil_tag@__transform@cuda_cub@thrust@@U?$identity@H@4@Ualways_true_predicate@234@@__transform@cuda_cub@thrust@@_J@__parallel_for@cuda_cub@thrust@@@core@cuda_cub@thrust@@QEBAXP6AXU?$unary_transform_f@PEAHPEAHUno_stencil_tag@__transform@cuda_cub@thrust@@U?$identity@H@4@Ualways_true_predicate@234@@__transform@23@_J@Z@Z
	??$print_info@P6AXU?$unary_transform_f@PEANPEANUno_stencil_tag@__transform@cuda_cub@thrust@@U?$identity@N@4@Ualways_true_predicate@234@@__transform@cuda_cub@thrust@@_J@Z@?$AgentLauncher@U?$ParallelForAgent@U?$unary_transform_f@PEANPEANUno_stencil_tag@__transform@cuda_cub@thrust@@U?$identity@N@4@Ualways_true_predicate@234@@__transform@cuda_cub@thrust@@_J@__parallel_for@cuda_cub@thrust@@@core@cuda_cub@thrust@@QEBAXP6AXU?$unary_transform_f@PEANPEANUno_stencil_tag@__transform@cuda_cub@thrust@@U?$identity@N@4@Ualways_true_predicate@234@@__transform@23@_J@Z@Z
	??$radix_sort@U?$integral_constant@_N$00@detail@thrust@@Upar_t@cuda_cub@3@NH_JU?$less@N@3@@__radix_sort@cuda_cub@thrust@@YAXAEAU?$execution_policy@Upar_t@cuda_cub@thrust@@@12@PEANPEAH_JU?$less@N@2@@Z
	??$radix_sort@U?$integral_constant@_N$00@detail@thrust@@Upar_t@cuda_cub@3@NN_JU?$less@N@3@@__radix_sort@cuda_cub@thrust@@YAXAEAU?$execution_policy@Upar_t@cuda_cub@thrust@@@12@PEAN1_JU?$less@N@2@@Z
	??$raw_pointer_cast@PEAH@thrust@@YAPEAHPEAH@Z
	??$raw_pointer_cast@PEAN@thrust@@YAPEANPEAN@Z
	??$raw_pointer_cast@PEAX@thrust@@YAPEAXPEAX@Z
	??$raw_pointer_cast@V?$pointer@EUpar_t@cuda_cub@thrust@@Uuse_default@3@U43@@thrust@@@thrust@@YAPEAEV?$pointer@EUpar_t@cuda_cub@thrust@@Uuse_default@3@U43@@0@@Z
	??$replace@V?$_String_iterator@V?$_String_val@U?$_Simple_types@D@std@@@std@@@std@@D@std@@YAXV?$_String_iterator@V?$_String_val@U?$_Simple_types@D@std@@@std@@@0@0AEBD1@Z
	??$return_temporary_buffer@Upar_t@cuda_cub@thrust@@V?$pointer@EUpar_t@cuda_cub@thrust@@Uuse_default@3@U43@@3@@generic@detail@system@thrust@@YAXAEAU?$execution_policy@Upar_t@cuda_cub@thrust@@@3@V?$pointer@EUpar_t@cuda_cub@thrust@@Uuse_default@3@U43@@3@@Z
	??$return_temporary_buffer@Upar_t@cuda_cub@thrust@@V?$pointer@EUpar_t@cuda_cub@thrust@@Uuse_default@3@U43@@3@@thrust@@YAXAEBU?$execution_policy_base@Upar_t@cuda_cub@thrust@@@detail@0@V?$pointer@EUpar_t@cuda_cub@thrust@@Uuse_default@3@U43@@0@@Z
	??$setValue@VLogFormat@base@el@@@TypedConfigurations@base@el@@AEAAXW4Level@2@AEBVLogFormat@12@PEAV?$map@W4Level@el@@VLogFormat@base@2@U?$less@W4Level@el@@@std@@V?$allocator@U?$pair@$$CBW4Level@el@@VLogFormat@base@2@@std@@@6@@std@@_N@Z
	??$setValue@VSubsecondPrecision@base@el@@@TypedConfigurations@base@el@@AEAAXW4Level@2@AEBVSubsecondPrecision@12@PEAV?$map@W4Level@el@@VSubsecondPrecision@base@2@U?$less@W4Level@el@@@std@@V?$allocator@U?$pair@$$CBW4Level@el@@VSubsecondPrecision@base@2@@std@@@6@@std@@_N@Z
	??$setValue@_K@TypedConfigurations@base@el@@AEAAXW4Level@2@AEB_KPEAV?$map@W4Level@el@@_KU?$less@W4Level@el@@@std@@V?$allocator@U?$pair@$$CBW4Level@el@@_K@std@@@4@@std@@_N@Z
	??$setValue@_N@TypedConfigurations@base@el@@AEAAXW4Level@2@AEB_NPEAV?$map@W4Level@el@@_NU?$less@W4Level@el@@@std@@V?$allocator@U?$pair@$$CBW4Level@el@@_N@std@@@4@@std@@_N@Z
	??$smart_sort@U?$integral_constant@_N$00@detail@thrust@@U?$integral_constant@_N$0A@@23@Upar_t@cuda_cub@3@PEANPEAHU?$less@N@3@@__smart_sort@cuda_cub@thrust@@YAXAEAU?$execution_policy@Upar_t@cuda_cub@thrust@@@12@PEAN1PEAHU?$less@N@2@@Z
	??$sort_by_key@Upar_t@cuda_cub@thrust@@PEANPEAHU?$less@N@3@@cuda_cub@thrust@@YAXAEAU?$execution_policy@Upar_t@cuda_cub@thrust@@@01@PEAN1PEAHU?$less@N@1@@Z
	??$sort_by_key@Upar_t@cuda_cub@thrust@@PEANPEAHU?$less@N@3@@thrust@@YAXAEBU?$execution_policy_base@Upar_t@cuda_cub@thrust@@@detail@0@PEAN1PEAHU?$less@N@0@@Z
	??$stream@Upar_t@cuda_cub@thrust@@@cuda_cub@thrust@@YAPEAUCUstream_st@@AEAU?$execution_policy@Upar_t@cuda_cub@thrust@@@01@@Z
	??$strip_const@Upar_t@cuda_cub@thrust@@@detail@thrust@@YAAEAU?$execution_policy_base@Upar_t@cuda_cub@thrust@@@01@AEBU201@@Z
	??$swap@D$0A@@std@@YAXAEAD0@Z
	??$swap@PEAVLogBuilder@el@@$0A@@std@@YAXAEAPEAVLogBuilder@el@@0@Z
	??$swap@PEAV_Ref_count_base@std@@$0A@@std@@YAXAEAPEAV_Ref_count_base@0@0@Z
	??$synchronize@U?$execution_policy@Upar_t@cuda_cub@thrust@@@cuda_cub@thrust@@@cuda_cub@thrust@@YA?AW4cudaError@@AEAU?$execution_policy@Upar_t@cuda_cub@thrust@@@01@@Z
	??$synchronize_stream@Upar_t@cuda_cub@thrust@@@cuda_cub@thrust@@YA?AW4cudaError@@AEAU?$execution_policy@Upar_t@cuda_cub@thrust@@@01@@Z
	??$transform@Upar_t@cuda_cub@thrust@@PEAHPEAHU?$identity@H@3@@cuda_cub@thrust@@YAPEAHAEAU?$execution_policy@Upar_t@cuda_cub@thrust@@@01@PEAH11U?$identity@H@1@@Z
	??$transform@Upar_t@cuda_cub@thrust@@PEANPEANU?$identity@N@3@@cuda_cub@thrust@@YAPEANAEAU?$execution_policy@Upar_t@cuda_cub@thrust@@@01@PEAN11U?$identity@N@1@@Z
	??$transform_if@Upar_t@cuda_cub@thrust@@PEAHPEAHU?$identity@H@3@Ualways_true_predicate@__transform@23@@cuda_cub@thrust@@YAPEAHAEAU?$execution_policy@Upar_t@cuda_cub@thrust@@@01@PEAH11U?$identity@H@1@Ualways_true_predicate@__transform@01@@Z
	??$transform_if@Upar_t@cuda_cub@thrust@@PEAHPEAHUno_stencil_tag@__transform@23@U?$identity@H@3@Ualways_true_predicate@523@@cuda_cub@thrust@@YAPEAHAEAU?$execution_policy@Upar_t@cuda_cub@thrust@@@01@PEAH1Uno_stencil_tag@__transform@01@1U?$identity@H@1@Ualways_true_predicate@401@@Z
	??$transform_if@Upar_t@cuda_cub@thrust@@PEANPEANU?$identity@N@3@Ualways_true_predicate@__transform@23@@cuda_cub@thrust@@YAPEANAEAU?$execution_policy@Upar_t@cuda_cub@thrust@@@01@PEAN11U?$identity@N@1@Ualways_true_predicate@__transform@01@@Z
	??$transform_if@Upar_t@cuda_cub@thrust@@PEANPEANUno_stencil_tag@__transform@23@U?$identity@N@3@Ualways_true_predicate@523@@cuda_cub@thrust@@YAPEANAEAU?$execution_policy@Upar_t@cuda_cub@thrust@@@01@PEAN1Uno_stencil_tag@__transform@01@1U?$identity@N@1@Ualways_true_predicate@401@@Z
	??$unary@U?$execution_policy@Upar_t@cuda_cub@thrust@@@cuda_cub@thrust@@PEAH_JPEAHUno_stencil_tag@__transform@23@U?$identity@H@3@Ualways_true_predicate@523@@__transform@cuda_cub@thrust@@YAPEAHAEAU?$execution_policy@Upar_t@cuda_cub@thrust@@@12@PEAH1_JUno_stencil_tag@012@U?$identity@H@2@Ualways_true_predicate@012@@Z
	??$unary@U?$execution_policy@Upar_t@cuda_cub@thrust@@@cuda_cub@thrust@@PEAN_JPEANUno_stencil_tag@__transform@23@U?$identity@N@3@Ualways_true_predicate@523@@__transform@cuda_cub@thrust@@YAPEANAEAU?$execution_policy@Upar_t@cuda_cub@thrust@@@12@PEAN1_JUno_stencil_tag@012@U?$identity@N@2@Ualways_true_predicate@012@@Z
	??$unsafeGetConfigByRef@V?$basic_string@DU?$char_traits@D@std@@V?$allocator@D@2@@std@@@TypedConfigurations@base@el@@AEAAAEAV?$basic_string@DU?$char_traits@D@std@@V?$allocator@D@2@@std@@W4Level@2@PEAV?$map@W4Level@el@@V?$basic_string@DU?$char_traits@D@std@@V?$allocator@D@2@@std@@U?$less@W4Level@el@@@4@V?$allocator@U?$pair@$$CBW4Level@el@@V?$basic_string@DU?$char_traits@D@std@@V?$allocator@D@2@@std@@@std@@@4@@4@PEBD@Z
	??$unsafeGetConfigByRef@V?$shared_ptr@V?$basic_fstream@DU?$char_traits@D@std@@@std@@@std@@@TypedConfigurations@base@el@@AEAAAEAV?$shared_ptr@V?$basic_fstream@DU?$char_traits@D@std@@@std@@@std@@W4Level@2@PEAV?$map@W4Level@el@@V?$shared_ptr@V?$basic_fstream@DU?$char_traits@D@std@@@std@@@std@@U?$less@W4Level@el@@@4@V?$allocator@U?$pair@$$CBW4Level@el@@V?$shared_ptr@V?$basic_fstream@DU?$char_traits@D@std@@@std@@@std@@@std@@@4@@4@PEBD@Z
	??$unsafeGetConfigByRef@VLogFormat@base@el@@@TypedConfigurations@base@el@@AEAAAEAVLogFormat@12@W4Level@2@PEAV?$map@W4Level@el@@VLogFormat@base@2@U?$less@W4Level@el@@@std@@V?$allocator@U?$pair@$$CBW4Level@el@@VLogFormat@base@2@@std@@@6@@std@@PEBD@Z
	??$unsafeGetConfigByRef@VSubsecondPrecision@base@el@@@TypedConfigurations@base@el@@AEAAAEAVSubsecondPrecision@12@W4Level@2@PEAV?$map@W4Level@el@@VSubsecondPrecision@base@2@U?$less@W4Level@el@@@std@@V?$allocator@U?$pair@$$CBW4Level@el@@VSubsecondPrecision@base@2@@std@@@6@@std@@PEBD@Z
	??$unsafeGetConfigByVal@_K@TypedConfigurations@base@el@@AEAA_KW4Level@2@PEBV?$map@W4Level@el@@_KU?$less@W4Level@el@@@std@@V?$allocator@U?$pair@$$CBW4Level@el@@_K@std@@@4@@std@@PEBD@Z
	??$unsafeGetConfigByVal@_N@TypedConfigurations@base@el@@AEAA_NW4Level@2@PEBV?$map@W4Level@el@@_NU?$less@W4Level@el@@@std@@V?$allocator@U?$pair@$$CBW4Level@el@@_N@std@@@4@@std@@PEBD@Z
	??$use_facet@V?$codecvt@DDU_Mbstatet@@@std@@@std@@YAAEBV?$codecvt@DDU_Mbstatet@@@0@AEBVlocale@0@@Z
	??$use_facet@V?$ctype@D@std@@@std@@YAAEBV?$ctype@D@0@AEBVlocale@0@@Z
	??0?$AbstractRegistry@VConfiguration@el@@V?$vector@PEAVConfiguration@el@@V?$allocator@PEAVConfiguration@el@@@std@@@std@@@utils@base@el@@QEAA@XZ
	??0?$AbstractRegistry@VHitCounter@base@el@@V?$vector@PEAVHitCounter@base@el@@V?$allocator@PEAVHitCounter@base@el@@@std@@@std@@@utils@base@el@@QEAA@XZ
	??0?$AbstractRegistry@VLogger@el@@V?$map@V?$basic_string@DU?$char_traits@D@std@@V?$allocator@D@2@@std@@PEAVLogger@el@@U?$less@V?$basic_string@DU?$char_traits@D@std@@V?$allocator@D@2@@std@@@2@V?$allocator@U?$pair@$$CBV?$basic_string@DU?$char_traits@D@std@@V?$allocator@D@2@@std@@PEAVLogger@el@@@std@@@2@@std@@@utils@base@el@@QEAA@XZ
	??0?$Callback@VLogDispatchData@el@@@el@@QEAA@XZ
	??0?$DispatchRadixSort@$0A@NHH@cub@cuda_cub@thrust@@QEAA@PEAXAEA_KAEAU?$DoubleBuffer@N@123@AEAU?$DoubleBuffer@H@123@HHH_NPEAUCUstream_st@@4H@Z
	??0?$DispatchRadixSort@$0A@NNH@cub@cuda_cub@thrust@@QEAA@PEAXAEA_KAEAU?$DoubleBuffer@N@123@2HHH_NPEAUCUstream_st@@3H@Z
	??0?$DoubleBuffer@H@cub@cuda_cub@thrust@@QEAA@PEAH0@Z
	??0?$DoubleBuffer@N@cub@cuda_cub@thrust@@QEAA@PEAN0@Z
	??0?$GridEvenShare@H@cub@cuda_cub@thrust@@QEAA@XZ
	??0?$NoScopedLock@VNoMutex@internal@threading@base@el@@@internal@threading@base@el@@QEAA@AEAVNoMutex@1234@@Z
	??0?$PassConfig@P6AXPEBNPEAHHHHU?$GridEvenShare@H@cub@cuda_cub@thrust@@@ZP6AX1H@ZP6AX0PEAN031HHH2@Z@?$DispatchRadixSort@$0A@NNH@cub@cuda_cub@thrust@@QEAA@XZ
	??0?$PassConfig@P6AXPEBNPEAHHHHU?$GridEvenShare@H@cub@cuda_cub@thrust@@@ZP6AX1H@ZP6AX0PEANPEBH11HHH2@Z@?$DispatchRadixSort@$0A@NHH@cub@cuda_cub@thrust@@QEAA@XZ
	??0?$Registry@VLogger@el@@V?$basic_string@DU?$char_traits@D@std@@V?$allocator@D@2@@std@@@utils@base@el@@QEAA@XZ
	??0?$RegistryWithPred@VConfiguration@el@@VPredicate@12@@utils@base@el@@QEAA@XZ
	??0?$RegistryWithPred@VHitCounter@base@el@@VPredicate@123@@utils@base@el@@QEAA@XZ
	??0?$SyncArray@H@@QEAA@XZ
	??0?$SyncArray@H@@QEAA@_K@Z
	??0?$SyncArray@M@@QEAA@XZ
	??0?$SyncArray@M@@QEAA@_K@Z
	??0?$SyncArray@N@@QEAA@XZ
	??0?$SyncArray@N@@QEAA@_K@Z
	??0?$_Alloc_construct_ptr@V?$allocator@U?$_Tree_node@U?$pair@$$CBV?$basic_string@DU?$char_traits@D@std@@V?$allocator@D@2@@std@@G@std@@PEAX@std@@@std@@@std@@QEAA@AEAV?$allocator@U?$_Tree_node@U?$pair@$$CBV?$basic_string@DU?$char_traits@D@std@@V?$allocator@D@2@@std@@G@std@@PEAX@std@@@1@@Z
	??0?$_Alloc_construct_ptr@V?$allocator@U?$_Tree_node@U?$pair@$$CBV?$basic_string@DU?$char_traits@D@std@@V?$allocator@D@2@@std@@PEAVLogger@el@@@std@@PEAX@std@@@std@@@std@@QEAA@AEAV?$allocator@U?$_Tree_node@U?$pair@$$CBV?$basic_string@DU?$char_traits@D@std@@V?$allocator@D@2@@std@@PEAVLogger@el@@@std@@PEAX@std@@@1@@Z
	??0?$_Alloc_construct_ptr@V?$allocator@U?$_Tree_node@U?$pair@$$CBV?$basic_string@DU?$char_traits@D@std@@V?$allocator@D@2@@std@@V12@@std@@PEAX@std@@@std@@@std@@QEAA@AEAV?$allocator@U?$_Tree_node@U?$pair@$$CBV?$basic_string@DU?$char_traits@D@std@@V?$allocator@D@2@@std@@V12@@std@@PEAX@std@@@1@@Z
	??0?$_Alloc_construct_ptr@V?$allocator@U?$_Tree_node@U?$pair@$$CBV?$basic_string@DU?$char_traits@D@std@@V?$allocator@D@2@@std@@V?$shared_ptr@V?$basic_fstream@DU?$char_traits@D@std@@@std@@@2@@std@@PEAX@std@@@std@@@std@@QEAA@AEAV?$allocator@U?$_Tree_node@U?$pair@$$CBV?$basic_string@DU?$char_traits@D@std@@V?$allocator@D@2@@std@@V?$shared_ptr@V?$basic_fstream@DU?$char_traits@D@std@@@std@@@2@@std@@PEAX@std@@@1@@Z
	??0?$_Alloc_construct_ptr@V?$allocator@U?$_Tree_node@U?$pair@$$CBV?$basic_string@DU?$char_traits@D@std@@V?$allocator@D@2@@std@@V?$shared_ptr@VLogDispatchCallback@el@@@2@@std@@PEAX@std@@@std@@@std@@QEAA@AEAV?$allocator@U?$_Tree_node@U?$pair@$$CBV?$basic_string@DU?$char_traits@D@std@@V?$allocator@D@2@@std@@V?$shared_ptr@VLogDispatchCallback@el@@@2@@std@@PEAX@std@@@1@@Z
	??0?$_Alloc_construct_ptr@V?$allocator@U?$_Tree_node@U?$pair@$$CBW4Level@el@@I@std@@PEAX@std@@@std@@@std@@QEAA@AEAV?$allocator@U?$_Tree_node@U?$pair@$$CBW4Level@el@@I@std@@PEAX@std@@@1@@Z
	??0?$_Alloc_construct_ptr@V?$allocator@U?$_Tree_node@U?$pair@$$CBW4Level@el@@V?$basic_string@DU?$char_traits@D@std@@V?$allocator@D@2@@std@@@std@@PEAX@std@@@std@@@std@@QEAA@AEAV?$allocator@U?$_Tree_node@U?$pair@$$CBW4Level@el@@V?$basic_string@DU?$char_traits@D@std@@V?$allocator@D@2@@std@@@std@@PEAX@std@@@1@@Z
	??0?$_Alloc_construct_ptr@V?$allocator@U?$_Tree_node@U?$pair@$$CBW4Level@el@@V?$shared_ptr@V?$basic_fstream@DU?$char_traits@D@std@@@std@@@std@@@std@@PEAX@std@@@std@@@std@@QEAA@AEAV?$allocator@U?$_Tree_node@U?$pair@$$CBW4Level@el@@V?$shared_ptr@V?$basic_fstream@DU?$char_traits@D@std@@@std@@@std@@@std@@PEAX@std@@@1@@Z
	??0?$_Alloc_construct_ptr@V?$allocator@U?$_Tree_node@U?$pair@$$CBW4Level@el@@VLogFormat@base@2@@std@@PEAX@std@@@std@@@std@@QEAA@AEAV?$allocator@U?$_Tree_node@U?$pair@$$CBW4Level@el@@VLogFormat@base@2@@std@@PEAX@std@@@1@@Z
	??0?$_Alloc_construct_ptr@V?$allocator@U?$_Tree_node@U?$pair@$$CBW4Level@el@@VSubsecondPrecision@base@2@@std@@PEAX@std@@@std@@@std@@QEAA@AEAV?$allocator@U?$_Tree_node@U?$pair@$$CBW4Level@el@@VSubsecondPrecision@base@2@@std@@PEAX@std@@@1@@Z
	??0?$_Alloc_construct_ptr@V?$allocator@U?$_Tree_node@U?$pair@$$CBW4Level@el@@_K@std@@PEAX@std@@@std@@@std@@QEAA@AEAV?$allocator@U?$_Tree_node@U?$pair@$$CBW4Level@el@@_K@std@@PEAX@std@@@1@@Z
	??0?$_Alloc_construct_ptr@V?$allocator@U?$_Tree_node@U?$pair@$$CBW4Level@el@@_N@std@@PEAX@std@@@std@@@std@@QEAA@AEAV?$allocator@U?$_Tree_node@U?$pair@$$CBW4Level@el@@_N@std@@PEAX@std@@@1@@Z
	??0?$_Container_proxy_ptr12@V?$allocator@U_Container_proxy@std@@@std@@@std@@QEAA@AEAV?$allocator@U_Container_proxy@std@@@1@AEAU_Container_base12@1@@Z
	??0?$_Func_base@XPEBD_K@std@@QEAA@XZ
	??0?$_Func_base@_N$$V@std@@QEAA@XZ
	??0?$_Func_class@V?$basic_string@DU?$char_traits@D@std@@V?$allocator@D@2@@std@@PEBVLogMessage@el@@@std@@QEAA@XZ
	??0?$_Func_class@XPEBD_K@std@@QEAA@XZ
	??0?$_Func_class@_N$$V@std@@QEAA@XZ
	??0?$_Ptr_base@V?$basic_fstream@DU?$char_traits@D@std@@@std@@@std@@IEAA@XZ
	??0?$_Ptr_base@VLogBuilder@el@@@std@@IEAA@XZ
	??0?$_Ptr_base@VLogDispatchCallback@el@@@std@@IEAA@XZ
	??0?$_Ptr_base@VLoggerRegistrationCallback@el@@@std@@IEAA@XZ
	??0?$_Ptr_base@VStorage@base@el@@@std@@IEAA@XZ
	??0?$_Ref_count@V?$basic_fstream@DU?$char_traits@D@std@@@std@@@std@@QEAA@PEAV?$basic_fstream@DU?$char_traits@D@std@@@1@@Z
	??0?$_Ref_count@VDefaultLogBuilder@base@el@@@std@@QEAA@PEAVDefaultLogBuilder@base@el@@@Z
	??0?$_Ref_count@VDefaultLogDispatchCallback@base@el@@@std@@QEAA@PEAVDefaultLogDispatchCallback@base@el@@@Z
	??0?$_Ref_count@VStorage@base@el@@@std@@QEAA@PEAVStorage@base@el@@@Z
	??0?$_String_bitmap@D$00@std@@QEAA@XZ
	??0?$_String_const_iterator@V?$_String_val@U?$_Simple_types@D@std@@@std@@@std@@QEAA@$$QEAV01@@Z
	??0?$_String_const_iterator@V?$_String_val@U?$_Simple_types@D@std@@@std@@@std@@QEAA@AEBV01@@Z
	??0?$_String_const_iterator@V?$_String_val@U?$_Simple_types@D@std@@@std@@@std@@QEAA@PEBDPEBU_Container_base12@1@@Z
	??0?$_String_iterator@V?$_String_val@U?$_Simple_types@D@std@@@std@@@std@@QEAA@$$QEAV01@@Z
	??0?$_String_iterator@V?$_String_val@U?$_Simple_types@D@std@@@std@@@std@@QEAA@AEBV01@@Z
	??0?$_String_iterator@V?$_String_val@U?$_Simple_types@D@std@@@std@@@std@@QEAA@PEBDPEBU_Container_base12@1@@Z
	??0?$_String_val@U?$_Simple_types@D@std@@@std@@QEAA@XZ
	??0?$_Temporary_owner@V?$basic_fstream@DU?$char_traits@D@std@@@std@@@std@@QEAA@QEAV?$basic_fstream@DU?$char_traits@D@std@@@1@@Z
	??0?$_Temporary_owner@VDefaultLogBuilder@base@el@@@std@@QEAA@QEAVDefaultLogBuilder@base@el@@@Z
	??0?$_Temporary_owner@VDefaultLogDispatchCallback@base@el@@@std@@QEAA@QEAVDefaultLogDispatchCallback@base@el@@@Z
	??0?$_Temporary_owner@VStorage@base@el@@@std@@QEAA@QEAVStorage@base@el@@@Z
	??0?$_Tree@V?$_Tmap_traits@V?$basic_string@DU?$char_traits@D@std@@V?$allocator@D@2@@std@@GU?$less@V?$basic_string@DU?$char_traits@D@std@@V?$allocator@D@2@@std@@@2@V?$allocator@U?$pair@$$CBV?$basic_string@DU?$char_traits@D@std@@V?$allocator@D@2@@std@@G@std@@@2@$0A@@std@@@std@@QEAA@AEBU?$less@V?$basic_string@DU?$char_traits@D@std@@V?$allocator@D@2@@std@@@1@@Z
	??0?$_Tree@V?$_Tmap_traits@V?$basic_string@DU?$char_traits@D@std@@V?$allocator@D@2@@std@@PEAVLogger@el@@U?$less@V?$basic_string@DU?$char_traits@D@std@@V?$allocator@D@2@@std@@@2@V?$allocator@U?$pair@$$CBV?$basic_string@DU?$char_traits@D@std@@V?$allocator@D@2@@std@@PEAVLogger@el@@@std@@@2@$0A@@std@@@std@@QEAA@AEBU?$less@V?$basic_string@DU?$char_traits@D@std@@V?$allocator@D@2@@std@@@1@@Z
	??0?$_Tree@V?$_Tmap_traits@V?$basic_string@DU?$char_traits@D@std@@V?$allocator@D@2@@std@@V12@U?$less@V?$basic_string@DU?$char_traits@D@std@@V?$allocator@D@2@@std@@@2@V?$allocator@U?$pair@$$CBV?$basic_string@DU?$char_traits@D@std@@V?$allocator@D@2@@std@@V12@@std@@@2@$0A@@std@@@std@@QEAA@AEBU?$less@V?$basic_string@DU?$char_traits@D@std@@V?$allocator@D@2@@std@@@1@@Z
	??0?$_Tree@V?$_Tmap_traits@V?$basic_string@DU?$char_traits@D@std@@V?$allocator@D@2@@std@@V?$shared_ptr@V?$basic_fstream@DU?$char_traits@D@std@@@std@@@2@U?$less@V?$basic_string@DU?$char_traits@D@std@@V?$allocator@D@2@@std@@@2@V?$allocator@U?$pair@$$CBV?$basic_string@DU?$char_traits@D@std@@V?$allocator@D@2@@std@@V?$shared_ptr@V?$basic_fstream@DU?$char_traits@D@std@@@std@@@2@@std@@@2@$0A@@std@@@std@@QEAA@AEBU?$less@V?$basic_string@DU?$char_traits@D@std@@V?$allocator@D@2@@std@@@1@@Z
	??0?$_Tree@V?$_Tmap_traits@V?$basic_string@DU?$char_traits@D@std@@V?$allocator@D@2@@std@@V?$shared_ptr@VLogDispatchCallback@el@@@2@U?$less@V?$basic_string@DU?$char_traits@D@std@@V?$allocator@D@2@@std@@@2@V?$allocator@U?$pair@$$CBV?$basic_string@DU?$char_traits@D@std@@V?$allocator@D@2@@std@@V?$shared_ptr@VLogDispatchCallback@el@@@2@@std@@@2@$0A@@std@@@std@@QEAA@AEBU?$less@V?$basic_string@DU?$char_traits@D@std@@V?$allocator@D@2@@std@@@1@@Z
	??0?$_Tree@V?$_Tmap_traits@V?$basic_string@DU?$char_traits@D@std@@V?$allocator@D@2@@std@@V?$shared_ptr@VLoggerRegistrationCallback@el@@@2@U?$less@V?$basic_string@DU?$char_traits@D@std@@V?$allocator@D@2@@std@@@2@V?$allocator@U?$pair@$$CBV?$basic_string@DU?$char_traits@D@std@@V?$allocator@D@2@@std@@V?$shared_ptr@VLoggerRegistrationCallback@el@@@2@@std@@@2@$0A@@std@@@std@@QEAA@AEBU?$less@V?$basic_string@DU?$char_traits@D@std@@V?$allocator@D@2@@std@@@1@@Z
	??0?$_Tree@V?$_Tmap_traits@V?$basic_string@DU?$char_traits@D@std@@V?$allocator@D@2@@std@@V?$shared_ptr@VPerformanceTrackingCallback@el@@@2@U?$less@V?$basic_string@DU?$char_traits@D@std@@V?$allocator@D@2@@std@@@2@V?$allocator@U?$pair@$$CBV?$basic_string@DU?$char_traits@D@std@@V?$allocator@D@2@@std@@V?$shared_ptr@VPerformanceTrackingCallback@el@@@2@@std@@@2@$0A@@std@@@std@@QEAA@AEBU?$less@V?$basic_string@DU?$char_traits@D@std@@V?$allocator@D@2@@std@@@1@@Z
	??0?$_Tree@V?$_Tmap_traits@W4Level@el@@IU?$less@W4Level@el@@@std@@V?$allocator@U?$pair@$$CBW4Level@el@@I@std@@@4@$0A@@std@@@std@@QEAA@AEBU?$less@W4Level@el@@@1@@Z
	??0?$_Tree@V?$_Tmap_traits@W4Level@el@@V?$basic_string@DU?$char_traits@D@std@@V?$allocator@D@2@@std@@U?$less@W4Level@el@@@4@V?$allocator@U?$pair@$$CBW4Level@el@@V?$basic_string@DU?$char_traits@D@std@@V?$allocator@D@2@@std@@@std@@@4@$0A@@std@@@std@@QEAA@AEBU?$less@W4Level@el@@@1@@Z
	??0?$_Tree@V?$_Tmap_traits@W4Level@el@@V?$shared_ptr@V?$basic_fstream@DU?$char_traits@D@std@@@std@@@std@@U?$less@W4Level@el@@@4@V?$allocator@U?$pair@$$CBW4Level@el@@V?$shared_ptr@V?$basic_fstream@DU?$char_traits@D@std@@@std@@@std@@@std@@@4@$0A@@std@@@std@@QEAA@AEBU?$less@W4Level@el@@@1@@Z
	??0?$_Tree@V?$_Tmap_traits@W4Level@el@@VLogFormat@base@2@U?$less@W4Level@el@@@std@@V?$allocator@U?$pair@$$CBW4Level@el@@VLogFormat@base@2@@std@@@6@$0A@@std@@@std@@QEAA@AEBU?$less@W4Level@el@@@1@@Z
	??0?$_Tree@V?$_Tmap_traits@W4Level@el@@VSubsecondPrecision@base@2@U?$less@W4Level@el@@@std@@V?$allocator@U?$pair@$$CBW4Level@el@@VSubsecondPrecision@base@2@@std@@@6@$0A@@std@@@std@@QEAA@AEBU?$less@W4Level@el@@@1@@Z
	??0?$_Tree@V?$_Tmap_traits@W4Level@el@@_KU?$less@W4Level@el@@@std@@V?$allocator@U?$pair@$$CBW4Level@el@@_K@std@@@4@$0A@@std@@@std@@QEAA@AEBU?$less@W4Level@el@@@1@@Z
	??0?$_Tree@V?$_Tmap_traits@W4Level@el@@_NU?$less@W4Level@el@@@std@@V?$allocator@U?$pair@$$CBW4Level@el@@_N@std@@@4@$0A@@std@@@std@@QEAA@AEBU?$less@W4Level@el@@@1@@Z
	??0?$_Tree_const_iterator@V?$_Tree_val@U?$_Tree_simple_types@U?$pair@$$CBV?$basic_string@DU?$char_traits@D@std@@V?$allocator@D@2@@std@@G@std@@@std@@@std@@@std@@QEAA@$$QEAV01@@Z
	??0?$_Tree_const_iterator@V?$_Tree_val@U?$_Tree_simple_types@U?$pair@$$CBV?$basic_string@DU?$char_traits@D@std@@V?$allocator@D@2@@std@@G@std@@@std@@@std@@@std@@QEAA@PEAU?$_Tree_node@U?$pair@$$CBV?$basic_string@DU?$char_traits@D@std@@V?$allocator@D@2@@std@@G@std@@PEAX@1@PEBV?$_Tree_val@U?$_Tree_simple_types@U?$pair@$$CBV?$basic_string@DU?$char_traits@D@std@@V?$allocator@D@2@@std@@G@std@@@std@@@1@@Z
	??0?$_Tree_const_iterator@V?$_Tree_val@U?$_Tree_simple_types@U?$pair@$$CBV?$basic_string@DU?$char_traits@D@std@@V?$allocator@D@2@@std@@PEAVLogger@el@@@std@@@std@@@std@@@std@@QEAA@$$QEAV01@@Z
	??0?$_Tree_const_iterator@V?$_Tree_val@U?$_Tree_simple_types@U?$pair@$$CBV?$basic_string@DU?$char_traits@D@std@@V?$allocator@D@2@@std@@PEAVLogger@el@@@std@@@std@@@std@@@std@@QEAA@PEAU?$_Tree_node@U?$pair@$$CBV?$basic_string@DU?$char_traits@D@std@@V?$allocator@D@2@@std@@PEAVLogger@el@@@std@@PEAX@1@PEBV?$_Tree_val@U?$_Tree_simple_types@U?$pair@$$CBV?$basic_string@DU?$char_traits@D@std@@V?$allocator@D@2@@std@@PEAVLogger@el@@@std@@@std@@@1@@Z
	??0?$_Tree_const_iterator@V?$_Tree_val@U?$_Tree_simple_types@U?$pair@$$CBV?$basic_string@DU?$char_traits@D@std@@V?$allocator@D@2@@std@@V12@@std@@@std@@@std@@@std@@QEAA@$$QEAV01@@Z
	??0?$_Tree_const_iterator@V?$_Tree_val@U?$_Tree_simple_types@U?$pair@$$CBV?$basic_string@DU?$char_traits@D@std@@V?$allocator@D@2@@std@@V12@@std@@@std@@@std@@@std@@QEAA@PEAU?$_Tree_node@U?$pair@$$CBV?$basic_string@DU?$char_traits@D@std@@V?$allocator@D@2@@std@@V12@@std@@PEAX@1@PEBV?$_Tree_val@U?$_Tree_simple_types@U?$pair@$$CBV?$basic_string@DU?$char_traits@D@std@@V?$allocator@D@2@@std@@V12@@std@@@std@@@1@@Z
	??0?$_Tree_const_iterator@V?$_Tree_val@U?$_Tree_simple_types@U?$pair@$$CBV?$basic_string@DU?$char_traits@D@std@@V?$allocator@D@2@@std@@V?$shared_ptr@V?$basic_fstream@DU?$char_traits@D@std@@@std@@@2@@std@@@std@@@std@@@std@@QEAA@$$QEAV01@@Z
	??0?$_Tree_const_iterator@V?$_Tree_val@U?$_Tree_simple_types@U?$pair@$$CBV?$basic_string@DU?$char_traits@D@std@@V?$allocator@D@2@@std@@V?$shared_ptr@V?$basic_fstream@DU?$char_traits@D@std@@@std@@@2@@std@@@std@@@std@@@std@@QEAA@PEAU?$_Tree_node@U?$pair@$$CBV?$basic_string@DU?$char_traits@D@std@@V?$allocator@D@2@@std@@V?$shared_ptr@V?$basic_fstream@DU?$char_traits@D@std@@@std@@@2@@std@@PEAX@1@PEBV?$_Tree_val@U?$_Tree_simple_types@U?$pair@$$CBV?$basic_string@DU?$char_traits@D@std@@V?$allocator@D@2@@std@@V?$shared_ptr@V?$basic_fstream@DU?$char_traits@D@std@@@std@@@2@@std@@@std@@@1@@Z
	??0?$_Tree_const_iterator@V?$_Tree_val@U?$_Tree_simple_types@U?$pair@$$CBV?$basic_string@DU?$char_traits@D@std@@V?$allocator@D@2@@std@@V?$shared_ptr@VLogDispatchCallback@el@@@2@@std@@@std@@@std@@@std@@QEAA@$$QEAV01@@Z
	??0?$_Tree_const_iterator@V?$_Tree_val@U?$_Tree_simple_types@U?$pair@$$CBV?$basic_string@DU?$char_traits@D@std@@V?$allocator@D@2@@std@@V?$shared_ptr@VLogDispatchCallback@el@@@2@@std@@@std@@@std@@@std@@QEAA@PEAU?$_Tree_node@U?$pair@$$CBV?$basic_string@DU?$char_traits@D@std@@V?$allocator@D@2@@std@@V?$shared_ptr@VLogDispatchCallback@el@@@2@@std@@PEAX@1@PEBV?$_Tree_val@U?$_Tree_simple_types@U?$pair@$$CBV?$basic_string@DU?$char_traits@D@std@@V?$allocator@D@2@@std@@V?$shared_ptr@VLogDispatchCallback@el@@@2@@std@@@std@@@1@@Z
	??0?$_Tree_const_iterator@V?$_Tree_val@U?$_Tree_simple_types@U?$pair@$$CBW4Level@el@@I@std@@@std@@@std@@@std@@QEAA@$$QEAV01@@Z
	??0?$_Tree_const_iterator@V?$_Tree_val@U?$_Tree_simple_types@U?$pair@$$CBW4Level@el@@I@std@@@std@@@std@@@std@@QEAA@PEAU?$_Tree_node@U?$pair@$$CBW4Level@el@@I@std@@PEAX@1@PEBV?$_Tree_val@U?$_Tree_simple_types@U?$pair@$$CBW4Level@el@@I@std@@@std@@@1@@Z
	??0?$_Tree_const_iterator@V?$_Tree_val@U?$_Tree_simple_types@U?$pair@$$CBW4Level@el@@V?$basic_string@DU?$char_traits@D@std@@V?$allocator@D@2@@std@@@std@@@std@@@std@@@std@@QEAA@$$QEAV01@@Z
	??0?$_Tree_const_iterator@V?$_Tree_val@U?$_Tree_simple_types@U?$pair@$$CBW4Level@el@@V?$basic_string@DU?$char_traits@D@std@@V?$allocator@D@2@@std@@@std@@@std@@@std@@@std@@QEAA@PEAU?$_Tree_node@U?$pair@$$CBW4Level@el@@V?$basic_string@DU?$char_traits@D@std@@V?$allocator@D@2@@std@@@std@@PEAX@1@PEBV?$_Tree_val@U?$_Tree_simple_types@U?$pair@$$CBW4Level@el@@V?$basic_string@DU?$char_traits@D@std@@V?$allocator@D@2@@std@@@std@@@std@@@1@@Z
	??0?$_Tree_const_iterator@V?$_Tree_val@U?$_Tree_simple_types@U?$pair@$$CBW4Level@el@@V?$shared_ptr@V?$basic_fstream@DU?$char_traits@D@std@@@std@@@std@@@std@@@std@@@std@@@std@@QEAA@$$QEAV01@@Z
	??0?$_Tree_const_iterator@V?$_Tree_val@U?$_Tree_simple_types@U?$pair@$$CBW4Level@el@@V?$shared_ptr@V?$basic_fstream@DU?$char_traits@D@std@@@std@@@std@@@std@@@std@@@std@@@std@@QEAA@PEAU?$_Tree_node@U?$pair@$$CBW4Level@el@@V?$shared_ptr@V?$basic_fstream@DU?$char_traits@D@std@@@std@@@std@@@std@@PEAX@1@PEBV?$_Tree_val@U?$_Tree_simple_types@U?$pair@$$CBW4Level@el@@V?$shared_ptr@V?$basic_fstream@DU?$char_traits@D@std@@@std@@@std@@@std@@@std@@@1@@Z
	??0?$_Tree_const_iterator@V?$_Tree_val@U?$_Tree_simple_types@U?$pair@$$CBW4Level@el@@VLogFormat@base@2@@std@@@std@@@std@@@std@@QEAA@$$QEAV01@@Z
	??0?$_Tree_const_iterator@V?$_Tree_val@U?$_Tree_simple_types@U?$pair@$$CBW4Level@el@@VLogFormat@base@2@@std@@@std@@@std@@@std@@QEAA@PEAU?$_Tree_node@U?$pair@$$CBW4Level@el@@VLogFormat@base@2@@std@@PEAX@1@PEBV?$_Tree_val@U?$_Tree_simple_types@U?$pair@$$CBW4Level@el@@VLogFormat@base@2@@std@@@std@@@1@@Z
	??0?$_Tree_const_iterator@V?$_Tree_val@U?$_Tree_simple_types@U?$pair@$$CBW4Level@el@@VSubsecondPrecision@base@2@@std@@@std@@@std@@@std@@QEAA@$$QEAV01@@Z
	??0?$_Tree_const_iterator@V?$_Tree_val@U?$_Tree_simple_types@U?$pair@$$CBW4Level@el@@VSubsecondPrecision@base@2@@std@@@std@@@std@@@std@@QEAA@PEAU?$_Tree_node@U?$pair@$$CBW4Level@el@@VSubsecondPrecision@base@2@@std@@PEAX@1@PEBV?$_Tree_val@U?$_Tree_simple_types@U?$pair@$$CBW4Level@el@@VSubsecondPrecision@base@2@@std@@@std@@@1@@Z
	??0?$_Tree_const_iterator@V?$_Tree_val@U?$_Tree_simple_types@U?$pair@$$CBW4Level@el@@_K@std@@@std@@@std@@@std@@QEAA@$$QEAV01@@Z
	??0?$_Tree_const_iterator@V?$_Tree_val@U?$_Tree_simple_types@U?$pair@$$CBW4Level@el@@_K@std@@@std@@@std@@@std@@QEAA@PEAU?$_Tree_node@U?$pair@$$CBW4Level@el@@_K@std@@PEAX@1@PEBV?$_Tree_val@U?$_Tree_simple_types@U?$pair@$$CBW4Level@el@@_K@std@@@std@@@1@@Z
	??0?$_Tree_const_iterator@V?$_Tree_val@U?$_Tree_simple_types@U?$pair@$$CBW4Level@el@@_N@std@@@std@@@std@@@std@@QEAA@$$QEAV01@@Z
	??0?$_Tree_const_iterator@V?$_Tree_val@U?$_Tree_simple_types@U?$pair@$$CBW4Level@el@@_N@std@@@std@@@std@@@std@@QEAA@PEAU?$_Tree_node@U?$pair@$$CBW4Level@el@@_N@std@@PEAX@1@PEBV?$_Tree_val@U?$_Tree_simple_types@U?$pair@$$CBW4Level@el@@_N@std@@@std@@@1@@Z
	??0?$_Tree_iterator@V?$_Tree_val@U?$_Tree_simple_types@U?$pair@$$CBV?$basic_string@DU?$char_traits@D@std@@V?$allocator@D@2@@std@@G@std@@@std@@@std@@@std@@QEAA@$$QEAV01@@Z
	??0?$_Tree_iterator@V?$_Tree_val@U?$_Tree_simple_types@U?$pair@$$CBV?$basic_string@DU?$char_traits@D@std@@V?$allocator@D@2@@std@@G@std@@@std@@@std@@@std@@QEAA@PEAU?$_Tree_node@U?$pair@$$CBV?$basic_string@DU?$char_traits@D@std@@V?$allocator@D@2@@std@@G@std@@PEAX@1@PEBV?$_Tree_val@U?$_Tree_simple_types@U?$pair@$$CBV?$basic_string@DU?$char_traits@D@std@@V?$allocator@D@2@@std@@G@std@@@std@@@1@@Z
	??0?$_Tree_iterator@V?$_Tree_val@U?$_Tree_simple_types@U?$pair@$$CBV?$basic_string@DU?$char_traits@D@std@@V?$allocator@D@2@@std@@PEAVLogger@el@@@std@@@std@@@std@@@std@@QEAA@$$QEAV01@@Z
	??0?$_Tree_iterator@V?$_Tree_val@U?$_Tree_simple_types@U?$pair@$$CBV?$basic_string@DU?$char_traits@D@std@@V?$allocator@D@2@@std@@PEAVLogger@el@@@std@@@std@@@std@@@std@@QEAA@PEAU?$_Tree_node@U?$pair@$$CBV?$basic_string@DU?$char_traits@D@std@@V?$allocator@D@2@@std@@PEAVLogger@el@@@std@@PEAX@1@PEBV?$_Tree_val@U?$_Tree_simple_types@U?$pair@$$CBV?$basic_string@DU?$char_traits@D@std@@V?$allocator@D@2@@std@@PEAVLogger@el@@@std@@@std@@@1@@Z
	??0?$_Tree_iterator@V?$_Tree_val@U?$_Tree_simple_types@U?$pair@$$CBV?$basic_string@DU?$char_traits@D@std@@V?$allocator@D@2@@std@@V12@@std@@@std@@@std@@@std@@QEAA@$$QEAV01@@Z
	??0?$_Tree_iterator@V?$_Tree_val@U?$_Tree_simple_types@U?$pair@$$CBV?$basic_string@DU?$char_traits@D@std@@V?$allocator@D@2@@std@@V12@@std@@@std@@@std@@@std@@QEAA@PEAU?$_Tree_node@U?$pair@$$CBV?$basic_string@DU?$char_traits@D@std@@V?$allocator@D@2@@std@@V12@@std@@PEAX@1@PEBV?$_Tree_val@U?$_Tree_simple_types@U?$pair@$$CBV?$basic_string@DU?$char_traits@D@std@@V?$allocator@D@2@@std@@V12@@std@@@std@@@1@@Z
	??0?$_Tree_iterator@V?$_Tree_val@U?$_Tree_simple_types@U?$pair@$$CBV?$basic_string@DU?$char_traits@D@std@@V?$allocator@D@2@@std@@V?$shared_ptr@V?$basic_fstream@DU?$char_traits@D@std@@@std@@@2@@std@@@std@@@std@@@std@@QEAA@$$QEAV01@@Z
	??0?$_Tree_iterator@V?$_Tree_val@U?$_Tree_simple_types@U?$pair@$$CBV?$basic_string@DU?$char_traits@D@std@@V?$allocator@D@2@@std@@V?$shared_ptr@V?$basic_fstream@DU?$char_traits@D@std@@@std@@@2@@std@@@std@@@std@@@std@@QEAA@PEAU?$_Tree_node@U?$pair@$$CBV?$basic_string@DU?$char_traits@D@std@@V?$allocator@D@2@@std@@V?$shared_ptr@V?$basic_fstream@DU?$char_traits@D@std@@@std@@@2@@std@@PEAX@1@PEBV?$_Tree_val@U?$_Tree_simple_types@U?$pair@$$CBV?$basic_string@DU?$char_traits@D@std@@V?$allocator@D@2@@std@@V?$shared_ptr@V?$basic_fstream@DU?$char_traits@D@std@@@std@@@2@@std@@@std@@@1@@Z
	??0?$_Tree_iterator@V?$_Tree_val@U?$_Tree_simple_types@U?$pair@$$CBV?$basic_string@DU?$char_traits@D@std@@V?$allocator@D@2@@std@@V?$shared_ptr@VLogDispatchCallback@el@@@2@@std@@@std@@@std@@@std@@QEAA@$$QEAV01@@Z
	??0?$_Tree_iterator@V?$_Tree_val@U?$_Tree_simple_types@U?$pair@$$CBV?$basic_string@DU?$char_traits@D@std@@V?$allocator@D@2@@std@@V?$shared_ptr@VLogDispatchCallback@el@@@2@@std@@@std@@@std@@@std@@QEAA@PEAU?$_Tree_node@U?$pair@$$CBV?$basic_string@DU?$char_traits@D@std@@V?$allocator@D@2@@std@@V?$shared_ptr@VLogDispatchCallback@el@@@2@@std@@PEAX@1@PEBV?$_Tree_val@U?$_Tree_simple_types@U?$pair@$$CBV?$basic_string@DU?$char_traits@D@std@@V?$allocator@D@2@@std@@V?$shared_ptr@VLogDispatchCallback@el@@@2@@std@@@std@@@1@@Z
	??0?$_Tree_iterator@V?$_Tree_val@U?$_Tree_simple_types@U?$pair@$$CBW4Level@el@@I@std@@@std@@@std@@@std@@QEAA@$$QEAV01@@Z
	??0?$_Tree_iterator@V?$_Tree_val@U?$_Tree_simple_types@U?$pair@$$CBW4Level@el@@I@std@@@std@@@std@@@std@@QEAA@PEAU?$_Tree_node@U?$pair@$$CBW4Level@el@@I@std@@PEAX@1@PEBV?$_Tree_val@U?$_Tree_simple_types@U?$pair@$$CBW4Level@el@@I@std@@@std@@@1@@Z
	??0?$_Tree_iterator@V?$_Tree_val@U?$_Tree_simple_types@U?$pair@$$CBW4Level@el@@V?$basic_string@DU?$char_traits@D@std@@V?$allocator@D@2@@std@@@std@@@std@@@std@@@std@@QEAA@$$QEAV01@@Z
	??0?$_Tree_iterator@V?$_Tree_val@U?$_Tree_simple_types@U?$pair@$$CBW4Level@el@@V?$basic_string@DU?$char_traits@D@std@@V?$allocator@D@2@@std@@@std@@@std@@@std@@@std@@QEAA@PEAU?$_Tree_node@U?$pair@$$CBW4Level@el@@V?$basic_string@DU?$char_traits@D@std@@V?$allocator@D@2@@std@@@std@@PEAX@1@PEBV?$_Tree_val@U?$_Tree_simple_types@U?$pair@$$CBW4Level@el@@V?$basic_string@DU?$char_traits@D@std@@V?$allocator@D@2@@std@@@std@@@std@@@1@@Z
	??0?$_Tree_iterator@V?$_Tree_val@U?$_Tree_simple_types@U?$pair@$$CBW4Level@el@@V?$shared_ptr@V?$basic_fstream@DU?$char_traits@D@std@@@std@@@std@@@std@@@std@@@std@@@std@@QEAA@$$QEAV01@@Z
	??0?$_Tree_iterator@V?$_Tree_val@U?$_Tree_simple_types@U?$pair@$$CBW4Level@el@@V?$shared_ptr@V?$basic_fstream@DU?$char_traits@D@std@@@std@@@std@@@std@@@std@@@std@@@std@@QEAA@PEAU?$_Tree_node@U?$pair@$$CBW4Level@el@@V?$shared_ptr@V?$basic_fstream@DU?$char_traits@D@std@@@std@@@std@@@std@@PEAX@1@PEBV?$_Tree_val@U?$_Tree_simple_types@U?$pair@$$CBW4Level@el@@V?$shared_ptr@V?$basic_fstream@DU?$char_traits@D@std@@@std@@@std@@@std@@@std@@@1@@Z
	??0?$_Tree_iterator@V?$_Tree_val@U?$_Tree_simple_types@U?$pair@$$CBW4Level@el@@VLogFormat@base@2@@std@@@std@@@std@@@std@@QEAA@$$QEAV01@@Z
	??0?$_Tree_iterator@V?$_Tree_val@U?$_Tree_simple_types@U?$pair@$$CBW4Level@el@@VLogFormat@base@2@@std@@@std@@@std@@@std@@QEAA@PEAU?$_Tree_node@U?$pair@$$CBW4Level@el@@VLogFormat@base@2@@std@@PEAX@1@PEBV?$_Tree_val@U?$_Tree_simple_types@U?$pair@$$CBW4Level@el@@VLogFormat@base@2@@std@@@std@@@1@@Z
	??0?$_Tree_iterator@V?$_Tree_val@U?$_Tree_simple_types@U?$pair@$$CBW4Level@el@@VSubsecondPrecision@base@2@@std@@@std@@@std@@@std@@QEAA@$$QEAV01@@Z
	??0?$_Tree_iterator@V?$_Tree_val@U?$_Tree_simple_types@U?$pair@$$CBW4Level@el@@VSubsecondPrecision@base@2@@std@@@std@@@std@@@std@@QEAA@PEAU?$_Tree_node@U?$pair@$$CBW4Level@el@@VSubsecondPrecision@base@2@@std@@PEAX@1@PEBV?$_Tree_val@U?$_Tree_simple_types@U?$pair@$$CBW4Level@el@@VSubsecondPrecision@base@2@@std@@@std@@@1@@Z
	??0?$_Tree_iterator@V?$_Tree_val@U?$_Tree_simple_types@U?$pair@$$CBW4Level@el@@_K@std@@@std@@@std@@@std@@QEAA@$$QEAV01@@Z
	??0?$_Tree_iterator@V?$_Tree_val@U?$_Tree_simple_types@U?$pair@$$CBW4Level@el@@_K@std@@@std@@@std@@@std@@QEAA@PEAU?$_Tree_node@U?$pair@$$CBW4Level@el@@_K@std@@PEAX@1@PEBV?$_Tree_val@U?$_Tree_simple_types@U?$pair@$$CBW4Level@el@@_K@std@@@std@@@1@@Z
	??0?$_Tree_iterator@V?$_Tree_val@U?$_Tree_simple_types@U?$pair@$$CBW4Level@el@@_N@std@@@std@@@std@@@std@@QEAA@$$QEAV01@@Z
	??0?$_Tree_iterator@V?$_Tree_val@U?$_Tree_simple_types@U?$pair@$$CBW4Level@el@@_N@std@@@std@@@std@@@std@@QEAA@PEAU?$_Tree_node@U?$pair@$$CBW4Level@el@@_N@std@@PEAX@1@PEBV?$_Tree_val@U?$_Tree_simple_types@U?$pair@$$CBW4Level@el@@_N@std@@@std@@@1@@Z
	??0?$_Tree_temp_node_alloc@V?$allocator@U?$_Tree_node@U?$pair@$$CBV?$basic_string@DU?$char_traits@D@std@@V?$allocator@D@2@@std@@G@std@@PEAX@std@@@std@@@std@@QEAA@AEAV?$allocator@U?$_Tree_node@U?$pair@$$CBV?$basic_string@DU?$char_traits@D@std@@V?$allocator@D@2@@std@@G@std@@PEAX@std@@@1@@Z
	??0?$_Tree_temp_node_alloc@V?$allocator@U?$_Tree_node@U?$pair@$$CBV?$basic_string@DU?$char_traits@D@std@@V?$allocator@D@2@@std@@PEAVLogger@el@@@std@@PEAX@std@@@std@@@std@@QEAA@AEAV?$allocator@U?$_Tree_node@U?$pair@$$CBV?$basic_string@DU?$char_traits@D@std@@V?$allocator@D@2@@std@@PEAVLogger@el@@@std@@PEAX@std@@@1@@Z
	??0?$_Tree_temp_node_alloc@V?$allocator@U?$_Tree_node@U?$pair@$$CBV?$basic_string@DU?$char_traits@D@std@@V?$allocator@D@2@@std@@V12@@std@@PEAX@std@@@std@@@std@@QEAA@AEAV?$allocator@U?$_Tree_node@U?$pair@$$CBV?$basic_string@DU?$char_traits@D@std@@V?$allocator@D@2@@std@@V12@@std@@PEAX@std@@@1@@Z
	??0?$_Tree_temp_node_alloc@V?$allocator@U?$_Tree_node@U?$pair@$$CBV?$basic_string@DU?$char_traits@D@std@@V?$allocator@D@2@@std@@V?$shared_ptr@V?$basic_fstream@DU?$char_traits@D@std@@@std@@@2@@std@@PEAX@std@@@std@@@std@@QEAA@AEAV?$allocator@U?$_Tree_node@U?$pair@$$CBV?$basic_string@DU?$char_traits@D@std@@V?$allocator@D@2@@std@@V?$shared_ptr@V?$basic_fstream@DU?$char_traits@D@std@@@std@@@2@@std@@PEAX@std@@@1@@Z
	??0?$_Tree_temp_node_alloc@V?$allocator@U?$_Tree_node@U?$pair@$$CBV?$basic_string@DU?$char_traits@D@std@@V?$allocator@D@2@@std@@V?$shared_ptr@VLogDispatchCallback@el@@@2@@std@@PEAX@std@@@std@@@std@@QEAA@AEAV?$allocator@U?$_Tree_node@U?$pair@$$CBV?$basic_string@DU?$char_traits@D@std@@V?$allocator@D@2@@std@@V?$shared_ptr@VLogDispatchCallback@el@@@2@@std@@PEAX@std@@@1@@Z
	??0?$_Tree_temp_node_alloc@V?$allocator@U?$_Tree_node@U?$pair@$$CBW4Level@el@@I@std@@PEAX@std@@@std@@@std@@QEAA@AEAV?$allocator@U?$_Tree_node@U?$pair@$$CBW4Level@el@@I@std@@PEAX@std@@@1@@Z
	??0?$_Tree_temp_node_alloc@V?$allocator@U?$_Tree_node@U?$pair@$$CBW4Level@el@@V?$basic_string@DU?$char_traits@D@std@@V?$allocator@D@2@@std@@@std@@PEAX@std@@@std@@@std@@QEAA@AEAV?$allocator@U?$_Tree_node@U?$pair@$$CBW4Level@el@@V?$basic_string@DU?$char_traits@D@std@@V?$allocator@D@2@@std@@@std@@PEAX@std@@@1@@Z
	??0?$_Tree_temp_node_alloc@V?$allocator@U?$_Tree_node@U?$pair@$$CBW4Level@el@@V?$shared_ptr@V?$basic_fstream@DU?$char_traits@D@std@@@std@@@std@@@std@@PEAX@std@@@std@@@std@@QEAA@AEAV?$allocator@U?$_Tree_node@U?$pair@$$CBW4Level@el@@V?$shared_ptr@V?$basic_fstream@DU?$char_traits@D@std@@@std@@@std@@@std@@PEAX@std@@@1@@Z
	??0?$_Tree_temp_node_alloc@V?$allocator@U?$_Tree_node@U?$pair@$$CBW4Level@el@@VLogFormat@base@2@@std@@PEAX@std@@@std@@@std@@QEAA@AEAV?$allocator@U?$_Tree_node@U?$pair@$$CBW4Level@el@@VLogFormat@base@2@@std@@PEAX@std@@@1@@Z
	??0?$_Tree_temp_node_alloc@V?$allocator@U?$_Tree_node@U?$pair@$$CBW4Level@el@@VSubsecondPrecision@base@2@@std@@PEAX@std@@@std@@@std@@QEAA@AEAV?$allocator@U?$_Tree_node@U?$pair@$$CBW4Level@el@@VSubsecondPrecision@base@2@@std@@PEAX@std@@@1@@Z
	??0?$_Tree_temp_node_alloc@V?$allocator@U?$_Tree_node@U?$pair@$$CBW4Level@el@@_K@std@@PEAX@std@@@std@@@std@@QEAA@AEAV?$allocator@U?$_Tree_node@U?$pair@$$CBW4Level@el@@_K@std@@PEAX@std@@@1@@Z
	??0?$_Tree_temp_node_alloc@V?$allocator@U?$_Tree_node@U?$pair@$$CBW4Level@el@@_N@std@@PEAX@std@@@std@@@std@@QEAA@AEAV?$allocator@U?$_Tree_node@U?$pair@$$CBW4Level@el@@_N@std@@PEAX@std@@@1@@Z
	??0?$_Tree_unchecked_const_iterator@V?$_Tree_val@U?$_Tree_simple_types@U?$pair@$$CBV?$basic_string@DU?$char_traits@D@std@@V?$allocator@D@2@@std@@G@std@@@std@@@std@@U_Iterator_base12@2@@std@@QEAA@$$QEAV01@@Z
	??0?$_Tree_unchecked_const_iterator@V?$_Tree_val@U?$_Tree_simple_types@U?$pair@$$CBV?$basic_string@DU?$char_traits@D@std@@V?$allocator@D@2@@std@@G@std@@@std@@@std@@U_Iterator_base12@2@@std@@QEAA@PEAU?$_Tree_node@U?$pair@$$CBV?$basic_string@DU?$char_traits@D@std@@V?$allocator@D@2@@std@@G@std@@PEAX@1@PEBV?$_Tree_val@U?$_Tree_simple_types@U?$pair@$$CBV?$basic_string@DU?$char_traits@D@std@@V?$allocator@D@2@@std@@G@std@@@std@@@1@@Z
	??0?$_Tree_unchecked_const_iterator@V?$_Tree_val@U?$_Tree_simple_types@U?$pair@$$CBV?$basic_string@DU?$char_traits@D@std@@V?$allocator@D@2@@std@@PEAVLogger@el@@@std@@@std@@@std@@U_Iterator_base0@2@@std@@QEAA@PEAU?$_Tree_node@U?$pair@$$CBV?$basic_string@DU?$char_traits@D@std@@V?$allocator@D@2@@std@@PEAVLogger@el@@@std@@PEAX@1@PEBV?$_Tree_val@U?$_Tree_simple_types@U?$pair@$$CBV?$basic_string@DU?$char_traits@D@std@@V?$allocator@D@2@@std@@PEAVLogger@el@@@std@@@std@@@1@@Z
	??0?$_Tree_unchecked_const_iterator@V?$_Tree_val@U?$_Tree_simple_types@U?$pair@$$CBV?$basic_string@DU?$char_traits@D@std@@V?$allocator@D@2@@std@@PEAVLogger@el@@@std@@@std@@@std@@U_Iterator_base12@2@@std@@QEAA@$$QEAV01@@Z
	??0?$_Tree_unchecked_const_iterator@V?$_Tree_val@U?$_Tree_simple_types@U?$pair@$$CBV?$basic_string@DU?$char_traits@D@std@@V?$allocator@D@2@@std@@PEAVLogger@el@@@std@@@std@@@std@@U_Iterator_base12@2@@std@@QEAA@PEAU?$_Tree_node@U?$pair@$$CBV?$basic_string@DU?$char_traits@D@std@@V?$allocator@D@2@@std@@PEAVLogger@el@@@std@@PEAX@1@PEBV?$_Tree_val@U?$_Tree_simple_types@U?$pair@$$CBV?$basic_string@DU?$char_traits@D@std@@V?$allocator@D@2@@std@@PEAVLogger@el@@@std@@@std@@@1@@Z
	??0?$_Tree_unchecked_const_iterator@V?$_Tree_val@U?$_Tree_simple_types@U?$pair@$$CBV?$basic_string@DU?$char_traits@D@std@@V?$allocator@D@2@@std@@V12@@std@@@std@@@std@@U_Iterator_base12@2@@std@@QEAA@$$QEAV01@@Z
	??0?$_Tree_unchecked_const_iterator@V?$_Tree_val@U?$_Tree_simple_types@U?$pair@$$CBV?$basic_string@DU?$char_traits@D@std@@V?$allocator@D@2@@std@@V12@@std@@@std@@@std@@U_Iterator_base12@2@@std@@QEAA@PEAU?$_Tree_node@U?$pair@$$CBV?$basic_string@DU?$char_traits@D@std@@V?$allocator@D@2@@std@@V12@@std@@PEAX@1@PEBV?$_Tree_val@U?$_Tree_simple_types@U?$pair@$$CBV?$basic_string@DU?$char_traits@D@std@@V?$allocator@D@2@@std@@V12@@std@@@std@@@1@@Z
	??0?$_Tree_unchecked_const_iterator@V?$_Tree_val@U?$_Tree_simple_types@U?$pair@$$CBV?$basic_string@DU?$char_traits@D@std@@V?$allocator@D@2@@std@@V?$shared_ptr@V?$basic_fstream@DU?$char_traits@D@std@@@std@@@2@@std@@@std@@@std@@U_Iterator_base12@2@@std@@QEAA@$$QEAV01@@Z
	??0?$_Tree_unchecked_const_iterator@V?$_Tree_val@U?$_Tree_simple_types@U?$pair@$$CBV?$basic_string@DU?$char_traits@D@std@@V?$allocator@D@2@@std@@V?$shared_ptr@V?$basic_fstream@DU?$char_traits@D@std@@@std@@@2@@std@@@std@@@std@@U_Iterator_base12@2@@std@@QEAA@PEAU?$_Tree_node@U?$pair@$$CBV?$basic_string@DU?$char_traits@D@std@@V?$allocator@D@2@@std@@V?$shared_ptr@V?$basic_fstream@DU?$char_traits@D@std@@@std@@@2@@std@@PEAX@1@PEBV?$_Tree_val@U?$_Tree_simple_types@U?$pair@$$CBV?$basic_string@DU?$char_traits@D@std@@V?$allocator@D@2@@std@@V?$shared_ptr@V?$basic_fstream@DU?$char_traits@D@std@@@std@@@2@@std@@@std@@@1@@Z
	??0?$_Tree_unchecked_const_iterator@V?$_Tree_val@U?$_Tree_simple_types@U?$pair@$$CBV?$basic_string@DU?$char_traits@D@std@@V?$allocator@D@2@@std@@V?$shared_ptr@VLogDispatchCallback@el@@@2@@std@@@std@@@std@@U_Iterator_base0@2@@std@@QEAA@PEAU?$_Tree_node@U?$pair@$$CBV?$basic_string@DU?$char_traits@D@std@@V?$allocator@D@2@@std@@V?$shared_ptr@VLogDispatchCallback@el@@@2@@std@@PEAX@1@PEBV?$_Tree_val@U?$_Tree_simple_types@U?$pair@$$CBV?$basic_string@DU?$char_traits@D@std@@V?$allocator@D@2@@std@@V?$shared_ptr@VLogDispatchCallback@el@@@2@@std@@@std@@@1@@Z
	??0?$_Tree_unchecked_const_iterator@V?$_Tree_val@U?$_Tree_simple_types@U?$pair@$$CBV?$basic_string@DU?$char_traits@D@std@@V?$allocator@D@2@@std@@V?$shared_ptr@VLogDispatchCallback@el@@@2@@std@@@std@@@std@@U_Iterator_base12@2@@std@@QEAA@$$QEAV01@@Z
	??0?$_Tree_unchecked_const_iterator@V?$_Tree_val@U?$_Tree_simple_types@U?$pair@$$CBV?$basic_string@DU?$char_traits@D@std@@V?$allocator@D@2@@std@@V?$shared_ptr@VLogDispatchCallback@el@@@2@@std@@@std@@@std@@U_Iterator_base12@2@@std@@QEAA@PEAU?$_Tree_node@U?$pair@$$CBV?$basic_string@DU?$char_traits@D@std@@V?$allocator@D@2@@std@@V?$shared_ptr@VLogDispatchCallback@el@@@2@@std@@PEAX@1@PEBV?$_Tree_val@U?$_Tree_simple_types@U?$pair@$$CBV?$basic_string@DU?$char_traits@D@std@@V?$allocator@D@2@@std@@V?$shared_ptr@VLogDispatchCallback@el@@@2@@std@@@std@@@1@@Z
	??0?$_Tree_unchecked_const_iterator@V?$_Tree_val@U?$_Tree_simple_types@U?$pair@$$CBV?$basic_string@DU?$char_traits@D@std@@V?$allocator@D@2@@std@@V?$shared_ptr@VLoggerRegistrationCallback@el@@@2@@std@@@std@@@std@@U_Iterator_base0@2@@std@@QEAA@PEAU?$_Tree_node@U?$pair@$$CBV?$basic_string@DU?$char_traits@D@std@@V?$allocator@D@2@@std@@V?$shared_ptr@VLoggerRegistrationCallback@el@@@2@@std@@PEAX@1@PEBV?$_Tree_val@U?$_Tree_simple_types@U?$pair@$$CBV?$basic_string@DU?$char_traits@D@std@@V?$allocator@D@2@@std@@V?$shared_ptr@VLoggerRegistrationCallback@el@@@2@@std@@@std@@@1@@Z
	??0?$_Tree_unchecked_const_iterator@V?$_Tree_val@U?$_Tree_simple_types@U?$pair@$$CBW4Level@el@@I@std@@@std@@@std@@U_Iterator_base12@2@@std@@QEAA@$$QEAV01@@Z
	??0?$_Tree_unchecked_const_iterator@V?$_Tree_val@U?$_Tree_simple_types@U?$pair@$$CBW4Level@el@@I@std@@@std@@@std@@U_Iterator_base12@2@@std@@QEAA@PEAU?$_Tree_node@U?$pair@$$CBW4Level@el@@I@std@@PEAX@1@PEBV?$_Tree_val@U?$_Tree_simple_types@U?$pair@$$CBW4Level@el@@I@std@@@std@@@1@@Z
	??0?$_Tree_unchecked_const_iterator@V?$_Tree_val@U?$_Tree_simple_types@U?$pair@$$CBW4Level@el@@V?$basic_string@DU?$char_traits@D@std@@V?$allocator@D@2@@std@@@std@@@std@@@std@@U_Iterator_base12@2@@std@@QEAA@$$QEAV01@@Z
	??0?$_Tree_unchecked_const_iterator@V?$_Tree_val@U?$_Tree_simple_types@U?$pair@$$CBW4Level@el@@V?$basic_string@DU?$char_traits@D@std@@V?$allocator@D@2@@std@@@std@@@std@@@std@@U_Iterator_base12@2@@std@@QEAA@PEAU?$_Tree_node@U?$pair@$$CBW4Level@el@@V?$basic_string@DU?$char_traits@D@std@@V?$allocator@D@2@@std@@@std@@PEAX@1@PEBV?$_Tree_val@U?$_Tree_simple_types@U?$pair@$$CBW4Level@el@@V?$basic_string@DU?$char_traits@D@std@@V?$allocator@D@2@@std@@@std@@@std@@@1@@Z
	??0?$_Tree_unchecked_const_iterator@V?$_Tree_val@U?$_Tree_simple_types@U?$pair@$$CBW4Level@el@@V?$shared_ptr@V?$basic_fstream@DU?$char_traits@D@std@@@std@@@std@@@std@@@std@@@std@@U_Iterator_base12@2@@std@@QEAA@$$QEAV01@@Z
	??0?$_Tree_unchecked_const_iterator@V?$_Tree_val@U?$_Tree_simple_types@U?$pair@$$CBW4Level@el@@V?$shared_ptr@V?$basic_fstream@DU?$char_traits@D@std@@@std@@@std@@@std@@@std@@@std@@U_Iterator_base12@2@@std@@QEAA@PEAU?$_Tree_node@U?$pair@$$CBW4Level@el@@V?$shared_ptr@V?$basic_fstream@DU?$char_traits@D@std@@@std@@@std@@@std@@PEAX@1@PEBV?$_Tree_val@U?$_Tree_simple_types@U?$pair@$$CBW4Level@el@@V?$shared_ptr@V?$basic_fstream@DU?$char_traits@D@std@@@std@@@std@@@std@@@std@@@1@@Z
	??0?$_Tree_unchecked_const_iterator@V?$_Tree_val@U?$_Tree_simple_types@U?$pair@$$CBW4Level@el@@VLogFormat@base@2@@std@@@std@@@std@@U_Iterator_base12@2@@std@@QEAA@$$QEAV01@@Z
	??0?$_Tree_unchecked_const_iterator@V?$_Tree_val@U?$_Tree_simple_types@U?$pair@$$CBW4Level@el@@VLogFormat@base@2@@std@@@std@@@std@@U_Iterator_base12@2@@std@@QEAA@PEAU?$_Tree_node@U?$pair@$$CBW4Level@el@@VLogFormat@base@2@@std@@PEAX@1@PEBV?$_Tree_val@U?$_Tree_simple_types@U?$pair@$$CBW4Level@el@@VLogFormat@base@2@@std@@@std@@@1@@Z
	??0?$_Tree_unchecked_const_iterator@V?$_Tree_val@U?$_Tree_simple_types@U?$pair@$$CBW4Level@el@@VSubsecondPrecision@base@2@@std@@@std@@@std@@U_Iterator_base12@2@@std@@QEAA@$$QEAV01@@Z
	??0?$_Tree_unchecked_const_iterator@V?$_Tree_val@U?$_Tree_simple_types@U?$pair@$$CBW4Level@el@@VSubsecondPrecision@base@2@@std@@@std@@@std@@U_Iterator_base12@2@@std@@QEAA@PEAU?$_Tree_node@U?$pair@$$CBW4Level@el@@VSubsecondPrecision@base@2@@std@@PEAX@1@PEBV?$_Tree_val@U?$_Tree_simple_types@U?$pair@$$CBW4Level@el@@VSubsecondPrecision@base@2@@std@@@std@@@1@@Z
	??0?$_Tree_unchecked_const_iterator@V?$_Tree_val@U?$_Tree_simple_types@U?$pair@$$CBW4Level@el@@_K@std@@@std@@@std@@U_Iterator_base12@2@@std@@QEAA@$$QEAV01@@Z
	??0?$_Tree_unchecked_const_iterator@V?$_Tree_val@U?$_Tree_simple_types@U?$pair@$$CBW4Level@el@@_K@std@@@std@@@std@@U_Iterator_base12@2@@std@@QEAA@PEAU?$_Tree_node@U?$pair@$$CBW4Level@el@@_K@std@@PEAX@1@PEBV?$_Tree_val@U?$_Tree_simple_types@U?$pair@$$CBW4Level@el@@_K@std@@@std@@@1@@Z
	??0?$_Tree_unchecked_const_iterator@V?$_Tree_val@U?$_Tree_simple_types@U?$pair@$$CBW4Level@el@@_N@std@@@std@@@std@@U_Iterator_base12@2@@std@@QEAA@$$QEAV01@@Z
	??0?$_Tree_unchecked_const_iterator@V?$_Tree_val@U?$_Tree_simple_types@U?$pair@$$CBW4Level@el@@_N@std@@@std@@@std@@U_Iterator_base12@2@@std@@QEAA@PEAU?$_Tree_node@U?$pair@$$CBW4Level@el@@_N@std@@PEAX@1@PEBV?$_Tree_val@U?$_Tree_simple_types@U?$pair@$$CBW4Level@el@@_N@std@@@std@@@1@@Z
	??0?$_Tree_unchecked_iterator@V?$_Tree_val@U?$_Tree_simple_types@U?$pair@$$CBV?$basic_string@DU?$char_traits@D@std@@V?$allocator@D@2@@std@@PEAVLogger@el@@@std@@@std@@@std@@@std@@QEAA@PEAU?$_Tree_node@U?$pair@$$CBV?$basic_string@DU?$char_traits@D@std@@V?$allocator@D@2@@std@@PEAVLogger@el@@@std@@PEAX@1@PEBV?$_Tree_val@U?$_Tree_simple_types@U?$pair@$$CBV?$basic_string@DU?$char_traits@D@std@@V?$allocator@D@2@@std@@PEAVLogger@el@@@std@@@std@@@1@@Z
	??0?$_Tree_unchecked_iterator@V?$_Tree_val@U?$_Tree_simple_types@U?$pair@$$CBV?$basic_string@DU?$char_traits@D@std@@V?$allocator@D@2@@std@@V?$shared_ptr@VLogDispatchCallback@el@@@2@@std@@@std@@@std@@@std@@QEAA@PEAU?$_Tree_node@U?$pair@$$CBV?$basic_string@DU?$char_traits@D@std@@V?$allocator@D@2@@std@@V?$shared_ptr@VLogDispatchCallback@el@@@2@@std@@PEAX@1@PEBV?$_Tree_val@U?$_Tree_simple_types@U?$pair@$$CBV?$basic_string@DU?$char_traits@D@std@@V?$allocator@D@2@@std@@V?$shared_ptr@VLogDispatchCallback@el@@@2@@std@@@std@@@1@@Z
	??0?$_Tree_unchecked_iterator@V?$_Tree_val@U?$_Tree_simple_types@U?$pair@$$CBV?$basic_string@DU?$char_traits@D@std@@V?$allocator@D@2@@std@@V?$shared_ptr@VLoggerRegistrationCallback@el@@@2@@std@@@std@@@std@@@std@@QEAA@PEAU?$_Tree_node@U?$pair@$$CBV?$basic_string@DU?$char_traits@D@std@@V?$allocator@D@2@@std@@V?$shared_ptr@VLoggerRegistrationCallback@el@@@2@@std@@PEAX@1@PEBV?$_Tree_val@U?$_Tree_simple_types@U?$pair@$$CBV?$basic_string@DU?$char_traits@D@std@@V?$allocator@D@2@@std@@V?$shared_ptr@VLoggerRegistrationCallback@el@@@2@@std@@@std@@@1@@Z
	??0?$_Tree_val@U?$_Tree_simple_types@U?$pair@$$CBV?$basic_string@DU?$char_traits@D@std@@V?$allocator@D@2@@std@@G@std@@@std@@@std@@QEAA@XZ
	??0?$_Tree_val@U?$_Tree_simple_types@U?$pair@$$CBV?$basic_string@DU?$char_traits@D@std@@V?$allocator@D@2@@std@@PEAVLogger@el@@@std@@@std@@@std@@QEAA@XZ
	??0?$_Tree_val@U?$_Tree_simple_types@U?$pair@$$CBV?$basic_string@DU?$char_traits@D@std@@V?$allocator@D@2@@std@@V12@@std@@@std@@@std@@QEAA@XZ
	??0?$_Tree_val@U?$_Tree_simple_types@U?$pair@$$CBV?$basic_string@DU?$char_traits@D@std@@V?$allocator@D@2@@std@@V?$shared_ptr@V?$basic_fstream@DU?$char_traits@D@std@@@std@@@2@@std@@@std@@@std@@QEAA@XZ
	??0?$_Tree_val@U?$_Tree_simple_types@U?$pair@$$CBV?$basic_string@DU?$char_traits@D@std@@V?$allocator@D@2@@std@@V?$shared_ptr@VLogDispatchCallback@el@@@2@@std@@@std@@@std@@QEAA@XZ
	??0?$_Tree_val@U?$_Tree_simple_types@U?$pair@$$CBV?$basic_string@DU?$char_traits@D@std@@V?$allocator@D@2@@std@@V?$shared_ptr@VLoggerRegistrationCallback@el@@@2@@std@@@std@@@std@@QEAA@XZ
	??0?$_Tree_val@U?$_Tree_simple_types@U?$pair@$$CBV?$basic_string@DU?$char_traits@D@std@@V?$allocator@D@2@@std@@V?$shared_ptr@VPerformanceTrackingCallback@el@@@2@@std@@@std@@@std@@QEAA@XZ
	??0?$_Tree_val@U?$_Tree_simple_types@U?$pair@$$CBW4Level@el@@I@std@@@std@@@std@@QEAA@XZ
	??0?$_Tree_val@U?$_Tree_simple_types@U?$pair@$$CBW4Level@el@@V?$basic_string@DU?$char_traits@D@std@@V?$allocator@D@2@@std@@@std@@@std@@@std@@QEAA@XZ
	??0?$_Tree_val@U?$_Tree_simple_types@U?$pair@$$CBW4Level@el@@V?$shared_ptr@V?$basic_fstream@DU?$char_traits@D@std@@@std@@@std@@@std@@@std@@@std@@QEAA@XZ
	??0?$_Tree_val@U?$_Tree_simple_types@U?$pair@$$CBW4Level@el@@VLogFormat@base@2@@std@@@std@@@std@@QEAA@XZ
	??0?$_Tree_val@U?$_Tree_simple_types@U?$pair@$$CBW4Level@el@@VSubsecondPrecision@base@2@@std@@@std@@@std@@QEAA@XZ
	??0?$_Tree_val@U?$_Tree_simple_types@U?$pair@$$CBW4Level@el@@_K@std@@@std@@@std@@QEAA@XZ
	??0?$_Tree_val@U?$_Tree_simple_types@U?$pair@$$CBW4Level@el@@_N@std@@@std@@@std@@QEAA@XZ
	??0?$_Uninitialized_backout_al@V?$allocator@H@std@@@std@@QEAA@PEAHAEAV?$allocator@H@1@@Z
	??0?$_Uninitialized_backout_al@V?$allocator@I@std@@@std@@QEAA@PEAIAEAV?$allocator@I@1@@Z
	??0?$_Uninitialized_backout_al@V?$allocator@M@std@@@std@@QEAA@PEAMAEAV?$allocator@M@1@@Z
	??0?$_Uninitialized_backout_al@V?$allocator@N@std@@@std@@QEAA@PEANAEAV?$allocator@N@1@@Z
	??0?$_Uninitialized_backout_al@V?$allocator@PEAVConfiguration@el@@@std@@@std@@QEAA@PEAPEAVConfiguration@el@@AEAV?$allocator@PEAVConfiguration@el@@@1@@Z
	??0?$_Uninitialized_backout_al@V?$allocator@PEAVHitCounter@base@el@@@std@@@std@@QEAA@PEAPEAVHitCounter@base@el@@AEAV?$allocator@PEAVHitCounter@base@el@@@1@@Z
	??0?$_Uninitialized_backout_al@V?$allocator@Unode@DataSet@@@std@@@std@@QEAA@PEAUnode@DataSet@@AEAV?$allocator@Unode@DataSet@@@1@@Z
	??0?$_Uninitialized_backout_al@V?$allocator@V?$SyncArray@N@@@std@@@std@@QEAA@PEAV?$SyncArray@N@@AEAV?$allocator@V?$SyncArray@N@@@1@@Z
	??0?$_Uninitialized_backout_al@V?$allocator@V?$basic_string@DU?$char_traits@D@std@@V?$allocator@D@2@@std@@@std@@@std@@QEAA@PEAV?$basic_string@DU?$char_traits@D@std@@V?$allocator@D@2@@1@AEAV?$allocator@V?$basic_string@DU?$char_traits@D@std@@V?$allocator@D@2@@std@@@1@@Z
	??0?$_Uninitialized_backout_al@V?$allocator@V?$vector@NV?$allocator@N@std@@@std@@@std@@@std@@QEAA@PEAV?$vector@NV?$allocator@N@std@@@1@AEAV?$allocator@V?$vector@NV?$allocator@N@std@@@std@@@1@@Z
	??0?$_Uninitialized_backout_al@V?$allocator@V?$vector@Unode@DataSet@@V?$allocator@Unode@DataSet@@@std@@@std@@@std@@@std@@QEAA@PEAV?$vector@Unode@DataSet@@V?$allocator@Unode@DataSet@@@std@@@1@AEAV?$allocator@V?$vector@Unode@DataSet@@V?$allocator@Unode@DataSet@@@std@@@std@@@1@@Z
	??0?$_Uninitialized_backout_al@V?$allocator@V?$vector@V?$vector@Unode@DataSet@@V?$allocator@Unode@DataSet@@@std@@@std@@V?$allocator@V?$vector@Unode@DataSet@@V?$allocator@Unode@DataSet@@@std@@@std@@@2@@std@@@std@@@std@@QEAA@PEAV?$vector@V?$vector@Unode@DataSet@@V?$allocator@Unode@DataSet@@@std@@@std@@V?$allocator@V?$vector@Unode@DataSet@@V?$allocator@Unode@DataSet@@@std@@@std@@@2@@1@AEAV?$allocator@V?$vector@V?$vector@Unode@DataSet@@V?$allocator@Unode@DataSet@@@std@@@std@@V?$allocator@V?$vector@Unode@DataSet@@V?$allocator@Unode@DataSet@@@std@@@std@@@2@@std@@@1@@Z
	??0?$_Uninitialized_backout_al@V?$allocator@VCustomFormatSpecifier@el@@@std@@@std@@QEAA@PEAVCustomFormatSpecifier@el@@AEAV?$allocator@VCustomFormatSpecifier@el@@@1@@Z
	??0?$_Vb_const_iterator@U?$_Wrap_alloc@V?$allocator@I@std@@@std@@@std@@QEAA@PEBIPEBU_Container_base12@1@@Z
	??0?$_Vb_iter_base@U?$_Wrap_alloc@V?$allocator@I@std@@@std@@@std@@QEAA@PEBI_KPEBU_Container_base12@1@@Z
	??0?$_Vb_iterator@U?$_Wrap_alloc@V?$allocator@I@std@@@std@@@std@@QEAA@PEBIPEBU_Container_base12@1@@Z
	??0?$_Vb_reference@U?$_Wrap_alloc@V?$allocator@I@std@@@std@@@std@@QEAA@AEBV?$_Vb_iter_base@U?$_Wrap_alloc@V?$allocator@I@std@@@std@@@1@@Z
	??0?$_Vb_val@V?$allocator@_N@std@@@std@@QEAA@_KAEB_NAEBV?$allocator@_N@1@@Z
	??0?$_Vector_const_iterator@V?$_Vector_val@U?$_Simple_types@H@std@@@std@@@std@@QEAA@$$QEAV01@@Z
	??0?$_Vector_const_iterator@V?$_Vector_val@U?$_Simple_types@H@std@@@std@@@std@@QEAA@AEBV01@@Z
	??0?$_Vector_const_iterator@V?$_Vector_val@U?$_Simple_types@H@std@@@std@@@std@@QEAA@PEAHPEBU_Container_base12@1@@Z
	??0?$_Vector_const_iterator@V?$_Vector_val@U?$_Simple_types@I@std@@@std@@@std@@QEAA@$$QEAV01@@Z
	??0?$_Vector_const_iterator@V?$_Vector_val@U?$_Simple_types@I@std@@@std@@@std@@QEAA@AEBV01@@Z
	??0?$_Vector_const_iterator@V?$_Vector_val@U?$_Simple_types@I@std@@@std@@@std@@QEAA@PEAIPEBU_Container_base12@1@@Z
	??0?$_Vector_const_iterator@V?$_Vector_val@U?$_Simple_types@M@std@@@std@@@std@@QEAA@$$QEAV01@@Z
	??0?$_Vector_const_iterator@V?$_Vector_val@U?$_Simple_types@M@std@@@std@@@std@@QEAA@AEBV01@@Z
	??0?$_Vector_const_iterator@V?$_Vector_val@U?$_Simple_types@M@std@@@std@@@std@@QEAA@PEAMPEBU_Container_base12@1@@Z
	??0?$_Vector_const_iterator@V?$_Vector_val@U?$_Simple_types@N@std@@@std@@@std@@QEAA@$$QEAV01@@Z
	??0?$_Vector_const_iterator@V?$_Vector_val@U?$_Simple_types@N@std@@@std@@@std@@QEAA@AEBV01@@Z
	??0?$_Vector_const_iterator@V?$_Vector_val@U?$_Simple_types@N@std@@@std@@@std@@QEAA@PEANPEBU_Container_base12@1@@Z
	??0?$_Vector_const_iterator@V?$_Vector_val@U?$_Simple_types@PEAVConfiguration@el@@@std@@@std@@@std@@QEAA@$$QEAV01@@Z
	??0?$_Vector_const_iterator@V?$_Vector_val@U?$_Simple_types@PEAVConfiguration@el@@@std@@@std@@@std@@QEAA@AEBV01@@Z
	??0?$_Vector_const_iterator@V?$_Vector_val@U?$_Simple_types@PEAVConfiguration@el@@@std@@@std@@@std@@QEAA@PEAPEAVConfiguration@el@@PEBU_Container_base12@1@@Z
	??0?$_Vector_const_iterator@V?$_Vector_val@U?$_Simple_types@PEAVHitCounter@base@el@@@std@@@std@@@std@@QEAA@$$QEAV01@@Z
	??0?$_Vector_const_iterator@V?$_Vector_val@U?$_Simple_types@PEAVHitCounter@base@el@@@std@@@std@@@std@@QEAA@AEBV01@@Z
	??0?$_Vector_const_iterator@V?$_Vector_val@U?$_Simple_types@PEAVHitCounter@base@el@@@std@@@std@@@std@@QEAA@PEAPEAVHitCounter@base@el@@PEBU_Container_base12@1@@Z
	??0?$_Vector_const_iterator@V?$_Vector_val@U?$_Simple_types@V?$basic_string@DU?$char_traits@D@std@@V?$allocator@D@2@@std@@@std@@@std@@@std@@QEAA@$$QEAV01@@Z
	??0?$_Vector_const_iterator@V?$_Vector_val@U?$_Simple_types@V?$basic_string@DU?$char_traits@D@std@@V?$allocator@D@2@@std@@@std@@@std@@@std@@QEAA@PEAV?$basic_string@DU?$char_traits@D@std@@V?$allocator@D@2@@1@PEBU_Container_base12@1@@Z
	??0?$_Vector_const_iterator@V?$_Vector_val@U?$_Simple_types@V?$vector@Unode@DataSet@@V?$allocator@Unode@DataSet@@@std@@@std@@@std@@@std@@@std@@QEAA@$$QEAV01@@Z
	??0?$_Vector_const_iterator@V?$_Vector_val@U?$_Simple_types@V?$vector@Unode@DataSet@@V?$allocator@Unode@DataSet@@@std@@@std@@@std@@@std@@@std@@QEAA@AEBV01@@Z
	??0?$_Vector_const_iterator@V?$_Vector_val@U?$_Simple_types@V?$vector@Unode@DataSet@@V?$allocator@Unode@DataSet@@@std@@@std@@@std@@@std@@@std@@QEAA@PEAV?$vector@Unode@DataSet@@V?$allocator@Unode@DataSet@@@std@@@1@PEBU_Container_base12@1@@Z
	??0?$_Vector_const_iterator@V?$_Vector_val@U?$_Simple_types@VCustomFormatSpecifier@el@@@std@@@std@@@std@@QEAA@$$QEAV01@@Z
	??0?$_Vector_const_iterator@V?$_Vector_val@U?$_Simple_types@VCustomFormatSpecifier@el@@@std@@@std@@@std@@QEAA@AEBV01@@Z
	??0?$_Vector_const_iterator@V?$_Vector_val@U?$_Simple_types@VCustomFormatSpecifier@el@@@std@@@std@@@std@@QEAA@PEAVCustomFormatSpecifier@el@@PEBU_Container_base12@1@@Z
	??0?$_Vector_iterator@V?$_Vector_val@U?$_Simple_types@H@std@@@std@@@std@@QEAA@$$QEAV01@@Z
	??0?$_Vector_iterator@V?$_Vector_val@U?$_Simple_types@H@std@@@std@@@std@@QEAA@AEBV01@@Z
	??0?$_Vector_iterator@V?$_Vector_val@U?$_Simple_types@H@std@@@std@@@std@@QEAA@PEAHPEBU_Container_base12@1@@Z
	??0?$_Vector_iterator@V?$_Vector_val@U?$_Simple_types@I@std@@@std@@@std@@QEAA@$$QEAV01@@Z
	??0?$_Vector_iterator@V?$_Vector_val@U?$_Simple_types@I@std@@@std@@@std@@QEAA@AEBV01@@Z
	??0?$_Vector_iterator@V?$_Vector_val@U?$_Simple_types@I@std@@@std@@@std@@QEAA@PEAIPEBU_Container_base12@1@@Z
	??0?$_Vector_iterator@V?$_Vector_val@U?$_Simple_types@M@std@@@std@@@std@@QEAA@PEAMPEBU_Container_base12@1@@Z
	??0?$_Vector_iterator@V?$_Vector_val@U?$_Simple_types@N@std@@@std@@@std@@QEAA@PEANPEBU_Container_base12@1@@Z
	??0?$_Vector_iterator@V?$_Vector_val@U?$_Simple_types@PEAVConfiguration@el@@@std@@@std@@@std@@QEAA@$$QEAV01@@Z
	??0?$_Vector_iterator@V?$_Vector_val@U?$_Simple_types@PEAVConfiguration@el@@@std@@@std@@@std@@QEAA@PEAPEAVConfiguration@el@@PEBU_Container_base12@1@@Z
	??0?$_Vector_iterator@V?$_Vector_val@U?$_Simple_types@PEAVHitCounter@base@el@@@std@@@std@@@std@@QEAA@$$QEAV01@@Z
	??0?$_Vector_iterator@V?$_Vector_val@U?$_Simple_types@PEAVHitCounter@base@el@@@std@@@std@@@std@@QEAA@PEAPEAVHitCounter@base@el@@PEBU_Container_base12@1@@Z
	??0?$_Vector_iterator@V?$_Vector_val@U?$_Simple_types@V?$vector@Unode@DataSet@@V?$allocator@Unode@DataSet@@@std@@@std@@@std@@@std@@@std@@QEAA@PEAV?$vector@Unode@DataSet@@V?$allocator@Unode@DataSet@@@std@@@1@PEBU_Container_base12@1@@Z
	??0?$_Vector_iterator@V?$_Vector_val@U?$_Simple_types@VCustomFormatSpecifier@el@@@std@@@std@@@std@@QEAA@$$QEAV01@@Z
	??0?$_Vector_iterator@V?$_Vector_val@U?$_Simple_types@VCustomFormatSpecifier@el@@@std@@@std@@@std@@QEAA@PEAVCustomFormatSpecifier@el@@PEBU_Container_base12@1@@Z
	??0?$_Vector_val@U?$_Simple_types@H@std@@@std@@QEAA@PEAH00@Z
	??0?$_Vector_val@U?$_Simple_types@H@std@@@std@@QEAA@XZ
	??0?$_Vector_val@U?$_Simple_types@I@std@@@std@@QEAA@XZ
	??0?$_Vector_val@U?$_Simple_types@M@std@@@std@@QEAA@XZ
	??0?$_Vector_val@U?$_Simple_types@N@std@@@std@@QEAA@PEAN00@Z
	??0?$_Vector_val@U?$_Simple_types@N@std@@@std@@QEAA@XZ
	??0?$_Vector_val@U?$_Simple_types@PEAVConfiguration@el@@@std@@@std@@QEAA@XZ
	??0?$_Vector_val@U?$_Simple_types@PEAVHitCounter@base@el@@@std@@@std@@QEAA@XZ
	??0?$_Vector_val@U?$_Simple_types@Unode@DataSet@@@std@@@std@@QEAA@PEAUnode@DataSet@@00@Z
	??0?$_Vector_val@U?$_Simple_types@Unode@DataSet@@@std@@@std@@QEAA@XZ
	??0?$_Vector_val@U?$_Simple_types@V?$SyncArray@N@@@std@@@std@@QEAA@XZ
	??0?$_Vector_val@U?$_Simple_types@V?$basic_string@DU?$char_traits@D@std@@V?$allocator@D@2@@std@@@std@@@std@@QEAA@XZ
	??0?$_Vector_val@U?$_Simple_types@V?$vector@NV?$allocator@N@std@@@std@@@std@@@std@@QEAA@XZ
	??0?$_Vector_val@U?$_Simple_types@V?$vector@Unode@DataSet@@V?$allocator@Unode@DataSet@@@std@@@std@@@std@@@std@@QEAA@PEAV?$vector@Unode@DataSet@@V?$allocator@Unode@DataSet@@@std@@@1@00@Z
	??0?$_Vector_val@U?$_Simple_types@V?$vector@Unode@DataSet@@V?$allocator@Unode@DataSet@@@std@@@std@@@std@@@std@@QEAA@XZ
	??0?$_Vector_val@U?$_Simple_types@V?$vector@V?$vector@Unode@DataSet@@V?$allocator@Unode@DataSet@@@std@@@std@@V?$allocator@V?$vector@Unode@DataSet@@V?$allocator@Unode@DataSet@@@std@@@std@@@2@@std@@@std@@@std@@QEAA@XZ
	??0?$_Vector_val@U?$_Simple_types@VCustomFormatSpecifier@el@@@std@@@std@@QEAA@XZ
	??0?$_trivial_sequence@PEAHUpar_t@cuda_cub@thrust@@U?$integral_constant@_N$00@detail@3@@detail@thrust@@QEAA@AEAU?$execution_policy@Upar_t@cuda_cub@thrust@@@2@PEAH1@Z
	??0?$_trivial_sequence@PEANUpar_t@cuda_cub@thrust@@U?$integral_constant@_N$00@detail@3@@detail@thrust@@QEAA@AEAU?$execution_policy@Upar_t@cuda_cub@thrust@@@2@PEAN1@Z
	??0?$actor@V?$argument@$00@functional@detail@thrust@@@functional@detail@thrust@@QEAA@XZ
	??0?$actor@V?$argument@$01@functional@detail@thrust@@@functional@detail@thrust@@QEAA@XZ
	??0?$actor@V?$argument@$02@functional@detail@thrust@@@functional@detail@thrust@@QEAA@XZ
	??0?$actor@V?$argument@$03@functional@detail@thrust@@@functional@detail@thrust@@QEAA@XZ
	??0?$actor@V?$argument@$04@functional@detail@thrust@@@functional@detail@thrust@@QEAA@XZ
	??0?$actor@V?$argument@$05@functional@detail@thrust@@@functional@detail@thrust@@QEAA@XZ
	??0?$actor@V?$argument@$06@functional@detail@thrust@@@functional@detail@thrust@@QEAA@XZ
	??0?$actor@V?$argument@$07@functional@detail@thrust@@@functional@detail@thrust@@QEAA@XZ
	??0?$actor@V?$argument@$08@functional@detail@thrust@@@functional@detail@thrust@@QEAA@XZ
	??0?$actor@V?$argument@$0A@@functional@detail@thrust@@@functional@detail@thrust@@QEAA@XZ
	??0?$allocator@D@std@@QEAA@XZ
	??0?$allocator@H@std@@QEAA@XZ
	??0?$allocator@M@std@@QEAA@XZ
	??0?$allocator@N@std@@QEAA@XZ
	??0?$allocator@PEAVConfiguration@el@@@std@@QEAA@XZ
	??0?$allocator@PEAVHitCounter@base@el@@@std@@QEAA@XZ
	??0?$allocator@U?$_Tree_node@U?$pair@$$CBV?$basic_string@DU?$char_traits@D@std@@V?$allocator@D@2@@std@@G@std@@PEAX@std@@@std@@QEAA@XZ
	??0?$allocator@U?$_Tree_node@U?$pair@$$CBV?$basic_string@DU?$char_traits@D@std@@V?$allocator@D@2@@std@@PEAVLogger@el@@@std@@PEAX@std@@@std@@QEAA@XZ
	??0?$allocator@U?$_Tree_node@U?$pair@$$CBV?$basic_string@DU?$char_traits@D@std@@V?$allocator@D@2@@std@@V12@@std@@PEAX@std@@@std@@QEAA@XZ
	??0?$allocator@U?$_Tree_node@U?$pair@$$CBV?$basic_string@DU?$char_traits@D@std@@V?$allocator@D@2@@std@@V?$shared_ptr@V?$basic_fstream@DU?$char_traits@D@std@@@std@@@2@@std@@PEAX@std@@@std@@QEAA@XZ
	??0?$allocator@U?$_Tree_node@U?$pair@$$CBV?$basic_string@DU?$char_traits@D@std@@V?$allocator@D@2@@std@@V?$shared_ptr@VLogDispatchCallback@el@@@2@@std@@PEAX@std@@@std@@QEAA@XZ
	??0?$allocator@U?$_Tree_node@U?$pair@$$CBV?$basic_string@DU?$char_traits@D@std@@V?$allocator@D@2@@std@@V?$shared_ptr@VLoggerRegistrationCallback@el@@@2@@std@@PEAX@std@@@std@@QEAA@XZ
	??0?$allocator@U?$_Tree_node@U?$pair@$$CBV?$basic_string@DU?$char_traits@D@std@@V?$allocator@D@2@@std@@V?$shared_ptr@VPerformanceTrackingCallback@el@@@2@@std@@PEAX@std@@@std@@QEAA@XZ
	??0?$allocator@U?$_Tree_node@U?$pair@$$CBW4Level@el@@I@std@@PEAX@std@@@std@@QEAA@XZ
	??0?$allocator@U?$_Tree_node@U?$pair@$$CBW4Level@el@@V?$basic_string@DU?$char_traits@D@std@@V?$allocator@D@2@@std@@@std@@PEAX@std@@@std@@QEAA@XZ
	??0?$allocator@U?$_Tree_node@U?$pair@$$CBW4Level@el@@V?$shared_ptr@V?$basic_fstream@DU?$char_traits@D@std@@@std@@@std@@@std@@PEAX@std@@@std@@QEAA@XZ
	??0?$allocator@U?$_Tree_node@U?$pair@$$CBW4Level@el@@VLogFormat@base@2@@std@@PEAX@std@@@std@@QEAA@XZ
	??0?$allocator@U?$_Tree_node@U?$pair@$$CBW4Level@el@@VSubsecondPrecision@base@2@@std@@PEAX@std@@@std@@QEAA@XZ
	??0?$allocator@U?$_Tree_node@U?$pair@$$CBW4Level@el@@_K@std@@PEAX@std@@@std@@QEAA@XZ
	??0?$allocator@U?$_Tree_node@U?$pair@$$CBW4Level@el@@_N@std@@PEAX@std@@@std@@QEAA@XZ
	??0?$allocator@Unode@DataSet@@@std@@QEAA@XZ
	??0?$allocator@V?$SyncArray@N@@@std@@QEAA@XZ
	??0?$allocator@V?$basic_string@DU?$char_traits@D@std@@V?$allocator@D@2@@std@@@std@@QEAA@XZ
	??0?$allocator@V?$vector@NV?$allocator@N@std@@@std@@@std@@QEAA@XZ
	??0?$allocator@V?$vector@Unode@DataSet@@V?$allocator@Unode@DataSet@@@std@@@std@@@std@@QEAA@XZ
	??0?$allocator@V?$vector@V?$vector@Unode@DataSet@@V?$allocator@Unode@DataSet@@@std@@@std@@V?$allocator@V?$vector@Unode@DataSet@@V?$allocator@Unode@DataSet@@@std@@@std@@@2@@std@@@std@@QEAA@XZ
	??0?$allocator@VCustomFormatSpecifier@el@@@std@@QEAA@XZ
	??0?$allocator@_N@std@@QEAA@XZ
	??0?$argument@$00@functional@detail@thrust@@QEAA@XZ
	??0?$argument@$01@functional@detail@thrust@@QEAA@XZ
	??0?$argument@$02@functional@detail@thrust@@QEAA@XZ
	??0?$argument@$03@functional@detail@thrust@@QEAA@XZ
	??0?$argument@$04@functional@detail@thrust@@QEAA@XZ
	??0?$argument@$05@functional@detail@thrust@@QEAA@XZ
	??0?$argument@$06@functional@detail@thrust@@QEAA@XZ
	??0?$argument@$07@functional@detail@thrust@@QEAA@XZ
	??0?$argument@$08@functional@detail@thrust@@QEAA@XZ
	??0?$argument@$0A@@functional@detail@thrust@@QEAA@XZ
	??0?$basic_filebuf@DU?$char_traits@D@std@@@std@@QEAA@XZ
	??0?$basic_fstream@DU?$char_traits@D@std@@@std@@QEAA@PEBDHH@Z
	??0?$basic_fstream@DU?$char_traits@D@std@@@std@@QEAA@XZ
	??0?$basic_ifstream@DU?$char_traits@D@std@@@std@@QEAA@AEBV?$basic_string@DU?$char_traits@D@std@@V?$allocator@D@2@@1@HH@Z
	??0?$basic_ifstream@DU?$char_traits@D@std@@@std@@QEAA@PEBDHH@Z
	??0?$basic_ifstream@DU?$char_traits@D@std@@@std@@QEAA@XZ
	??0?$basic_ofstream@DU?$char_traits@D@std@@@std@@QEAA@XZ
	??0?$basic_ostringstream@DU?$char_traits@D@std@@V?$allocator@D@2@@std@@QEAA@XZ
	??0?$basic_string@DU?$char_traits@D@std@@V?$allocator@D@2@@std@@QEAA@$$QEAV01@@Z
	??0?$basic_string@DU?$char_traits@D@std@@V?$allocator@D@2@@std@@QEAA@AEBV01@@Z
	??0?$basic_string@DU?$char_traits@D@std@@V?$allocator@D@2@@std@@QEAA@AEBV01@_K1AEBV?$allocator@D@1@@Z
	??0?$basic_string@DU?$char_traits@D@std@@V?$allocator@D@2@@std@@QEAA@AEBV?$allocator@D@1@@Z
	??0?$basic_string@DU?$char_traits@D@std@@V?$allocator@D@2@@std@@QEAA@QEBD@Z
	??0?$basic_string@DU?$char_traits@D@std@@V?$allocator@D@2@@std@@QEAA@U_String_constructor_concat_tag@1@AEBV01@QEBD_K23@Z
	??0?$basic_string@DU?$char_traits@D@std@@V?$allocator@D@2@@std@@QEAA@XZ
	??0?$basic_stringbuf@DU?$char_traits@D@std@@V?$allocator@D@2@@std@@QEAA@AEBV?$basic_string@DU?$char_traits@D@std@@V?$allocator@D@2@@1@H@Z
	??0?$basic_stringbuf@DU?$char_traits@D@std@@V?$allocator@D@2@@std@@QEAA@H@Z
	??0?$basic_stringstream@DU?$char_traits@D@std@@V?$allocator@D@2@@std@@QEAA@AEBV?$basic_string@DU?$char_traits@D@std@@V?$allocator@D@2@@1@H@Z
	??0?$basic_stringstream@DU?$char_traits@D@std@@V?$allocator@D@2@@std@@QEAA@XZ
	??0?$contiguous_storage@EU?$no_throw_allocator@V?$temporary_allocator@EUpar_t@cuda_cub@thrust@@@detail@thrust@@@detail@thrust@@@detail@thrust@@QEAA@_KAEBU?$no_throw_allocator@V?$temporary_allocator@EUpar_t@cuda_cub@thrust@@@detail@thrust@@@12@@Z
	??0?$cuda_optional@H@core@cuda_cub@thrust@@QEAA@HW4cudaError@@@Z
	??0?$fpos@U_Mbstatet@@@std@@QEAA@U_Mbstatet@@_J@Z
	??0?$fpos@U_Mbstatet@@@std@@QEAA@_J@Z
	??0?$function@$$A6A?AV?$basic_string@DU?$char_traits@D@std@@V?$allocator@D@2@@std@@PEBVLogMessage@el@@@Z@std@@QEAA@$$QEAV01@@Z
	??0?$function@$$A6A?AV?$basic_string@DU?$char_traits@D@std@@V?$allocator@D@2@@std@@PEBVLogMessage@el@@@Z@std@@QEAA@AEBV01@@Z
	??0?$iterator_adaptor@V?$normal_iterator@V?$pointer@EUpar_t@cuda_cub@thrust@@Uuse_default@3@U43@@thrust@@@detail@thrust@@V?$pointer@EUpar_t@cuda_cub@thrust@@Uuse_default@3@U43@@3@Uuse_default@3@U53@U53@U53@U53@@thrust@@QEAA@AEBV?$pointer@EUpar_t@cuda_cub@thrust@@Uuse_default@3@U43@@1@@Z
	??0?$iterator_adaptor@V?$pointer@EUpar_t@cuda_cub@thrust@@Uuse_default@3@U43@@thrust@@PEAEEUpar_t@cuda_cub@2@Urandom_access_traversal_tag@2@V?$reference@EV?$pointer@EUpar_t@cuda_cub@thrust@@Uuse_default@3@U43@@thrust@@Uuse_default@2@@2@_J@thrust@@QEAA@AEBQEAE@Z
	??0?$iterator_adaptor@V?$pointer@XUpar_t@cuda_cub@thrust@@Uuse_default@3@U43@@thrust@@PEAXXUpar_t@cuda_cub@2@Urandom_access_traversal_tag@2@X_J@thrust@@QEAA@AEBQEAX@Z
	??0?$map@V?$basic_string@DU?$char_traits@D@std@@V?$allocator@D@2@@std@@GU?$less@V?$basic_string@DU?$char_traits@D@std@@V?$allocator@D@2@@std@@@2@V?$allocator@U?$pair@$$CBV?$basic_string@DU?$char_traits@D@std@@V?$allocator@D@2@@std@@G@std@@@2@@std@@QEAA@XZ
	??0?$map@V?$basic_string@DU?$char_traits@D@std@@V?$allocator@D@2@@std@@PEAVLogger@el@@U?$less@V?$basic_string@DU?$char_traits@D@std@@V?$allocator@D@2@@std@@@2@V?$allocator@U?$pair@$$CBV?$basic_string@DU?$char_traits@D@std@@V?$allocator@D@2@@std@@PEAVLogger@el@@@std@@@2@@std@@QEAA@XZ
	??0?$map@V?$basic_string@DU?$char_traits@D@std@@V?$allocator@D@2@@std@@V12@U?$less@V?$basic_string@DU?$char_traits@D@std@@V?$allocator@D@2@@std@@@2@V?$allocator@U?$pair@$$CBV?$basic_string@DU?$char_traits@D@std@@V?$allocator@D@2@@std@@V12@@std@@@2@@std@@QEAA@XZ
	??0?$map@V?$basic_string@DU?$char_traits@D@std@@V?$allocator@D@2@@std@@V?$shared_ptr@V?$basic_fstream@DU?$char_traits@D@std@@@std@@@2@U?$less@V?$basic_string@DU?$char_traits@D@std@@V?$allocator@D@2@@std@@@2@V?$allocator@U?$pair@$$CBV?$basic_string@DU?$char_traits@D@std@@V?$allocator@D@2@@std@@V?$shared_ptr@V?$basic_fstream@DU?$char_traits@D@std@@@std@@@2@@std@@@2@@std@@QEAA@XZ
	??0?$map@V?$basic_string@DU?$char_traits@D@std@@V?$allocator@D@2@@std@@V?$shared_ptr@VLogDispatchCallback@el@@@2@U?$less@V?$basic_string@DU?$char_traits@D@std@@V?$allocator@D@2@@std@@@2@V?$allocator@U?$pair@$$CBV?$basic_string@DU?$char_traits@D@std@@V?$allocator@D@2@@std@@V?$shared_ptr@VLogDispatchCallback@el@@@2@@std@@@2@@std@@QEAA@XZ
	??0?$map@V?$basic_string@DU?$char_traits@D@std@@V?$allocator@D@2@@std@@V?$shared_ptr@VLoggerRegistrationCallback@el@@@2@U?$less@V?$basic_string@DU?$char_traits@D@std@@V?$allocator@D@2@@std@@@2@V?$allocator@U?$pair@$$CBV?$basic_string@DU?$char_traits@D@std@@V?$allocator@D@2@@std@@V?$shared_ptr@VLoggerRegistrationCallback@el@@@2@@std@@@2@@std@@QEAA@XZ
	??0?$map@V?$basic_string@DU?$char_traits@D@std@@V?$allocator@D@2@@std@@V?$shared_ptr@VPerformanceTrackingCallback@el@@@2@U?$less@V?$basic_string@DU?$char_traits@D@std@@V?$allocator@D@2@@std@@@2@V?$allocator@U?$pair@$$CBV?$basic_string@DU?$char_traits@D@std@@V?$allocator@D@2@@std@@V?$shared_ptr@VPerformanceTrackingCallback@el@@@2@@std@@@2@@std@@QEAA@XZ
	??0?$map@W4Level@el@@IU?$less@W4Level@el@@@std@@V?$allocator@U?$pair@$$CBW4Level@el@@I@std@@@4@@std@@QEAA@XZ
	??0?$map@W4Level@el@@V?$basic_string@DU?$char_traits@D@std@@V?$allocator@D@2@@std@@U?$less@W4Level@el@@@4@V?$allocator@U?$pair@$$CBW4Level@el@@V?$basic_string@DU?$char_traits@D@std@@V?$allocator@D@2@@std@@@std@@@4@@std@@QEAA@XZ
	??0?$map@W4Level@el@@V?$shared_ptr@V?$basic_fstream@DU?$char_traits@D@std@@@std@@@std@@U?$less@W4Level@el@@@4@V?$allocator@U?$pair@$$CBW4Level@el@@V?$shared_ptr@V?$basic_fstream@DU?$char_traits@D@std@@@std@@@std@@@std@@@4@@std@@QEAA@XZ
	??0?$map@W4Level@el@@VLogFormat@base@2@U?$less@W4Level@el@@@std@@V?$allocator@U?$pair@$$CBW4Level@el@@VLogFormat@base@2@@std@@@6@@std@@QEAA@XZ
	??0?$map@W4Level@el@@VSubsecondPrecision@base@2@U?$less@W4Level@el@@@std@@V?$allocator@U?$pair@$$CBW4Level@el@@VSubsecondPrecision@base@2@@std@@@6@@std@@QEAA@XZ
	??0?$map@W4Level@el@@_KU?$less@W4Level@el@@@std@@V?$allocator@U?$pair@$$CBW4Level@el@@_K@std@@@4@@std@@QEAA@XZ
	??0?$map@W4Level@el@@_NU?$less@W4Level@el@@@std@@V?$allocator@U?$pair@$$CBW4Level@el@@_N@std@@@4@@std@@QEAA@XZ
	??0?$no_throw_allocator@V?$temporary_allocator@EUpar_t@cuda_cub@thrust@@@detail@thrust@@@detail@thrust@@QEAA@AEBU012@@Z
	??0?$no_throw_allocator@V?$temporary_allocator@EUpar_t@cuda_cub@thrust@@@detail@thrust@@@detail@thrust@@QEAA@AEBV?$temporary_allocator@EUpar_t@cuda_cub@thrust@@@12@@Z
	??0?$normal_iterator@V?$pointer@EUpar_t@cuda_cub@thrust@@Uuse_default@3@U43@@thrust@@@detail@thrust@@QEAA@V?$pointer@EUpar_t@cuda_cub@thrust@@Uuse_default@3@U43@@2@@Z
	??0?$pair@V?$pointer@EUpar_t@cuda_cub@thrust@@Uuse_default@3@U43@@thrust@@_J@thrust@@QEAA@AEBV?$pointer@EUpar_t@cuda_cub@thrust@@Uuse_default@3@U43@@1@AEB_J@Z
	??0?$reference@EV?$pointer@EUpar_t@cuda_cub@thrust@@Uuse_default@3@U43@@thrust@@Uuse_default@2@@thrust@@QEAA@AEBV?$pointer@EUpar_t@cuda_cub@thrust@@Uuse_default@3@U43@@1@@Z
	??0?$reverse_iterator@PEAD@std@@QEAA@PEAD@Z
	??0?$reverse_iterator@V?$_String_iterator@V?$_String_val@U?$_Simple_types@D@std@@@std@@@std@@@std@@QEAA@$$QEAV01@@Z
	??0?$reverse_iterator@V?$_String_iterator@V?$_String_val@U?$_Simple_types@D@std@@@std@@@std@@@std@@QEAA@V?$_String_iterator@V?$_String_val@U?$_Simple_types@D@std@@@std@@@1@@Z
	??0?$shared_ptr@V?$basic_fstream@DU?$char_traits@D@std@@@std@@@std@@QEAA@$$QEAV01@@Z
	??0?$shared_ptr@V?$basic_fstream@DU?$char_traits@D@std@@@std@@@std@@QEAA@$$T@Z
	??0?$shared_ptr@V?$basic_fstream@DU?$char_traits@D@std@@@std@@@std@@QEAA@AEBV01@@Z
	??0?$shared_ptr@VLogBuilder@el@@@std@@QEAA@AEBV01@@Z
	??0?$shared_ptr@VLogBuilder@el@@@std@@QEAA@XZ
	??0?$shared_ptr@VLogDispatchCallback@el@@@std@@QEAA@$$QEAV01@@Z
	??0?$shared_ptr@VLogDispatchCallback@el@@@std@@QEAA@AEBV01@@Z
	??0?$shared_ptr@VLoggerRegistrationCallback@el@@@std@@QEAA@AEBV01@@Z
	??0?$tagged_allocator@EUpar_t@cuda_cub@thrust@@V?$pointer@EUpar_t@cuda_cub@thrust@@Uuse_default@3@U43@@3@@detail@thrust@@QEAA@XZ
	??0?$temporary_allocator@EUpar_t@cuda_cub@thrust@@@detail@thrust@@QEAA@AEAU?$execution_policy@Upar_t@cuda_cub@thrust@@@2@@Z
	??0?$temporary_allocator@EUpar_t@cuda_cub@thrust@@@detail@thrust@@QEAA@AEBV012@@Z
	??0?$temporary_array@EUpar_t@cuda_cub@thrust@@@detail@thrust@@QEAA@AEAU?$execution_policy@Upar_t@cuda_cub@thrust@@@2@_K@Z
	??0?$trivial_sequence@PEAHUpar_t@cuda_cub@thrust@@@detail@thrust@@QEAA@AEAU?$execution_policy@Upar_t@cuda_cub@thrust@@@2@PEAH1@Z
	??0?$trivial_sequence@PEANUpar_t@cuda_cub@thrust@@@detail@thrust@@QEAA@AEAU?$execution_policy@Upar_t@cuda_cub@thrust@@@2@PEAN1@Z
	??0?$unary_transform_f@PEAHPEAHUno_stencil_tag@__transform@cuda_cub@thrust@@U?$identity@H@4@Ualways_true_predicate@234@@__transform@cuda_cub@thrust@@QEAA@PEAH0Uno_stencil_tag@123@U?$identity@H@3@Ualways_true_predicate@123@@Z
	??0?$unary_transform_f@PEANPEANUno_stencil_tag@__transform@cuda_cub@thrust@@U?$identity@N@4@Ualways_true_predicate@234@@__transform@cuda_cub@thrust@@QEAA@PEAN0Uno_stencil_tag@123@U?$identity@N@3@Ualways_true_predicate@123@@Z
	??0?$vector@HV?$allocator@H@std@@@std@@QEAA@$$QEAV01@@Z
	??0?$vector@HV?$allocator@H@std@@@std@@QEAA@AEBV01@@Z
	??0?$vector@HV?$allocator@H@std@@@std@@QEAA@XZ
	??0?$vector@HV?$allocator@H@std@@@std@@QEAA@_KAEBHAEBV?$allocator@H@1@@Z
	??0?$vector@HV?$allocator@H@std@@@std@@QEAA@_KAEBV?$allocator@H@1@@Z
	??0?$vector@IV?$allocator@I@std@@@std@@QEAA@_KAEBIAEBV?$allocator@I@1@@Z
	??0?$vector@MV?$allocator@M@std@@@std@@QEAA@XZ
	??0?$vector@NV?$allocator@N@std@@@std@@QEAA@$$QEAV01@@Z
	??0?$vector@NV?$allocator@N@std@@@std@@QEAA@AEBV01@@Z
	??0?$vector@NV?$allocator@N@std@@@std@@QEAA@XZ
	??0?$vector@NV?$allocator@N@std@@@std@@QEAA@_KAEBNAEBV?$allocator@N@1@@Z
	??0?$vector@NV?$allocator@N@std@@@std@@QEAA@_KAEBV?$allocator@N@1@@Z
	??0?$vector@PEAVConfiguration@el@@V?$allocator@PEAVConfiguration@el@@@std@@@std@@QEAA@XZ
	??0?$vector@PEAVHitCounter@base@el@@V?$allocator@PEAVHitCounter@base@el@@@std@@@std@@QEAA@XZ
	??0?$vector@Unode@DataSet@@V?$allocator@Unode@DataSet@@@std@@@std@@QEAA@$$QEAV01@@Z
	??0?$vector@Unode@DataSet@@V?$allocator@Unode@DataSet@@@std@@@std@@QEAA@AEBV01@@Z
	??0?$vector@Unode@DataSet@@V?$allocator@Unode@DataSet@@@std@@@std@@QEAA@XZ
	??0?$vector@V?$SyncArray@N@@V?$allocator@V?$SyncArray@N@@@std@@@std@@QEAA@_KAEBV?$allocator@V?$SyncArray@N@@@1@@Z
	??0?$vector@V?$basic_string@DU?$char_traits@D@std@@V?$allocator@D@2@@std@@V?$allocator@V?$basic_string@DU?$char_traits@D@std@@V?$allocator@D@2@@std@@@2@@std@@QEAA@XZ
	??0?$vector@V?$vector@NV?$allocator@N@std@@@std@@V?$allocator@V?$vector@NV?$allocator@N@std@@@std@@@2@@std@@QEAA@_KAEBV?$allocator@V?$vector@NV?$allocator@N@std@@@std@@@1@@Z
	??0?$vector@V?$vector@NV?$allocator@N@std@@@std@@V?$allocator@V?$vector@NV?$allocator@N@std@@@std@@@2@@std@@QEAA@_KAEBV?$vector@NV?$allocator@N@std@@@1@AEBV?$allocator@V?$vector@NV?$allocator@N@std@@@std@@@1@@Z
	??0?$vector@V?$vector@Unode@DataSet@@V?$allocator@Unode@DataSet@@@std@@@std@@V?$allocator@V?$vector@Unode@DataSet@@V?$allocator@Unode@DataSet@@@std@@@std@@@2@@std@@QEAA@$$QEAV01@@Z
	??0?$vector@V?$vector@Unode@DataSet@@V?$allocator@Unode@DataSet@@@std@@@std@@V?$allocator@V?$vector@Unode@DataSet@@V?$allocator@Unode@DataSet@@@std@@@std@@@2@@std@@QEAA@AEBV01@@Z
	??0?$vector@V?$vector@Unode@DataSet@@V?$allocator@Unode@DataSet@@@std@@@std@@V?$allocator@V?$vector@Unode@DataSet@@V?$allocator@Unode@DataSet@@@std@@@std@@@2@@std@@QEAA@XZ
	??0?$vector@V?$vector@V?$vector@Unode@DataSet@@V?$allocator@Unode@DataSet@@@std@@@std@@V?$allocator@V?$vector@Unode@DataSet@@V?$allocator@Unode@DataSet@@@std@@@std@@@2@@std@@V?$allocator@V?$vector@V?$vector@Unode@DataSet@@V?$allocator@Unode@DataSet@@@std@@@std@@V?$allocator@V?$vector@Unode@DataSet@@V?$allocator@Unode@DataSet@@@std@@@std@@@2@@std@@@2@@std@@QEAA@_KAEBV?$allocator@V?$vector@V?$vector@Unode@DataSet@@V?$allocator@Unode@DataSet@@@std@@@std@@V?$allocator@V?$vector@Unode@DataSet@@V?$allocator@Unode@DataSet@@@std@@@std@@@2@@std@@@1@@Z
	??0?$vector@VCustomFormatSpecifier@el@@V?$allocator@VCustomFormatSpecifier@el@@@std@@@std@@QEAA@XZ
	??0?$vector@_NV?$allocator@_N@std@@@std@@QEAA@_KAEB_NAEBV?$allocator@_N@1@@Z
	??0Accuracy@@QEAA@XZ
	??0AgentPlan@core@cuda_cub@thrust@@QEAA@AEBU0123@@Z
	??0CMDParser@@QEAA@XZ
	??0CSMOSolver@@QEAA@XZ
	??0CommandLineArgs@utils@base@el@@QEAA@XZ
	??0Configuration@el@@QEAA@AEBV01@@Z
	??0Configuration@el@@QEAA@W4Level@1@W4ConfigurationType@1@AEBV?$basic_string@DU?$char_traits@D@std@@V?$allocator@D@2@@std@@@Z
	??0Configurations@el@@QEAA@AEBV?$basic_string@DU?$char_traits@D@std@@V?$allocator@D@2@@std@@_NPEAV01@@Z
	??0Configurations@el@@QEAA@XZ
	??0CrashHandler@debug@base@el@@QEAA@_N@Z
	??0CustomFormatSpecifier@el@@QEAA@$$QEAV01@@Z
	??0CustomFormatSpecifier@el@@QEAA@AEBV01@@Z
	??0DataSet@@QEAA@AEBV0@@Z
	??0DataSet@@QEAA@AEBV?$vector@V?$vector@Unode@DataSet@@V?$allocator@Unode@DataSet@@@std@@@std@@V?$allocator@V?$vector@Unode@DataSet@@V?$allocator@Unode@DataSet@@@std@@@std@@@2@@std@@HAEBV?$vector@NV?$allocator@N@std@@@2@@Z
	??0DataSet@@QEAA@XZ
	??0DefaultLogBuilder@base@el@@QEAA@XZ
	??0DefaultLogDispatchCallback@base@el@@QEAA@XZ
	??0HitCounter@base@el@@QEAA@AEBV012@@Z
	??0HitCounter@base@el@@QEAA@PEBDK@Z
	??0KernelConfig@cub@cuda_cub@thrust@@QEAA@XZ
	??0KernelMatrix@@QEAA@AEBV?$vector@V?$vector@Unode@DataSet@@V?$allocator@Unode@DataSet@@@std@@@std@@V?$allocator@V?$vector@Unode@DataSet@@V?$allocator@Unode@DataSet@@@std@@@std@@@2@@std@@USvmParam@@@Z
	??0LogBuilder@el@@QEAA@XZ
	??0LogDispatchCallback@el@@QEAA@XZ
	??0LogDispatchData@el@@QEAA@XZ
	??0LogDispatcher@base@el@@QEAA@_N$$QEAVLogMessage@2@W4DispatchAction@12@@Z
	??0LogFormat@base@el@@QEAA@$$QEAV012@@Z
	??0LogFormat@base@el@@QEAA@AEBV012@@Z
	??0LogFormat@base@el@@QEAA@W4Level@2@AEBV?$basic_string@DU?$char_traits@D@std@@V?$allocator@D@2@@std@@@Z
	??0LogFormat@base@el@@QEAA@XZ
	??0LogMessage@el@@QEAA@$$QEAV01@@Z
	??0LogMessage@el@@QEAA@W4Level@1@AEBV?$basic_string@DU?$char_traits@D@std@@V?$allocator@D@2@@std@@K1GPEAVLogger@1@@Z
	??0Loggable@el@@QEAA@XZ
	??0Logger@el@@QEAA@AEBV01@@Z
	??0Logger@el@@QEAA@AEBV?$basic_string@DU?$char_traits@D@std@@V?$allocator@D@2@@std@@AEBVConfigurations@1@PEAV?$map@V?$basic_string@DU?$char_traits@D@std@@V?$allocator@D@2@@std@@V?$shared_ptr@V?$basic_fstream@DU?$char_traits@D@std@@@std@@@2@U?$less@V?$basic_string@DU?$char_traits@D@std@@V?$allocator@D@2@@std@@@2@V?$allocator@U?$pair@$$CBV?$basic_string@DU?$char_traits@D@std@@V?$allocator@D@2@@std@@V?$shared_ptr@V?$basic_fstream@DU?$char_traits@D@std@@@std@@@2@@std@@@2@@3@@Z
	??0Logger@el@@QEAA@AEBV?$basic_string@DU?$char_traits@D@std@@V?$allocator@D@2@@std@@PEAV?$map@V?$basic_string@DU?$char_traits@D@std@@V?$allocator@D@2@@std@@V?$shared_ptr@V?$basic_fstream@DU?$char_traits@D@std@@@std@@@2@U?$less@V?$basic_string@DU?$char_traits@D@std@@V?$allocator@D@2@@std@@@2@V?$allocator@U?$pair@$$CBV?$basic_string@DU?$char_traits@D@std@@V?$allocator@D@2@@std@@V?$shared_ptr@V?$basic_fstream@DU?$char_traits@D@std@@@std@@@2@@std@@@2@@3@@Z
	??0MSE@@QEAA@XZ
	??0MessageBuilder@base@el@@QEAA@XZ
	??0Metric@@QEAA@XZ
	??0NoCopy@base@el@@IEAA@XZ
	??0NoMutex@internal@threading@base@el@@QEAA@XZ
	??0NuSMOSolver@@QEAA@_N@Z
	??0NuSVC@@QEAA@XZ
	??0NuSVR@@QEAA@XZ
	??0OneClassSVC@@QEAA@XZ
	??0Predicate@Configuration@el@@QEAA@W4Level@2@W4ConfigurationType@2@@Z
	??0Predicate@HitCounter@base@el@@QEAA@PEBDK@Z
	??0RegisteredHitCounters@base@el@@QEAA@XZ
	??0RegisteredLoggers@base@el@@QEAA@AEBV?$shared_ptr@VLogBuilder@el@@@std@@@Z
	??0SVC@@QEAA@XZ
	??0SVR@@QEAA@XZ
	??0Storage@base@el@@QEAA@AEBV?$shared_ptr@VLogBuilder@el@@@std@@@Z
	??0SubsecondPrecision@base@el@@QEAA@H@Z
	??0SvmModel@@QEAA@XZ
	??0SvmParam@@QEAA@XZ
	??0SyncMem@thunder@@QEAA@XZ
	??0SyncMem@thunder@@QEAA@_K@Z
	??0ThreadSafe@threading@base@el@@IEAA@XZ
	??0TypedConfigurations@base@el@@QEAA@AEBV012@@Z
	??0TypedConfigurations@base@el@@QEAA@PEAVConfigurations@2@PEAV?$map@V?$basic_string@DU?$char_traits@D@std@@V?$allocator@D@2@@std@@V?$shared_ptr@V?$basic_fstream@DU?$char_traits@D@std@@@std@@@2@U?$less@V?$basic_string@DU?$char_traits@D@std@@V?$allocator@D@2@@std@@@2@V?$allocator@U?$pair@$$CBV?$basic_string@DU?$char_traits@D@std@@V?$allocator@D@2@@std@@V?$shared_ptr@V?$basic_fstream@DU?$char_traits@D@std@@@std@@@2@@std@@@2@@std@@@Z
	??0VRegistry@base@el@@QEAA@GPEAI@Z
	??0Writer@base@el@@QEAA@W4Level@2@PEBDK1W4DispatchAction@12@G@Z
	??0_Basic_container_proxy_ptr12@std@@IEAA@XZ
	??0_Bxty@?$_String_val@U?$_Simple_types@D@std@@@std@@QEAA@XZ
	??0_Container_base12@std@@QEAA@XZ
	??0_Container_proxy@std@@QEAA@PEAU_Container_base12@1@@Z
	??0_Iterator_base12@std@@QEAA@AEBU01@@Z
	??0_Iterator_base12@std@@QEAA@XZ
	??0_Ref_count_base@std@@IEAA@XZ
	??0_Sentry_base@?$basic_istream@DU?$char_traits@D@std@@@std@@QEAA@AEAV12@@Z
	??0_Sentry_base@?$basic_ostream@DU?$char_traits@D@std@@@std@@QEAA@AEAV12@@Z
	??0bad_alloc@detail@system@thrust@@QEAA@AEBV0123@@Z
	??0bad_alloc@detail@system@thrust@@QEAA@AEBV?$basic_string@DU?$char_traits@D@std@@V?$allocator@D@2@@std@@@Z
	??0bad_alloc@std@@AEAA@QEBD@Z
	??0bad_alloc@std@@QEAA@AEBV01@@Z
	??0bad_alloc@std@@QEAA@XZ
	??0bad_array_new_length@std@@QEAA@AEBV01@@Z
	??0bad_array_new_length@std@@QEAA@XZ
	??0bad_cast@std@@QEAA@AEBV01@@Z
	??0bad_cast@std@@QEAA@XZ
	??0cuda_error_category@detail@cuda_cub@system@thrust@@QEAA@XZ
	??0dim3@@QEAA@III@Z
	??0error_category@system@thrust@@QEAA@XZ
	??0error_code@system@thrust@@QEAA@HAEBVerror_category@12@@Z
	??0error_condition@system@thrust@@QEAA@HAEBVerror_category@12@@Z
	??0exception@std@@QEAA@AEBV01@@Z
	??0exception@std@@QEAA@QEBD@Z
	??0exception@std@@QEAA@QEBDH@Z
	??0generic_error_category@detail@system@thrust@@QEAA@XZ
	??0node@DataSet@@QEAA@HM@Z
	??0par_t@cuda_cub@thrust@@QEAA@XZ
	??0par_t@detail@cpp@system@thrust@@QEAA@XZ
	??0runtime_error@std@@QEAA@AEBV01@@Z
	??0runtime_error@std@@QEAA@PEBD@Z
	??0sentry@?$basic_istream@DU?$char_traits@D@std@@@std@@QEAA@AEAV12@_N@Z
	??0sentry@?$basic_ostream@DU?$char_traits@D@std@@@std@@QEAA@AEAV12@@Z
	??0seq_t@detail@thrust@@QEAA@XZ
	??0system_error@system@thrust@@QEAA@AEBV012@@Z
	??0system_error@system@thrust@@QEAA@HAEBVerror_category@12@PEBD@Z
	??0system_error_category@detail@system@thrust@@QEAA@XZ
	??0tag@sequential@detail@system@thrust@@QEAA@XZ
	??0triple_chevron@launcher@cuda_cub@thrust@@QEAA@Udim3@@0_KPEAUCUstream_st@@@Z
	??1?$AbstractRegistry@VConfiguration@el@@V?$vector@PEAVConfiguration@el@@V?$allocator@PEAVConfiguration@el@@@std@@@std@@@utils@base@el@@UEAA@XZ
	??1?$AbstractRegistry@VHitCounter@base@el@@V?$vector@PEAVHitCounter@base@el@@V?$allocator@PEAVHitCounter@base@el@@@std@@@std@@@utils@base@el@@UEAA@XZ
	??1?$AbstractRegistry@VLogger@el@@V?$map@V?$basic_string@DU?$char_traits@D@std@@V?$allocator@D@2@@std@@PEAVLogger@el@@U?$less@V?$basic_string@DU?$char_traits@D@std@@V?$allocator@D@2@@std@@@2@V?$allocator@U?$pair@$$CBV?$basic_string@DU?$char_traits@D@std@@V?$allocator@D@2@@std@@PEAVLogger@el@@@std@@@2@@std@@@utils@base@el@@UEAA@XZ
	??1?$Callback@VLogDispatchData@el@@@el@@UEAA@XZ
	??1?$NoScopedLock@VNoMutex@internal@threading@base@el@@@internal@threading@base@el@@UEAA@XZ
	??1?$Registry@VLogger@el@@V?$basic_string@DU?$char_traits@D@std@@V?$allocator@D@2@@std@@@utils@base@el@@UEAA@XZ
	??1?$RegistryWithPred@VConfiguration@el@@VPredicate@12@@utils@base@el@@UEAA@XZ
	??1?$RegistryWithPred@VHitCounter@base@el@@VPredicate@123@@utils@base@el@@UEAA@XZ
	??1?$SyncArray@H@@UEAA@XZ
	??1?$SyncArray@M@@UEAA@XZ
	??1?$SyncArray@N@@UEAA@XZ
	??1?$_Alloc_construct_ptr@V?$allocator@U?$_Tree_node@U?$pair@$$CBV?$basic_string@DU?$char_traits@D@std@@V?$allocator@D@2@@std@@G@std@@PEAX@std@@@std@@@std@@QEAA@XZ
	??1?$_Alloc_construct_ptr@V?$allocator@U?$_Tree_node@U?$pair@$$CBV?$basic_string@DU?$char_traits@D@std@@V?$allocator@D@2@@std@@PEAVLogger@el@@@std@@PEAX@std@@@std@@@std@@QEAA@XZ
	??1?$_Alloc_construct_ptr@V?$allocator@U?$_Tree_node@U?$pair@$$CBV?$basic_string@DU?$char_traits@D@std@@V?$allocator@D@2@@std@@V12@@std@@PEAX@std@@@std@@@std@@QEAA@XZ
	??1?$_Alloc_construct_ptr@V?$allocator@U?$_Tree_node@U?$pair@$$CBV?$basic_string@DU?$char_traits@D@std@@V?$allocator@D@2@@std@@V?$shared_ptr@V?$basic_fstream@DU?$char_traits@D@std@@@std@@@2@@std@@PEAX@std@@@std@@@std@@QEAA@XZ
	??1?$_Alloc_construct_ptr@V?$allocator@U?$_Tree_node@U?$pair@$$CBV?$basic_string@DU?$char_traits@D@std@@V?$allocator@D@2@@std@@V?$shared_ptr@VLogDispatchCallback@el@@@2@@std@@PEAX@std@@@std@@@std@@QEAA@XZ
	??1?$_Alloc_construct_ptr@V?$allocator@U?$_Tree_node@U?$pair@$$CBW4Level@el@@I@std@@PEAX@std@@@std@@@std@@QEAA@XZ
	??1?$_Alloc_construct_ptr@V?$allocator@U?$_Tree_node@U?$pair@$$CBW4Level@el@@V?$basic_string@DU?$char_traits@D@std@@V?$allocator@D@2@@std@@@std@@PEAX@std@@@std@@@std@@QEAA@XZ
	??1?$_Alloc_construct_ptr@V?$allocator@U?$_Tree_node@U?$pair@$$CBW4Level@el@@V?$shared_ptr@V?$basic_fstream@DU?$char_traits@D@std@@@std@@@std@@@std@@PEAX@std@@@std@@@std@@QEAA@XZ
	??1?$_Alloc_construct_ptr@V?$allocator@U?$_Tree_node@U?$pair@$$CBW4Level@el@@VLogFormat@base@2@@std@@PEAX@std@@@std@@@std@@QEAA@XZ
	??1?$_Alloc_construct_ptr@V?$allocator@U?$_Tree_node@U?$pair@$$CBW4Level@el@@VSubsecondPrecision@base@2@@std@@PEAX@std@@@std@@@std@@QEAA@XZ
	??1?$_Alloc_construct_ptr@V?$allocator@U?$_Tree_node@U?$pair@$$CBW4Level@el@@_K@std@@PEAX@std@@@std@@@std@@QEAA@XZ
	??1?$_Alloc_construct_ptr@V?$allocator@U?$_Tree_node@U?$pair@$$CBW4Level@el@@_N@std@@PEAX@std@@@std@@@std@@QEAA@XZ
	??1?$_Compressed_pair@V?$allocator@D@std@@V?$_String_val@U?$_Simple_types@D@std@@@2@$00@std@@QEAA@XZ
	??1?$_Container_proxy_ptr12@V?$allocator@U_Container_proxy@std@@@std@@@std@@QEAA@XZ
	??1?$_Func_class@V?$basic_string@DU?$char_traits@D@std@@V?$allocator@D@2@@std@@PEBVLogMessage@el@@@std@@QEAA@XZ
	??1?$_Func_class@XPEBD_K@std@@QEAA@XZ
	??1?$_Func_class@_N$$V@std@@QEAA@XZ
	??1?$_Ref_count@V?$basic_fstream@DU?$char_traits@D@std@@@std@@@std@@UEAA@XZ
	??1?$_Ref_count@VDefaultLogBuilder@base@el@@@std@@UEAA@XZ
	??1?$_Ref_count@VDefaultLogDispatchCallback@base@el@@@std@@UEAA@XZ
	??1?$_Ref_count@VStorage@base@el@@@std@@UEAA@XZ
	??1?$_String_const_iterator@V?$_String_val@U?$_Simple_types@D@std@@@std@@@std@@QEAA@XZ
	??1?$_String_iterator@V?$_String_val@U?$_Simple_types@D@std@@@std@@@std@@QEAA@XZ
	??1?$_String_val@U?$_Simple_types@D@std@@@std@@QEAA@XZ
	??1?$_Temporary_owner@V?$basic_fstream@DU?$char_traits@D@std@@@std@@@std@@QEAA@XZ
	??1?$_Temporary_owner@VDefaultLogBuilder@base@el@@@std@@QEAA@XZ
	??1?$_Temporary_owner@VDefaultLogDispatchCallback@base@el@@@std@@QEAA@XZ
	??1?$_Temporary_owner@VStorage@base@el@@@std@@QEAA@XZ
	??1?$_Tidy_guard@V?$vector@HV?$allocator@H@std@@@std@@@std@@QEAA@XZ
	??1?$_Tidy_guard@V?$vector@IV?$allocator@I@std@@@std@@@std@@QEAA@XZ
	??1?$_Tidy_guard@V?$vector@NV?$allocator@N@std@@@std@@@std@@QEAA@XZ
	??1?$_Tidy_guard@V?$vector@Unode@DataSet@@V?$allocator@Unode@DataSet@@@std@@@std@@@std@@QEAA@XZ
	??1?$_Tidy_guard@V?$vector@V?$SyncArray@N@@V?$allocator@V?$SyncArray@N@@@std@@@std@@@std@@QEAA@XZ
	??1?$_Tidy_guard@V?$vector@V?$vector@NV?$allocator@N@std@@@std@@V?$allocator@V?$vector@NV?$allocator@N@std@@@std@@@2@@std@@@std@@QEAA@XZ
	??1?$_Tidy_guard@V?$vector@V?$vector@Unode@DataSet@@V?$allocator@Unode@DataSet@@@std@@@std@@V?$allocator@V?$vector@Unode@DataSet@@V?$allocator@Unode@DataSet@@@std@@@std@@@2@@std@@@std@@QEAA@XZ
	??1?$_Tidy_guard@V?$vector@V?$vector@V?$vector@Unode@DataSet@@V?$allocator@Unode@DataSet@@@std@@@std@@V?$allocator@V?$vector@Unode@DataSet@@V?$allocator@Unode@DataSet@@@std@@@std@@@2@@std@@V?$allocator@V?$vector@V?$vector@Unode@DataSet@@V?$allocator@Unode@DataSet@@@std@@@std@@V?$allocator@V?$vector@Unode@DataSet@@V?$allocator@Unode@DataSet@@@std@@@std@@@2@@std@@@2@@std@@@std@@QEAA@XZ
	??1?$_Tree@V?$_Tmap_traits@V?$basic_string@DU?$char_traits@D@std@@V?$allocator@D@2@@std@@GU?$less@V?$basic_string@DU?$char_traits@D@std@@V?$allocator@D@2@@std@@@2@V?$allocator@U?$pair@$$CBV?$basic_string@DU?$char_traits@D@std@@V?$allocator@D@2@@std@@G@std@@@2@$0A@@std@@@std@@QEAA@XZ
	??1?$_Tree@V?$_Tmap_traits@V?$basic_string@DU?$char_traits@D@std@@V?$allocator@D@2@@std@@PEAVLogger@el@@U?$less@V?$basic_string@DU?$char_traits@D@std@@V?$allocator@D@2@@std@@@2@V?$allocator@U?$pair@$$CBV?$basic_string@DU?$char_traits@D@std@@V?$allocator@D@2@@std@@PEAVLogger@el@@@std@@@2@$0A@@std@@@std@@QEAA@XZ
	??1?$_Tree@V?$_Tmap_traits@V?$basic_string@DU?$char_traits@D@std@@V?$allocator@D@2@@std@@V12@U?$less@V?$basic_string@DU?$char_traits@D@std@@V?$allocator@D@2@@std@@@2@V?$allocator@U?$pair@$$CBV?$basic_string@DU?$char_traits@D@std@@V?$allocator@D@2@@std@@V12@@std@@@2@$0A@@std@@@std@@QEAA@XZ
	??1?$_Tree@V?$_Tmap_traits@V?$basic_string@DU?$char_traits@D@std@@V?$allocator@D@2@@std@@V?$shared_ptr@V?$basic_fstream@DU?$char_traits@D@std@@@std@@@2@U?$less@V?$basic_string@DU?$char_traits@D@std@@V?$allocator@D@2@@std@@@2@V?$allocator@U?$pair@$$CBV?$basic_string@DU?$char_traits@D@std@@V?$allocator@D@2@@std@@V?$shared_ptr@V?$basic_fstream@DU?$char_traits@D@std@@@std@@@2@@std@@@2@$0A@@std@@@std@@QEAA@XZ
	??1?$_Tree@V?$_Tmap_traits@V?$basic_string@DU?$char_traits@D@std@@V?$allocator@D@2@@std@@V?$shared_ptr@VLogDispatchCallback@el@@@2@U?$less@V?$basic_string@DU?$char_traits@D@std@@V?$allocator@D@2@@std@@@2@V?$allocator@U?$pair@$$CBV?$basic_string@DU?$char_traits@D@std@@V?$allocator@D@2@@std@@V?$shared_ptr@VLogDispatchCallback@el@@@2@@std@@@2@$0A@@std@@@std@@QEAA@XZ
	??1?$_Tree@V?$_Tmap_traits@V?$basic_string@DU?$char_traits@D@std@@V?$allocator@D@2@@std@@V?$shared_ptr@VLoggerRegistrationCallback@el@@@2@U?$less@V?$basic_string@DU?$char_traits@D@std@@V?$allocator@D@2@@std@@@2@V?$allocator@U?$pair@$$CBV?$basic_string@DU?$char_traits@D@std@@V?$allocator@D@2@@std@@V?$shared_ptr@VLoggerRegistrationCallback@el@@@2@@std@@@2@$0A@@std@@@std@@QEAA@XZ
	??1?$_Tree@V?$_Tmap_traits@V?$basic_string@DU?$char_traits@D@std@@V?$allocator@D@2@@std@@V?$shared_ptr@VPerformanceTrackingCallback@el@@@2@U?$less@V?$basic_string@DU?$char_traits@D@std@@V?$allocator@D@2@@std@@@2@V?$allocator@U?$pair@$$CBV?$basic_string@DU?$char_traits@D@std@@V?$allocator@D@2@@std@@V?$shared_ptr@VPerformanceTrackingCallback@el@@@2@@std@@@2@$0A@@std@@@std@@QEAA@XZ
	??1?$_Tree@V?$_Tmap_traits@W4Level@el@@IU?$less@W4Level@el@@@std@@V?$allocator@U?$pair@$$CBW4Level@el@@I@std@@@4@$0A@@std@@@std@@QEAA@XZ
	??1?$_Tree@V?$_Tmap_traits@W4Level@el@@V?$basic_string@DU?$char_traits@D@std@@V?$allocator@D@2@@std@@U?$less@W4Level@el@@@4@V?$allocator@U?$pair@$$CBW4Level@el@@V?$basic_string@DU?$char_traits@D@std@@V?$allocator@D@2@@std@@@std@@@4@$0A@@std@@@std@@QEAA@XZ
	??1?$_Tree@V?$_Tmap_traits@W4Level@el@@V?$shared_ptr@V?$basic_fstream@DU?$char_traits@D@std@@@std@@@std@@U?$less@W4Level@el@@@4@V?$allocator@U?$pair@$$CBW4Level@el@@V?$shared_ptr@V?$basic_fstream@DU?$char_traits@D@std@@@std@@@std@@@std@@@4@$0A@@std@@@std@@QEAA@XZ
	??1?$_Tree@V?$_Tmap_traits@W4Level@el@@VLogFormat@base@2@U?$less@W4Level@el@@@std@@V?$allocator@U?$pair@$$CBW4Level@el@@VLogFormat@base@2@@std@@@6@$0A@@std@@@std@@QEAA@XZ
	??1?$_Tree@V?$_Tmap_traits@W4Level@el@@VSubsecondPrecision@base@2@U?$less@W4Level@el@@@std@@V?$allocator@U?$pair@$$CBW4Level@el@@VSubsecondPrecision@base@2@@std@@@6@$0A@@std@@@std@@QEAA@XZ
	??1?$_Tree@V?$_Tmap_traits@W4Level@el@@_KU?$less@W4Level@el@@@std@@V?$allocator@U?$pair@$$CBW4Level@el@@_K@std@@@4@$0A@@std@@@std@@QEAA@XZ
	??1?$_Tree@V?$_Tmap_traits@W4Level@el@@_NU?$less@W4Level@el@@@std@@V?$allocator@U?$pair@$$CBW4Level@el@@_N@std@@@4@$0A@@std@@@std@@QEAA@XZ
	??1?$_Tree_const_iterator@V?$_Tree_val@U?$_Tree_simple_types@U?$pair@$$CBV?$basic_string@DU?$char_traits@D@std@@V?$allocator@D@2@@std@@G@std@@@std@@@std@@@std@@QEAA@XZ
	??1?$_Tree_const_iterator@V?$_Tree_val@U?$_Tree_simple_types@U?$pair@$$CBV?$basic_string@DU?$char_traits@D@std@@V?$allocator@D@2@@std@@PEAVLogger@el@@@std@@@std@@@std@@@std@@QEAA@XZ
	??1?$_Tree_const_iterator@V?$_Tree_val@U?$_Tree_simple_types@U?$pair@$$CBV?$basic_string@DU?$char_traits@D@std@@V?$allocator@D@2@@std@@V12@@std@@@std@@@std@@@std@@QEAA@XZ
	??1?$_Tree_const_iterator@V?$_Tree_val@U?$_Tree_simple_types@U?$pair@$$CBV?$basic_string@DU?$char_traits@D@std@@V?$allocator@D@2@@std@@V?$shared_ptr@V?$basic_fstream@DU?$char_traits@D@std@@@std@@@2@@std@@@std@@@std@@@std@@QEAA@XZ
	??1?$_Tree_const_iterator@V?$_Tree_val@U?$_Tree_simple_types@U?$pair@$$CBV?$basic_string@DU?$char_traits@D@std@@V?$allocator@D@2@@std@@V?$shared_ptr@VLogDispatchCallback@el@@@2@@std@@@std@@@std@@@std@@QEAA@XZ
	??1?$_Tree_const_iterator@V?$_Tree_val@U?$_Tree_simple_types@U?$pair@$$CBW4Level@el@@I@std@@@std@@@std@@@std@@QEAA@XZ
	??1?$_Tree_const_iterator@V?$_Tree_val@U?$_Tree_simple_types@U?$pair@$$CBW4Level@el@@V?$basic_string@DU?$char_traits@D@std@@V?$allocator@D@2@@std@@@std@@@std@@@std@@@std@@QEAA@XZ
	??1?$_Tree_const_iterator@V?$_Tree_val@U?$_Tree_simple_types@U?$pair@$$CBW4Level@el@@V?$shared_ptr@V?$basic_fstream@DU?$char_traits@D@std@@@std@@@std@@@std@@@std@@@std@@@std@@QEAA@XZ
	??1?$_Tree_const_iterator@V?$_Tree_val@U?$_Tree_simple_types@U?$pair@$$CBW4Level@el@@VLogFormat@base@2@@std@@@std@@@std@@@std@@QEAA@XZ
	??1?$_Tree_const_iterator@V?$_Tree_val@U?$_Tree_simple_types@U?$pair@$$CBW4Level@el@@VSubsecondPrecision@base@2@@std@@@std@@@std@@@std@@QEAA@XZ
	??1?$_Tree_const_iterator@V?$_Tree_val@U?$_Tree_simple_types@U?$pair@$$CBW4Level@el@@_K@std@@@std@@@std@@@std@@QEAA@XZ
	??1?$_Tree_const_iterator@V?$_Tree_val@U?$_Tree_simple_types@U?$pair@$$CBW4Level@el@@_N@std@@@std@@@std@@@std@@QEAA@XZ
	??1?$_Tree_iterator@V?$_Tree_val@U?$_Tree_simple_types@U?$pair@$$CBV?$basic_string@DU?$char_traits@D@std@@V?$allocator@D@2@@std@@G@std@@@std@@@std@@@std@@QEAA@XZ
	??1?$_Tree_iterator@V?$_Tree_val@U?$_Tree_simple_types@U?$pair@$$CBV?$basic_string@DU?$char_traits@D@std@@V?$allocator@D@2@@std@@PEAVLogger@el@@@std@@@std@@@std@@@std@@QEAA@XZ
	??1?$_Tree_iterator@V?$_Tree_val@U?$_Tree_simple_types@U?$pair@$$CBV?$basic_string@DU?$char_traits@D@std@@V?$allocator@D@2@@std@@V12@@std@@@std@@@std@@@std@@QEAA@XZ
	??1?$_Tree_iterator@V?$_Tree_val@U?$_Tree_simple_types@U?$pair@$$CBV?$basic_string@DU?$char_traits@D@std@@V?$allocator@D@2@@std@@V?$shared_ptr@V?$basic_fstream@DU?$char_traits@D@std@@@std@@@2@@std@@@std@@@std@@@std@@QEAA@XZ
	??1?$_Tree_iterator@V?$_Tree_val@U?$_Tree_simple_types@U?$pair@$$CBV?$basic_string@DU?$char_traits@D@std@@V?$allocator@D@2@@std@@V?$shared_ptr@VLogDispatchCallback@el@@@2@@std@@@std@@@std@@@std@@QEAA@XZ
	??1?$_Tree_iterator@V?$_Tree_val@U?$_Tree_simple_types@U?$pair@$$CBW4Level@el@@I@std@@@std@@@std@@@std@@QEAA@XZ
	??1?$_Tree_iterator@V?$_Tree_val@U?$_Tree_simple_types@U?$pair@$$CBW4Level@el@@V?$basic_string@DU?$char_traits@D@std@@V?$allocator@D@2@@std@@@std@@@std@@@std@@@std@@QEAA@XZ
	??1?$_Tree_iterator@V?$_Tree_val@U?$_Tree_simple_types@U?$pair@$$CBW4Level@el@@V?$shared_ptr@V?$basic_fstream@DU?$char_traits@D@std@@@std@@@std@@@std@@@std@@@std@@@std@@QEAA@XZ
	??1?$_Tree_iterator@V?$_Tree_val@U?$_Tree_simple_types@U?$pair@$$CBW4Level@el@@VLogFormat@base@2@@std@@@std@@@std@@@std@@QEAA@XZ
	??1?$_Tree_iterator@V?$_Tree_val@U?$_Tree_simple_types@U?$pair@$$CBW4Level@el@@VSubsecondPrecision@base@2@@std@@@std@@@std@@@std@@QEAA@XZ
	??1?$_Tree_iterator@V?$_Tree_val@U?$_Tree_simple_types@U?$pair@$$CBW4Level@el@@_K@std@@@std@@@std@@@std@@QEAA@XZ
	??1?$_Tree_iterator@V?$_Tree_val@U?$_Tree_simple_types@U?$pair@$$CBW4Level@el@@_N@std@@@std@@@std@@@std@@QEAA@XZ
	??1?$_Tree_temp_node@V?$allocator@U?$_Tree_node@U?$pair@$$CBV?$basic_string@DU?$char_traits@D@std@@V?$allocator@D@2@@std@@G@std@@PEAX@std@@@std@@@std@@QEAA@XZ
	??1?$_Tree_temp_node@V?$allocator@U?$_Tree_node@U?$pair@$$CBV?$basic_string@DU?$char_traits@D@std@@V?$allocator@D@2@@std@@PEAVLogger@el@@@std@@PEAX@std@@@std@@@std@@QEAA@XZ
	??1?$_Tree_temp_node@V?$allocator@U?$_Tree_node@U?$pair@$$CBV?$basic_string@DU?$char_traits@D@std@@V?$allocator@D@2@@std@@V12@@std@@PEAX@std@@@std@@@std@@QEAA@XZ
	??1?$_Tree_temp_node@V?$allocator@U?$_Tree_node@U?$pair@$$CBV?$basic_string@DU?$char_traits@D@std@@V?$allocator@D@2@@std@@V?$shared_ptr@V?$basic_fstream@DU?$char_traits@D@std@@@std@@@2@@std@@PEAX@std@@@std@@@std@@QEAA@XZ
	??1?$_Tree_temp_node@V?$allocator@U?$_Tree_node@U?$pair@$$CBV?$basic_string@DU?$char_traits@D@std@@V?$allocator@D@2@@std@@V?$shared_ptr@VLogDispatchCallback@el@@@2@@std@@PEAX@std@@@std@@@std@@QEAA@XZ
	??1?$_Tree_temp_node@V?$allocator@U?$_Tree_node@U?$pair@$$CBW4Level@el@@I@std@@PEAX@std@@@std@@@std@@QEAA@XZ
	??1?$_Tree_temp_node@V?$allocator@U?$_Tree_node@U?$pair@$$CBW4Level@el@@V?$basic_string@DU?$char_traits@D@std@@V?$allocator@D@2@@std@@@std@@PEAX@std@@@std@@@std@@QEAA@XZ
	??1?$_Tree_temp_node@V?$allocator@U?$_Tree_node@U?$pair@$$CBW4Level@el@@V?$shared_ptr@V?$basic_fstream@DU?$char_traits@D@std@@@std@@@std@@@std@@PEAX@std@@@std@@@std@@QEAA@XZ
	??1?$_Tree_temp_node@V?$allocator@U?$_Tree_node@U?$pair@$$CBW4Level@el@@VLogFormat@base@2@@std@@PEAX@std@@@std@@@std@@QEAA@XZ
	??1?$_Tree_temp_node@V?$allocator@U?$_Tree_node@U?$pair@$$CBW4Level@el@@VSubsecondPrecision@base@2@@std@@PEAX@std@@@std@@@std@@QEAA@XZ
	??1?$_Tree_temp_node@V?$allocator@U?$_Tree_node@U?$pair@$$CBW4Level@el@@_K@std@@PEAX@std@@@std@@@std@@QEAA@XZ
	??1?$_Tree_temp_node@V?$allocator@U?$_Tree_node@U?$pair@$$CBW4Level@el@@_N@std@@PEAX@std@@@std@@@std@@QEAA@XZ
	??1?$_Tree_temp_node_alloc@V?$allocator@U?$_Tree_node@U?$pair@$$CBV?$basic_string@DU?$char_traits@D@std@@V?$allocator@D@2@@std@@G@std@@PEAX@std@@@std@@@std@@QEAA@XZ
	??1?$_Tree_temp_node_alloc@V?$allocator@U?$_Tree_node@U?$pair@$$CBV?$basic_string@DU?$char_traits@D@std@@V?$allocator@D@2@@std@@PEAVLogger@el@@@std@@PEAX@std@@@std@@@std@@QEAA@XZ
	??1?$_Tree_temp_node_alloc@V?$allocator@U?$_Tree_node@U?$pair@$$CBV?$basic_string@DU?$char_traits@D@std@@V?$allocator@D@2@@std@@V12@@std@@PEAX@std@@@std@@@std@@QEAA@XZ
	??1?$_Tree_temp_node_alloc@V?$allocator@U?$_Tree_node@U?$pair@$$CBV?$basic_string@DU?$char_traits@D@std@@V?$allocator@D@2@@std@@V?$shared_ptr@V?$basic_fstream@DU?$char_traits@D@std@@@std@@@2@@std@@PEAX@std@@@std@@@std@@QEAA@XZ
	??1?$_Tree_temp_node_alloc@V?$allocator@U?$_Tree_node@U?$pair@$$CBV?$basic_string@DU?$char_traits@D@std@@V?$allocator@D@2@@std@@V?$shared_ptr@VLogDispatchCallback@el@@@2@@std@@PEAX@std@@@std@@@std@@QEAA@XZ
	??1?$_Tree_temp_node_alloc@V?$allocator@U?$_Tree_node@U?$pair@$$CBW4Level@el@@I@std@@PEAX@std@@@std@@@std@@QEAA@XZ
	??1?$_Tree_temp_node_alloc@V?$allocator@U?$_Tree_node@U?$pair@$$CBW4Level@el@@V?$basic_string@DU?$char_traits@D@std@@V?$allocator@D@2@@std@@@std@@PEAX@std@@@std@@@std@@QEAA@XZ
	??1?$_Tree_temp_node_alloc@V?$allocator@U?$_Tree_node@U?$pair@$$CBW4Level@el@@V?$shared_ptr@V?$basic_fstream@DU?$char_traits@D@std@@@std@@@std@@@std@@PEAX@std@@@std@@@std@@QEAA@XZ
	??1?$_Tree_temp_node_alloc@V?$allocator@U?$_Tree_node@U?$pair@$$CBW4Level@el@@VLogFormat@base@2@@std@@PEAX@std@@@std@@@std@@QEAA@XZ
	??1?$_Tree_temp_node_alloc@V?$allocator@U?$_Tree_node@U?$pair@$$CBW4Level@el@@VSubsecondPrecision@base@2@@std@@PEAX@std@@@std@@@std@@QEAA@XZ
	??1?$_Tree_temp_node_alloc@V?$allocator@U?$_Tree_node@U?$pair@$$CBW4Level@el@@_K@std@@PEAX@std@@@std@@@std@@QEAA@XZ
	??1?$_Tree_temp_node_alloc@V?$allocator@U?$_Tree_node@U?$pair@$$CBW4Level@el@@_N@std@@PEAX@std@@@std@@@std@@QEAA@XZ
	??1?$_Tree_unchecked_const_iterator@V?$_Tree_val@U?$_Tree_simple_types@U?$pair@$$CBV?$basic_string@DU?$char_traits@D@std@@V?$allocator@D@2@@std@@G@std@@@std@@@std@@U_Iterator_base12@2@@std@@QEAA@XZ
	??1?$_Tree_unchecked_const_iterator@V?$_Tree_val@U?$_Tree_simple_types@U?$pair@$$CBV?$basic_string@DU?$char_traits@D@std@@V?$allocator@D@2@@std@@PEAVLogger@el@@@std@@@std@@@std@@U_Iterator_base12@2@@std@@QEAA@XZ
	??1?$_Tree_unchecked_const_iterator@V?$_Tree_val@U?$_Tree_simple_types@U?$pair@$$CBV?$basic_string@DU?$char_traits@D@std@@V?$allocator@D@2@@std@@V12@@std@@@std@@@std@@U_Iterator_base12@2@@std@@QEAA@XZ
	??1?$_Tree_unchecked_const_iterator@V?$_Tree_val@U?$_Tree_simple_types@U?$pair@$$CBV?$basic_string@DU?$char_traits@D@std@@V?$allocator@D@2@@std@@V?$shared_ptr@V?$basic_fstream@DU?$char_traits@D@std@@@std@@@2@@std@@@std@@@std@@U_Iterator_base12@2@@std@@QEAA@XZ
	??1?$_Tree_unchecked_const_iterator@V?$_Tree_val@U?$_Tree_simple_types@U?$pair@$$CBV?$basic_string@DU?$char_traits@D@std@@V?$allocator@D@2@@std@@V?$shared_ptr@VLogDispatchCallback@el@@@2@@std@@@std@@@std@@U_Iterator_base12@2@@std@@QEAA@XZ
	??1?$_Tree_unchecked_const_iterator@V?$_Tree_val@U?$_Tree_simple_types@U?$pair@$$CBW4Level@el@@I@std@@@std@@@std@@U_Iterator_base12@2@@std@@QEAA@XZ
	??1?$_Tree_unchecked_const_iterator@V?$_Tree_val@U?$_Tree_simple_types@U?$pair@$$CBW4Level@el@@V?$basic_string@DU?$char_traits@D@std@@V?$allocator@D@2@@std@@@std@@@std@@@std@@U_Iterator_base12@2@@std@@QEAA@XZ
	??1?$_Tree_unchecked_const_iterator@V?$_Tree_val@U?$_Tree_simple_types@U?$pair@$$CBW4Level@el@@V?$shared_ptr@V?$basic_fstream@DU?$char_traits@D@std@@@std@@@std@@@std@@@std@@@std@@U_Iterator_base12@2@@std@@QEAA@XZ
	??1?$_Tree_unchecked_const_iterator@V?$_Tree_val@U?$_Tree_simple_types@U?$pair@$$CBW4Level@el@@VLogFormat@base@2@@std@@@std@@@std@@U_Iterator_base12@2@@std@@QEAA@XZ
	??1?$_Tree_unchecked_const_iterator@V?$_Tree_val@U?$_Tree_simple_types@U?$pair@$$CBW4Level@el@@VSubsecondPrecision@base@2@@std@@@std@@@std@@U_Iterator_base12@2@@std@@QEAA@XZ
	??1?$_Tree_unchecked_const_iterator@V?$_Tree_val@U?$_Tree_simple_types@U?$pair@$$CBW4Level@el@@_K@std@@@std@@@std@@U_Iterator_base12@2@@std@@QEAA@XZ
	??1?$_Tree_unchecked_const_iterator@V?$_Tree_val@U?$_Tree_simple_types@U?$pair@$$CBW4Level@el@@_N@std@@@std@@@std@@U_Iterator_base12@2@@std@@QEAA@XZ
	??1?$_Uninitialized_backout_al@V?$allocator@H@std@@@std@@QEAA@XZ
	??1?$_Uninitialized_backout_al@V?$allocator@I@std@@@std@@QEAA@XZ
	??1?$_Uninitialized_backout_al@V?$allocator@M@std@@@std@@QEAA@XZ
	??1?$_Uninitialized_backout_al@V?$allocator@N@std@@@std@@QEAA@XZ
	??1?$_Uninitialized_backout_al@V?$allocator@PEAVConfiguration@el@@@std@@@std@@QEAA@XZ
	??1?$_Uninitialized_backout_al@V?$allocator@PEAVHitCounter@base@el@@@std@@@std@@QEAA@XZ
	??1?$_Uninitialized_backout_al@V?$allocator@Unode@DataSet@@@std@@@std@@QEAA@XZ
	??1?$_Uninitialized_backout_al@V?$allocator@V?$SyncArray@N@@@std@@@std@@QEAA@XZ
	??1?$_Uninitialized_backout_al@V?$allocator@V?$basic_string@DU?$char_traits@D@std@@V?$allocator@D@2@@std@@@std@@@std@@QEAA@XZ
	??1?$_Uninitialized_backout_al@V?$allocator@V?$vector@NV?$allocator@N@std@@@std@@@std@@@std@@QEAA@XZ
	??1?$_Uninitialized_backout_al@V?$allocator@V?$vector@Unode@DataSet@@V?$allocator@Unode@DataSet@@@std@@@std@@@std@@@std@@QEAA@XZ
	??1?$_Uninitialized_backout_al@V?$allocator@V?$vector@V?$vector@Unode@DataSet@@V?$allocator@Unode@DataSet@@@std@@@std@@V?$allocator@V?$vector@Unode@DataSet@@V?$allocator@Unode@DataSet@@@std@@@std@@@2@@std@@@std@@@std@@QEAA@XZ
	??1?$_Uninitialized_backout_al@V?$allocator@VCustomFormatSpecifier@el@@@std@@@std@@QEAA@XZ
	??1?$_Vb_const_iterator@U?$_Wrap_alloc@V?$allocator@I@std@@@std@@@std@@QEAA@XZ
	??1?$_Vb_iter_base@U?$_Wrap_alloc@V?$allocator@I@std@@@std@@@std@@QEAA@XZ
	??1?$_Vb_iterator@U?$_Wrap_alloc@V?$allocator@I@std@@@std@@@std@@QEAA@XZ
	??1?$_Vb_reference@U?$_Wrap_alloc@V?$allocator@I@std@@@std@@@std@@QEAA@XZ
	??1?$_Vb_val@V?$allocator@_N@std@@@std@@QEAA@XZ
	??1?$_Vector_const_iterator@V?$_Vector_val@U?$_Simple_types@H@std@@@std@@@std@@QEAA@XZ
	??1?$_Vector_const_iterator@V?$_Vector_val@U?$_Simple_types@I@std@@@std@@@std@@QEAA@XZ
	??1?$_Vector_const_iterator@V?$_Vector_val@U?$_Simple_types@M@std@@@std@@@std@@QEAA@XZ
	??1?$_Vector_const_iterator@V?$_Vector_val@U?$_Simple_types@N@std@@@std@@@std@@QEAA@XZ
	??1?$_Vector_const_iterator@V?$_Vector_val@U?$_Simple_types@PEAVConfiguration@el@@@std@@@std@@@std@@QEAA@XZ
	??1?$_Vector_const_iterator@V?$_Vector_val@U?$_Simple_types@PEAVHitCounter@base@el@@@std@@@std@@@std@@QEAA@XZ
	??1?$_Vector_const_iterator@V?$_Vector_val@U?$_Simple_types@V?$basic_string@DU?$char_traits@D@std@@V?$allocator@D@2@@std@@@std@@@std@@@std@@QEAA@XZ
	??1?$_Vector_const_iterator@V?$_Vector_val@U?$_Simple_types@V?$vector@Unode@DataSet@@V?$allocator@Unode@DataSet@@@std@@@std@@@std@@@std@@@std@@QEAA@XZ
	??1?$_Vector_const_iterator@V?$_Vector_val@U?$_Simple_types@VCustomFormatSpecifier@el@@@std@@@std@@@std@@QEAA@XZ
	??1?$_Vector_iterator@V?$_Vector_val@U?$_Simple_types@H@std@@@std@@@std@@QEAA@XZ
	??1?$_Vector_iterator@V?$_Vector_val@U?$_Simple_types@I@std@@@std@@@std@@QEAA@XZ
	??1?$_Vector_iterator@V?$_Vector_val@U?$_Simple_types@M@std@@@std@@@std@@QEAA@XZ
	??1?$_Vector_iterator@V?$_Vector_val@U?$_Simple_types@N@std@@@std@@@std@@QEAA@XZ
	??1?$_Vector_iterator@V?$_Vector_val@U?$_Simple_types@PEAVConfiguration@el@@@std@@@std@@@std@@QEAA@XZ
	??1?$_Vector_iterator@V?$_Vector_val@U?$_Simple_types@PEAVHitCounter@base@el@@@std@@@std@@@std@@QEAA@XZ
	??1?$_Vector_iterator@V?$_Vector_val@U?$_Simple_types@V?$vector@Unode@DataSet@@V?$allocator@Unode@DataSet@@@std@@@std@@@std@@@std@@@std@@QEAA@XZ
	??1?$_Vector_iterator@V?$_Vector_val@U?$_Simple_types@VCustomFormatSpecifier@el@@@std@@@std@@@std@@QEAA@XZ
	??1?$basic_filebuf@DU?$char_traits@D@std@@@std@@UEAA@XZ
	??1?$basic_fstream@DU?$char_traits@D@std@@@std@@UEAA@XZ
	??1?$basic_ifstream@DU?$char_traits@D@std@@@std@@UEAA@XZ
	??1?$basic_ofstream@DU?$char_traits@D@std@@@std@@UEAA@XZ
	??1?$basic_ostringstream@DU?$char_traits@D@std@@V?$allocator@D@2@@std@@UEAA@XZ
	??1?$basic_string@DU?$char_traits@D@std@@V?$allocator@D@2@@std@@QEAA@XZ
	??1?$basic_stringbuf@DU?$char_traits@D@std@@V?$allocator@D@2@@std@@UEAA@XZ
	??1?$basic_stringstream@DU?$char_traits@D@std@@V?$allocator@D@2@@std@@UEAA@XZ
	??1?$contiguous_storage@EU?$no_throw_allocator@V?$temporary_allocator@EUpar_t@cuda_cub@thrust@@@detail@thrust@@@detail@thrust@@@detail@thrust@@QEAA@XZ
	??1?$function@$$A6A?AV?$basic_string@DU?$char_traits@D@std@@V?$allocator@D@2@@std@@PEBVLogMessage@el@@@Z@std@@QEAA@XZ
	??1?$function@$$A6AXPEBD_K@Z@std@@QEAA@XZ
	??1?$function@$$A6A_NXZ@std@@QEAA@XZ
	??1?$map@V?$basic_string@DU?$char_traits@D@std@@V?$allocator@D@2@@std@@GU?$less@V?$basic_string@DU?$char_traits@D@std@@V?$allocator@D@2@@std@@@2@V?$allocator@U?$pair@$$CBV?$basic_string@DU?$char_traits@D@std@@V?$allocator@D@2@@std@@G@std@@@2@@std@@QEAA@XZ
	??1?$map@V?$basic_string@DU?$char_traits@D@std@@V?$allocator@D@2@@std@@PEAVLogger@el@@U?$less@V?$basic_string@DU?$char_traits@D@std@@V?$allocator@D@2@@std@@@2@V?$allocator@U?$pair@$$CBV?$basic_string@DU?$char_traits@D@std@@V?$allocator@D@2@@std@@PEAVLogger@el@@@std@@@2@@std@@QEAA@XZ
	??1?$map@V?$basic_string@DU?$char_traits@D@std@@V?$allocator@D@2@@std@@V12@U?$less@V?$basic_string@DU?$char_traits@D@std@@V?$allocator@D@2@@std@@@2@V?$allocator@U?$pair@$$CBV?$basic_string@DU?$char_traits@D@std@@V?$allocator@D@2@@std@@V12@@std@@@2@@std@@QEAA@XZ
	??1?$map@V?$basic_string@DU?$char_traits@D@std@@V?$allocator@D@2@@std@@V?$shared_ptr@V?$basic_fstream@DU?$char_traits@D@std@@@std@@@2@U?$less@V?$basic_string@DU?$char_traits@D@std@@V?$allocator@D@2@@std@@@2@V?$allocator@U?$pair@$$CBV?$basic_string@DU?$char_traits@D@std@@V?$allocator@D@2@@std@@V?$shared_ptr@V?$basic_fstream@DU?$char_traits@D@std@@@std@@@2@@std@@@2@@std@@QEAA@XZ
	??1?$map@V?$basic_string@DU?$char_traits@D@std@@V?$allocator@D@2@@std@@V?$shared_ptr@VLogDispatchCallback@el@@@2@U?$less@V?$basic_string@DU?$char_traits@D@std@@V?$allocator@D@2@@std@@@2@V?$allocator@U?$pair@$$CBV?$basic_string@DU?$char_traits@D@std@@V?$allocator@D@2@@std@@V?$shared_ptr@VLogDispatchCallback@el@@@2@@std@@@2@@std@@QEAA@XZ
	??1?$map@V?$basic_string@DU?$char_traits@D@std@@V?$allocator@D@2@@std@@V?$shared_ptr@VLoggerRegistrationCallback@el@@@2@U?$less@V?$basic_string@DU?$char_traits@D@std@@V?$allocator@D@2@@std@@@2@V?$allocator@U?$pair@$$CBV?$basic_string@DU?$char_traits@D@std@@V?$allocator@D@2@@std@@V?$shared_ptr@VLoggerRegistrationCallback@el@@@2@@std@@@2@@std@@QEAA@XZ
	??1?$map@V?$basic_string@DU?$char_traits@D@std@@V?$allocator@D@2@@std@@V?$shared_ptr@VPerformanceTrackingCallback@el@@@2@U?$less@V?$basic_string@DU?$char_traits@D@std@@V?$allocator@D@2@@std@@@2@V?$allocator@U?$pair@$$CBV?$basic_string@DU?$char_traits@D@std@@V?$allocator@D@2@@std@@V?$shared_ptr@VPerformanceTrackingCallback@el@@@2@@std@@@2@@std@@QEAA@XZ
	??1?$map@W4Level@el@@IU?$less@W4Level@el@@@std@@V?$allocator@U?$pair@$$CBW4Level@el@@I@std@@@4@@std@@QEAA@XZ
	??1?$map@W4Level@el@@V?$basic_string@DU?$char_traits@D@std@@V?$allocator@D@2@@std@@U?$less@W4Level@el@@@4@V?$allocator@U?$pair@$$CBW4Level@el@@V?$basic_string@DU?$char_traits@D@std@@V?$allocator@D@2@@std@@@std@@@4@@std@@QEAA@XZ
	??1?$map@W4Level@el@@V?$shared_ptr@V?$basic_fstream@DU?$char_traits@D@std@@@std@@@std@@U?$less@W4Level@el@@@4@V?$allocator@U?$pair@$$CBW4Level@el@@V?$shared_ptr@V?$basic_fstream@DU?$char_traits@D@std@@@std@@@std@@@std@@@4@@std@@QEAA@XZ
	??1?$map@W4Level@el@@VLogFormat@base@2@U?$less@W4Level@el@@@std@@V?$allocator@U?$pair@$$CBW4Level@el@@VLogFormat@base@2@@std@@@6@@std@@QEAA@XZ
	??1?$map@W4Level@el@@VSubsecondPrecision@base@2@U?$less@W4Level@el@@@std@@V?$allocator@U?$pair@$$CBW4Level@el@@VSubsecondPrecision@base@2@@std@@@6@@std@@QEAA@XZ
	??1?$map@W4Level@el@@_KU?$less@W4Level@el@@@std@@V?$allocator@U?$pair@$$CBW4Level@el@@_K@std@@@4@@std@@QEAA@XZ
	??1?$map@W4Level@el@@_NU?$less@W4Level@el@@@std@@V?$allocator@U?$pair@$$CBW4Level@el@@_N@std@@@4@@std@@QEAA@XZ
	??1?$no_throw_allocator@V?$temporary_allocator@EUpar_t@cuda_cub@thrust@@@detail@thrust@@@detail@thrust@@QEAA@XZ
	??1?$pair@$$CBV?$basic_string@DU?$char_traits@D@std@@V?$allocator@D@2@@std@@G@std@@QEAA@XZ
	??1?$pair@$$CBV?$basic_string@DU?$char_traits@D@std@@V?$allocator@D@2@@std@@PEAVLogger@el@@@std@@QEAA@XZ
	??1?$pair@$$CBV?$basic_string@DU?$char_traits@D@std@@V?$allocator@D@2@@std@@V12@@std@@QEAA@XZ
	??1?$pair@$$CBV?$basic_string@DU?$char_traits@D@std@@V?$allocator@D@2@@std@@V?$shared_ptr@V?$basic_fstream@DU?$char_traits@D@std@@@std@@@2@@std@@QEAA@XZ
	??1?$pair@$$CBV?$basic_string@DU?$char_traits@D@std@@V?$allocator@D@2@@std@@V?$shared_ptr@VLogDispatchCallback@el@@@2@@std@@QEAA@XZ
	??1?$pair@$$CBV?$basic_string@DU?$char_traits@D@std@@V?$allocator@D@2@@std@@V?$shared_ptr@VLoggerRegistrationCallback@el@@@2@@std@@QEAA@XZ
	??1?$pair@$$CBV?$basic_string@DU?$char_traits@D@std@@V?$allocator@D@2@@std@@V?$shared_ptr@VPerformanceTrackingCallback@el@@@2@@std@@QEAA@XZ
	??1?$pair@$$CBW4Level@el@@V?$basic_string@DU?$char_traits@D@std@@V?$allocator@D@2@@std@@@std@@QEAA@XZ
	??1?$pair@$$CBW4Level@el@@V?$shared_ptr@V?$basic_fstream@DU?$char_traits@D@std@@@std@@@std@@@std@@QEAA@XZ
	??1?$pair@$$CBW4Level@el@@VLogFormat@base@2@@std@@QEAA@XZ
	??1?$pair@V?$_Tree_iterator@V?$_Tree_val@U?$_Tree_simple_types@U?$pair@$$CBV?$basic_string@DU?$char_traits@D@std@@V?$allocator@D@2@@std@@G@std@@@std@@@std@@@std@@_N@std@@QEAA@XZ
	??1?$pair@V?$_Tree_iterator@V?$_Tree_val@U?$_Tree_simple_types@U?$pair@$$CBV?$basic_string@DU?$char_traits@D@std@@V?$allocator@D@2@@std@@PEAVLogger@el@@@std@@@std@@@std@@@std@@_N@std@@QEAA@XZ
	??1?$pair@V?$_Tree_iterator@V?$_Tree_val@U?$_Tree_simple_types@U?$pair@$$CBV?$basic_string@DU?$char_traits@D@std@@V?$allocator@D@2@@std@@V12@@std@@@std@@@std@@@std@@_N@std@@QEAA@XZ
	??1?$pair@V?$_Tree_iterator@V?$_Tree_val@U?$_Tree_simple_types@U?$pair@$$CBV?$basic_string@DU?$char_traits@D@std@@V?$allocator@D@2@@std@@V?$shared_ptr@V?$basic_fstream@DU?$char_traits@D@std@@@std@@@2@@std@@@std@@@std@@@std@@_N@std@@QEAA@XZ
	??1?$pair@V?$_Tree_iterator@V?$_Tree_val@U?$_Tree_simple_types@U?$pair@$$CBV?$basic_string@DU?$char_traits@D@std@@V?$allocator@D@2@@std@@V?$shared_ptr@VLogDispatchCallback@el@@@2@@std@@@std@@@std@@@std@@_N@std@@QEAA@XZ
	??1?$pair@V?$_Tree_iterator@V?$_Tree_val@U?$_Tree_simple_types@U?$pair@$$CBW4Level@el@@I@std@@@std@@@std@@@std@@_N@std@@QEAA@XZ
	??1?$pair@V?$_Tree_iterator@V?$_Tree_val@U?$_Tree_simple_types@U?$pair@$$CBW4Level@el@@V?$basic_string@DU?$char_traits@D@std@@V?$allocator@D@2@@std@@@std@@@std@@@std@@@std@@_N@std@@QEAA@XZ
	??1?$pair@V?$_Tree_iterator@V?$_Tree_val@U?$_Tree_simple_types@U?$pair@$$CBW4Level@el@@V?$shared_ptr@V?$basic_fstream@DU?$char_traits@D@std@@@std@@@std@@@std@@@std@@@std@@@std@@_N@std@@QEAA@XZ
	??1?$pair@V?$_Tree_iterator@V?$_Tree_val@U?$_Tree_simple_types@U?$pair@$$CBW4Level@el@@VLogFormat@base@2@@std@@@std@@@std@@@std@@_N@std@@QEAA@XZ
	??1?$pair@V?$_Tree_iterator@V?$_Tree_val@U?$_Tree_simple_types@U?$pair@$$CBW4Level@el@@VSubsecondPrecision@base@2@@std@@@std@@@std@@@std@@_N@std@@QEAA@XZ
	??1?$pair@V?$_Tree_iterator@V?$_Tree_val@U?$_Tree_simple_types@U?$pair@$$CBW4Level@el@@_K@std@@@std@@@std@@@std@@_N@std@@QEAA@XZ
	??1?$pair@V?$_Tree_iterator@V?$_Tree_val@U?$_Tree_simple_types@U?$pair@$$CBW4Level@el@@_N@std@@@std@@@std@@@std@@_N@std@@QEAA@XZ
	??1?$pair@V?$basic_string@DU?$char_traits@D@std@@V?$allocator@D@2@@std@@G@std@@QEAA@XZ
	??1?$pair@V?$basic_string@DU?$char_traits@D@std@@V?$allocator@D@2@@std@@PEAVLogger@el@@@std@@QEAA@XZ
	??1?$pair@V?$basic_string@DU?$char_traits@D@std@@V?$allocator@D@2@@std@@V12@@std@@QEAA@XZ
	??1?$pair@V?$basic_string@DU?$char_traits@D@std@@V?$allocator@D@2@@std@@V?$shared_ptr@V?$basic_fstream@DU?$char_traits@D@std@@@std@@@2@@std@@QEAA@XZ
	??1?$pair@V?$basic_string@DU?$char_traits@D@std@@V?$allocator@D@2@@std@@V?$shared_ptr@VLogDispatchCallback@el@@@2@@std@@QEAA@XZ
	??1?$pair@V?$basic_string@DU?$char_traits@D@std@@V?$allocator@D@2@@std@@V?$shared_ptr@VLoggerRegistrationCallback@el@@@2@@std@@QEAA@XZ
	??1?$pair@W4Level@el@@V?$basic_string@DU?$char_traits@D@std@@V?$allocator@D@2@@std@@@std@@QEAA@XZ
	??1?$pair@W4Level@el@@V?$shared_ptr@V?$basic_fstream@DU?$char_traits@D@std@@@std@@@std@@@std@@QEAA@XZ
	??1?$pair@W4Level@el@@VLogFormat@base@2@@std@@QEAA@XZ
	??1?$reverse_iterator@V?$_String_iterator@V?$_String_val@U?$_Simple_types@D@std@@@std@@@std@@@std@@QEAA@XZ
	??1?$shared_ptr@V?$basic_fstream@DU?$char_traits@D@std@@@std@@@std@@QEAA@XZ
	??1?$shared_ptr@VLogBuilder@el@@@std@@QEAA@XZ
	??1?$shared_ptr@VLogDispatchCallback@el@@@std@@QEAA@XZ
	??1?$shared_ptr@VLoggerRegistrationCallback@el@@@std@@QEAA@XZ
	??1?$shared_ptr@VPerformanceTrackingCallback@el@@@std@@QEAA@XZ
	??1?$shared_ptr@VStorage@base@el@@@std@@QEAA@XZ
	??1?$tagged_allocator@EUpar_t@cuda_cub@thrust@@V?$pointer@EUpar_t@cuda_cub@thrust@@Uuse_default@3@U43@@3@@detail@thrust@@QEAA@XZ
	??1?$temporary_allocator@EUpar_t@cuda_cub@thrust@@@detail@thrust@@QEAA@XZ
	??1?$temporary_array@EUpar_t@cuda_cub@thrust@@@detail@thrust@@QEAA@XZ
	??1?$unique_ptr@V_Facet_base@std@@U?$default_delete@V_Facet_base@std@@@2@@std@@QEAA@XZ
	??1?$vector@HV?$allocator@H@std@@@std@@QEAA@XZ
	??1?$vector@IV?$allocator@I@std@@@std@@QEAA@XZ
	??1?$vector@MV?$allocator@M@std@@@std@@QEAA@XZ
	??1?$vector@NV?$allocator@N@std@@@std@@QEAA@XZ
	??1?$vector@PEAVConfiguration@el@@V?$allocator@PEAVConfiguration@el@@@std@@@std@@QEAA@XZ
	??1?$vector@PEAVHitCounter@base@el@@V?$allocator@PEAVHitCounter@base@el@@@std@@@std@@QEAA@XZ
	??1?$vector@Unode@DataSet@@V?$allocator@Unode@DataSet@@@std@@@std@@QEAA@XZ
	??1?$vector@V?$SyncArray@N@@V?$allocator@V?$SyncArray@N@@@std@@@std@@QEAA@XZ
	??1?$vector@V?$basic_string@DU?$char_traits@D@std@@V?$allocator@D@2@@std@@V?$allocator@V?$basic_string@DU?$char_traits@D@std@@V?$allocator@D@2@@std@@@2@@std@@QEAA@XZ
	??1?$vector@V?$vector@NV?$allocator@N@std@@@std@@V?$allocator@V?$vector@NV?$allocator@N@std@@@std@@@2@@std@@QEAA@XZ
	??1?$vector@V?$vector@Unode@DataSet@@V?$allocator@Unode@DataSet@@@std@@@std@@V?$allocator@V?$vector@Unode@DataSet@@V?$allocator@Unode@DataSet@@@std@@@std@@@2@@std@@QEAA@XZ
	??1?$vector@V?$vector@V?$vector@Unode@DataSet@@V?$allocator@Unode@DataSet@@@std@@@std@@V?$allocator@V?$vector@Unode@DataSet@@V?$allocator@Unode@DataSet@@@std@@@std@@@2@@std@@V?$allocator@V?$vector@V?$vector@Unode@DataSet@@V?$allocator@Unode@DataSet@@@std@@@std@@V?$allocator@V?$vector@Unode@DataSet@@V?$allocator@Unode@DataSet@@@std@@@std@@@2@@std@@@2@@std@@QEAA@XZ
	??1?$vector@VCustomFormatSpecifier@el@@V?$allocator@VCustomFormatSpecifier@el@@@std@@@std@@QEAA@XZ
	??1?$vector@_NV?$allocator@_N@std@@@std@@QEAA@XZ
	??1Accuracy@@UEAA@XZ
	??1CMDParser@@QEAA@XZ
	??1CSMOSolver@@UEAA@XZ
	??1CommandLineArgs@utils@base@el@@UEAA@XZ
	??1Configuration@el@@UEAA@XZ
	??1Configurations@el@@UEAA@XZ
	??1CustomFormatSpecifier@el@@QEAA@XZ
	??1DataSet@@QEAA@XZ
	??1DefaultLogBuilder@base@el@@UEAA@XZ
	??1DefaultLogDispatchCallback@base@el@@UEAA@XZ
	??1HitCounter@base@el@@UEAA@XZ
	??1KernelMatrix@@QEAA@XZ
	??1LogBuilder@el@@UEAA@XZ
	??1LogDispatchCallback@el@@UEAA@XZ
	??1LogDispatcher@base@el@@QEAA@XZ
	??1LogFormat@base@el@@UEAA@XZ
	??1LogMessage@el@@QEAA@XZ
	??1Loggable@el@@UEAA@XZ
	??1Logger@el@@UEAA@XZ
	??1MSE@@UEAA@XZ
	??1Metric@@UEAA@XZ
	??1NuSMOSolver@@UEAA@XZ
	??1NuSVC@@UEAA@XZ
	??1NuSVR@@UEAA@XZ
	??1OneClassSVC@@UEAA@XZ
	??1PErrorWriter@base@el@@UEAA@XZ
	??1RegisteredHitCounters@base@el@@UEAA@XZ
	??1RegisteredLoggers@base@el@@UEAA@XZ
	??1SVC@@UEAA@XZ
	??1SVR@@UEAA@XZ
	??1Storage@base@el@@UEAA@XZ
	??1SvmModel@@UEAA@XZ
	??1SyncMem@thunder@@QEAA@XZ
	??1ThreadSafe@threading@base@el@@MEAA@XZ
	??1TypedConfigurations@base@el@@UEAA@XZ
	??1VRegistry@base@el@@UEAA@XZ
	??1Writer@base@el@@UEAA@XZ
	??1_Bxty@?$_String_val@U?$_Simple_types@D@std@@@std@@QEAA@XZ
	??1_Iterator_base12@std@@QEAA@XZ
	??1_Ref_count_base@std@@UEAA@XZ
	??1_Sentry_base@?$basic_istream@DU?$char_traits@D@std@@@std@@QEAA@XZ
	??1_Sentry_base@?$basic_ostream@DU?$char_traits@D@std@@@std@@QEAA@XZ
	??1bad_alloc@detail@system@thrust@@UEAA@XZ
	??1bad_alloc@std@@UEAA@XZ
	??1bad_array_new_length@std@@UEAA@XZ
	??1bad_cast@std@@UEAA@XZ
	??1cuda_error_category@detail@cuda_cub@system@thrust@@UEAA@XZ
	??1error_category@system@thrust@@UEAA@XZ
	??1exception@std@@UEAA@XZ
	??1generic_error_category@detail@system@thrust@@UEAA@XZ
	??1locale@std@@QEAA@XZ
	??1runtime_error@std@@UEAA@XZ
	??1sentry@?$basic_istream@DU?$char_traits@D@std@@@std@@QEAA@XZ
	??1sentry@?$basic_ostream@DU?$char_traits@D@std@@@std@@QEAA@XZ
	??1system_error@system@thrust@@UEAA@XZ
	??1system_error_category@detail@system@thrust@@UEAA@XZ
	??2@YAPEAX_KPEAX@Z
	??4?$RegistryWithPred@VConfiguration@el@@VPredicate@12@@utils@base@el@@QEAAAEAV0123@AEBV0123@@Z
	??4?$_Tree@V?$_Tmap_traits@W4Level@el@@IU?$less@W4Level@el@@@std@@V?$allocator@U?$pair@$$CBW4Level@el@@I@std@@@4@$0A@@std@@@std@@QEAAAEAV01@AEBV01@@Z
	??4?$_Tree_const_iterator@V?$_Tree_val@U?$_Tree_simple_types@U?$pair@$$CBW4Level@el@@VLogFormat@base@2@@std@@@std@@@std@@@std@@QEAAAEAV01@$$QEAV01@@Z
	??4?$_Tree_const_iterator@V?$_Tree_val@U?$_Tree_simple_types@U?$pair@$$CBW4Level@el@@VSubsecondPrecision@base@2@@std@@@std@@@std@@@std@@QEAAAEAV01@$$QEAV01@@Z
	??4?$_Tree_const_iterator@V?$_Tree_val@U?$_Tree_simple_types@U?$pair@$$CBW4Level@el@@_K@std@@@std@@@std@@@std@@QEAAAEAV01@$$QEAV01@@Z
	??4?$_Tree_const_iterator@V?$_Tree_val@U?$_Tree_simple_types@U?$pair@$$CBW4Level@el@@_N@std@@@std@@@std@@@std@@QEAAAEAV01@$$QEAV01@@Z
	??4?$_Tree_iterator@V?$_Tree_val@U?$_Tree_simple_types@U?$pair@$$CBW4Level@el@@VLogFormat@base@2@@std@@@std@@@std@@@std@@QEAAAEAV01@$$QEAV01@@Z
	??4?$_Tree_iterator@V?$_Tree_val@U?$_Tree_simple_types@U?$pair@$$CBW4Level@el@@VSubsecondPrecision@base@2@@std@@@std@@@std@@@std@@QEAAAEAV01@$$QEAV01@@Z
	??4?$_Tree_iterator@V?$_Tree_val@U?$_Tree_simple_types@U?$pair@$$CBW4Level@el@@_K@std@@@std@@@std@@@std@@QEAAAEAV01@$$QEAV01@@Z
	??4?$_Tree_iterator@V?$_Tree_val@U?$_Tree_simple_types@U?$pair@$$CBW4Level@el@@_N@std@@@std@@@std@@@std@@QEAAAEAV01@$$QEAV01@@Z
	??4?$_Tree_unchecked_const_iterator@V?$_Tree_val@U?$_Tree_simple_types@U?$pair@$$CBW4Level@el@@VLogFormat@base@2@@std@@@std@@@std@@U_Iterator_base12@2@@std@@QEAAAEAV01@$$QEAV01@@Z
	??4?$_Tree_unchecked_const_iterator@V?$_Tree_val@U?$_Tree_simple_types@U?$pair@$$CBW4Level@el@@VSubsecondPrecision@base@2@@std@@@std@@@std@@U_Iterator_base12@2@@std@@QEAAAEAV01@$$QEAV01@@Z
	??4?$_Tree_unchecked_const_iterator@V?$_Tree_val@U?$_Tree_simple_types@U?$pair@$$CBW4Level@el@@_K@std@@@std@@@std@@U_Iterator_base12@2@@std@@QEAAAEAV01@$$QEAV01@@Z
	??4?$_Tree_unchecked_const_iterator@V?$_Tree_val@U?$_Tree_simple_types@U?$pair@$$CBW4Level@el@@_N@std@@@std@@@std@@U_Iterator_base12@2@@std@@QEAAAEAV01@$$QEAV01@@Z
	??4?$_Vb_reference@U?$_Wrap_alloc@V?$allocator@I@std@@@std@@@std@@QEAAAEAV01@_N@Z
	??4?$_Vector_const_iterator@V?$_Vector_val@U?$_Simple_types@H@std@@@std@@@std@@QEAAAEAV01@$$QEAV01@@Z
	??4?$_Vector_const_iterator@V?$_Vector_val@U?$_Simple_types@V?$vector@Unode@DataSet@@V?$allocator@Unode@DataSet@@@std@@@std@@@std@@@std@@@std@@QEAAAEAV01@$$QEAV01@@Z
	??4?$_Vector_iterator@V?$_Vector_val@U?$_Simple_types@H@std@@@std@@@std@@QEAAAEAV01@$$QEAV01@@Z
	??4?$basic_string@DU?$char_traits@D@std@@V?$allocator@D@2@@std@@QEAAAEAV01@$$QEAV01@@Z
	??4?$basic_string@DU?$char_traits@D@std@@V?$allocator@D@2@@std@@QEAAAEAV01@AEBV01@@Z
	??4?$basic_string@DU?$char_traits@D@std@@V?$allocator@D@2@@std@@QEAAAEAV01@QEBD@Z
	??4?$function@$$A6A?AV?$basic_string@DU?$char_traits@D@std@@V?$allocator@D@2@@std@@PEBVLogMessage@el@@@Z@std@@QEAAAEAV01@$$QEAV01@@Z
	??4?$map@W4Level@el@@IU?$less@W4Level@el@@@std@@V?$allocator@U?$pair@$$CBW4Level@el@@I@std@@@4@@std@@QEAAAEAV01@AEBV01@@Z
	??4?$shared_ptr@VLogBuilder@el@@@std@@QEAAAEAV01@AEBV01@@Z
	??4?$vector@HV?$allocator@H@std@@@std@@QEAAAEAV01@$$QEAV01@@Z
	??4?$vector@HV?$allocator@H@std@@@std@@QEAAAEAV01@AEBV01@@Z
	??4?$vector@MV?$allocator@M@std@@@std@@QEAAAEAV01@AEBV01@@Z
	??4?$vector@NV?$allocator@N@std@@@std@@QEAAAEAV01@$$QEAV01@@Z
	??4?$vector@Unode@DataSet@@V?$allocator@Unode@DataSet@@@std@@@std@@QEAAAEAV01@$$QEAV01@@Z
	??4Configuration@el@@QEAAAEAV01@AEBV01@@Z
	??4Configurations@el@@QEAAAEAV01@AEBV01@@Z
	??4CustomFormatSpecifier@el@@QEAAAEAV01@$$QEAV01@@Z
	??4LogFormat@base@el@@QEAAAEAV012@AEBV012@@Z
	??4Logger@el@@QEAAAEAV01@AEBV01@@Z
	??4_Iterator_base12@std@@QEAAAEAU01@AEBU01@@Z
	??6MessageBuilder@base@el@@QEAAAEAV012@AEBV?$basic_string@DU?$char_traits@D@std@@V?$allocator@D@2@@std@@@Z
	??6MessageBuilder@base@el@@QEAAAEAV012@H@Z
	??6MessageBuilder@base@el@@QEAAAEAV012@K@Z
	??6MessageBuilder@base@el@@QEAAAEAV012@N@Z
	??6MessageBuilder@base@el@@QEAAAEAV012@P6AAEAV?$basic_ostream@DU?$char_traits@D@std@@@std@@AEAV34@@Z@Z
	??6MessageBuilder@base@el@@QEAAAEAV012@PEBD@Z
	??6MessageBuilder@base@el@@QEAAAEAV012@PEB_W@Z
	??6Writer@base@el@@QEAAAEAV012@P6AAEAV?$basic_ostream@DU?$char_traits@D@std@@@std@@AEAV34@@Z@Z
	??6utils@base@el@@YAAEAV?$basic_ostream@DU?$char_traits@D@std@@@std@@AEAV34@AEBVCommandLineArgs@012@@Z
	??8?$_String_const_iterator@V?$_String_val@U?$_Simple_types@D@std@@@std@@@std@@QEBA_NAEBV01@@Z
	??8?$_Tree_const_iterator@V?$_Tree_val@U?$_Tree_simple_types@U?$pair@$$CBV?$basic_string@DU?$char_traits@D@std@@V?$allocator@D@2@@std@@G@std@@@std@@@std@@@std@@QEBA_NAEBV01@@Z
	??8?$_Tree_const_iterator@V?$_Tree_val@U?$_Tree_simple_types@U?$pair@$$CBV?$basic_string@DU?$char_traits@D@std@@V?$allocator@D@2@@std@@PEAVLogger@el@@@std@@@std@@@std@@@std@@QEBA_NAEBV01@@Z
	??8?$_Tree_const_iterator@V?$_Tree_val@U?$_Tree_simple_types@U?$pair@$$CBV?$basic_string@DU?$char_traits@D@std@@V?$allocator@D@2@@std@@V12@@std@@@std@@@std@@@std@@QEBA_NAEBV01@@Z
	??8?$_Tree_const_iterator@V?$_Tree_val@U?$_Tree_simple_types@U?$pair@$$CBV?$basic_string@DU?$char_traits@D@std@@V?$allocator@D@2@@std@@V?$shared_ptr@V?$basic_fstream@DU?$char_traits@D@std@@@std@@@2@@std@@@std@@@std@@@std@@QEBA_NAEBV01@@Z
	??8?$_Tree_const_iterator@V?$_Tree_val@U?$_Tree_simple_types@U?$pair@$$CBV?$basic_string@DU?$char_traits@D@std@@V?$allocator@D@2@@std@@V?$shared_ptr@VLogDispatchCallback@el@@@2@@std@@@std@@@std@@@std@@QEBA_NAEBV01@@Z
	??8?$_Tree_const_iterator@V?$_Tree_val@U?$_Tree_simple_types@U?$pair@$$CBW4Level@el@@I@std@@@std@@@std@@@std@@QEBA_NAEBV01@@Z
	??8?$_Tree_const_iterator@V?$_Tree_val@U?$_Tree_simple_types@U?$pair@$$CBW4Level@el@@V?$basic_string@DU?$char_traits@D@std@@V?$allocator@D@2@@std@@@std@@@std@@@std@@@std@@QEBA_NAEBV01@@Z
	??8?$_Tree_const_iterator@V?$_Tree_val@U?$_Tree_simple_types@U?$pair@$$CBW4Level@el@@V?$shared_ptr@V?$basic_fstream@DU?$char_traits@D@std@@@std@@@std@@@std@@@std@@@std@@@std@@QEBA_NAEBV01@@Z
	??8?$_Tree_const_iterator@V?$_Tree_val@U?$_Tree_simple_types@U?$pair@$$CBW4Level@el@@VLogFormat@base@2@@std@@@std@@@std@@@std@@QEBA_NAEBV01@@Z
	??8?$_Tree_const_iterator@V?$_Tree_val@U?$_Tree_simple_types@U?$pair@$$CBW4Level@el@@VSubsecondPrecision@base@2@@std@@@std@@@std@@@std@@QEBA_NAEBV01@@Z
	??8?$_Tree_const_iterator@V?$_Tree_val@U?$_Tree_simple_types@U?$pair@$$CBW4Level@el@@_K@std@@@std@@@std@@@std@@QEBA_NAEBV01@@Z
	??8?$_Tree_const_iterator@V?$_Tree_val@U?$_Tree_simple_types@U?$pair@$$CBW4Level@el@@_N@std@@@std@@@std@@@std@@QEBA_NAEBV01@@Z
	??8?$_Tree_unchecked_const_iterator@V?$_Tree_val@U?$_Tree_simple_types@U?$pair@$$CBV?$basic_string@DU?$char_traits@D@std@@V?$allocator@D@2@@std@@PEAVLogger@el@@@std@@@std@@@std@@U_Iterator_base0@2@@std@@QEBA_NAEBV01@@Z
	??8?$_Vector_const_iterator@V?$_Vector_val@U?$_Simple_types@H@std@@@std@@@std@@QEBA_NAEBV01@@Z
	??8?$_Vector_const_iterator@V?$_Vector_val@U?$_Simple_types@PEAVConfiguration@el@@@std@@@std@@@std@@QEBA_NAEBV01@@Z
	??8?$_Vector_const_iterator@V?$_Vector_val@U?$_Simple_types@PEAVHitCounter@base@el@@@std@@@std@@@std@@QEBA_NAEBV01@@Z
	??8?$_Vector_const_iterator@V?$_Vector_val@U?$_Simple_types@V?$basic_string@DU?$char_traits@D@std@@V?$allocator@D@2@@std@@@std@@@std@@@std@@QEBA_NAEBV01@@Z
	??8?$_Vector_const_iterator@V?$_Vector_val@U?$_Simple_types@V?$vector@Unode@DataSet@@V?$allocator@Unode@DataSet@@@std@@@std@@@std@@@std@@@std@@QEBA_NAEBV01@@Z
	??8?$_Vector_const_iterator@V?$_Vector_val@U?$_Simple_types@VCustomFormatSpecifier@el@@@std@@@std@@@std@@QEBA_NAEBV01@@Z
	??8CustomFormatSpecifier@el@@QEAA_NPEBD@Z
	??8LogFormat@base@el@@QEAA_NAEBV012@@Z
	??8SubsecondPrecision@base@el@@QEAA_NAEBV012@@Z
	??8error_category@system@thrust@@QEBA_NAEBV012@@Z
	??8system@thrust@@YA_NAEBVerror_condition@01@0@Z
	??9?$AbstractRegistry@VConfiguration@el@@V?$vector@PEAVConfiguration@el@@V?$allocator@PEAVConfiguration@el@@@std@@@std@@@utils@base@el@@QEAA_NAEBV0123@@Z
	??9?$_String_const_iterator@V?$_String_val@U?$_Simple_types@D@std@@@std@@@std@@QEBA_NAEBV01@@Z
	??9?$_Tree_const_iterator@V?$_Tree_val@U?$_Tree_simple_types@U?$pair@$$CBV?$basic_string@DU?$char_traits@D@std@@V?$allocator@D@2@@std@@G@std@@@std@@@std@@@std@@QEBA_NAEBV01@@Z
	??9?$_Tree_const_iterator@V?$_Tree_val@U?$_Tree_simple_types@U?$pair@$$CBV?$basic_string@DU?$char_traits@D@std@@V?$allocator@D@2@@std@@PEAVLogger@el@@@std@@@std@@@std@@@std@@QEBA_NAEBV01@@Z
	??9?$_Tree_const_iterator@V?$_Tree_val@U?$_Tree_simple_types@U?$pair@$$CBV?$basic_string@DU?$char_traits@D@std@@V?$allocator@D@2@@std@@V12@@std@@@std@@@std@@@std@@QEBA_NAEBV01@@Z
	??9?$_Tree_const_iterator@V?$_Tree_val@U?$_Tree_simple_types@U?$pair@$$CBV?$basic_string@DU?$char_traits@D@std@@V?$allocator@D@2@@std@@V?$shared_ptr@V?$basic_fstream@DU?$char_traits@D@std@@@std@@@2@@std@@@std@@@std@@@std@@QEBA_NAEBV01@@Z
	??9?$_Tree_const_iterator@V?$_Tree_val@U?$_Tree_simple_types@U?$pair@$$CBW4Level@el@@I@std@@@std@@@std@@@std@@QEBA_NAEBV01@@Z
	??9?$_Tree_const_iterator@V?$_Tree_val@U?$_Tree_simple_types@U?$pair@$$CBW4Level@el@@VLogFormat@base@2@@std@@@std@@@std@@@std@@QEBA_NAEBV01@@Z
	??9?$_Tree_const_iterator@V?$_Tree_val@U?$_Tree_simple_types@U?$pair@$$CBW4Level@el@@VSubsecondPrecision@base@2@@std@@@std@@@std@@@std@@QEBA_NAEBV01@@Z
	??9?$_Tree_const_iterator@V?$_Tree_val@U?$_Tree_simple_types@U?$pair@$$CBW4Level@el@@_K@std@@@std@@@std@@@std@@QEBA_NAEBV01@@Z
	??9?$_Tree_const_iterator@V?$_Tree_val@U?$_Tree_simple_types@U?$pair@$$CBW4Level@el@@_N@std@@@std@@@std@@@std@@QEBA_NAEBV01@@Z
	??9?$_Tree_unchecked_const_iterator@V?$_Tree_val@U?$_Tree_simple_types@U?$pair@$$CBV?$basic_string@DU?$char_traits@D@std@@V?$allocator@D@2@@std@@PEAVLogger@el@@@std@@@std@@@std@@U_Iterator_base0@2@@std@@QEBA_NAEBV01@@Z
	??9?$_Tree_unchecked_const_iterator@V?$_Tree_val@U?$_Tree_simple_types@U?$pair@$$CBV?$basic_string@DU?$char_traits@D@std@@V?$allocator@D@2@@std@@PEAVLogger@el@@@std@@@std@@@std@@U_Iterator_base0@2@@std@@QEBA_NU_Default_sentinel@1@@Z
	??9?$_Tree_unchecked_const_iterator@V?$_Tree_val@U?$_Tree_simple_types@U?$pair@$$CBV?$basic_string@DU?$char_traits@D@std@@V?$allocator@D@2@@std@@V?$shared_ptr@VLogDispatchCallback@el@@@2@@std@@@std@@@std@@U_Iterator_base0@2@@std@@QEBA_NU_Default_sentinel@1@@Z
	??9?$_Tree_unchecked_const_iterator@V?$_Tree_val@U?$_Tree_simple_types@U?$pair@$$CBV?$basic_string@DU?$char_traits@D@std@@V?$allocator@D@2@@std@@V?$shared_ptr@VLoggerRegistrationCallback@el@@@2@@std@@@std@@@std@@U_Iterator_base0@2@@std@@QEBA_NU_Default_sentinel@1@@Z
	??9?$_Vector_const_iterator@V?$_Vector_val@U?$_Simple_types@H@std@@@std@@@std@@QEBA_NAEBV01@@Z
	??9?$_Vector_const_iterator@V?$_Vector_val@U?$_Simple_types@PEAVConfiguration@el@@@std@@@std@@@std@@QEBA_NAEBV01@@Z
	??9?$_Vector_const_iterator@V?$_Vector_val@U?$_Simple_types@PEAVHitCounter@base@el@@@std@@@std@@@std@@QEBA_NAEBV01@@Z
	??9?$_Vector_const_iterator@V?$_Vector_val@U?$_Simple_types@V?$basic_string@DU?$char_traits@D@std@@V?$allocator@D@2@@std@@@std@@@std@@@std@@QEBA_NAEBV01@@Z
	??9?$_Vector_const_iterator@V?$_Vector_val@U?$_Simple_types@V?$vector@Unode@DataSet@@V?$allocator@Unode@DataSet@@@std@@@std@@@std@@@std@@@std@@QEBA_NAEBV01@@Z
	??9?$_Vector_const_iterator@V?$_Vector_val@U?$_Simple_types@VCustomFormatSpecifier@el@@@std@@@std@@@std@@QEBA_NAEBV01@@Z
	??A?$basic_string@DU?$char_traits@D@std@@V?$allocator@D@2@@std@@QEAAAEAD_K@Z
	??A?$basic_string@DU?$char_traits@D@std@@V?$allocator@D@2@@std@@QEBAAEBD_K@Z
	??A?$vector@HV?$allocator@H@std@@@std@@QEAAAEAH_K@Z
	??A?$vector@HV?$allocator@H@std@@@std@@QEBAAEBH_K@Z
	??A?$vector@IV?$allocator@I@std@@@std@@QEAAAEAI_K@Z
	??A?$vector@MV?$allocator@M@std@@@std@@QEAAAEAM_K@Z
	??A?$vector@NV?$allocator@N@std@@@std@@QEAAAEAN_K@Z
	??A?$vector@NV?$allocator@N@std@@@std@@QEBAAEBN_K@Z
	??A?$vector@Unode@DataSet@@V?$allocator@Unode@DataSet@@@std@@@std@@QEAAAEAUnode@DataSet@@_K@Z
	??A?$vector@Unode@DataSet@@V?$allocator@Unode@DataSet@@@std@@@std@@QEBAAEBUnode@DataSet@@_K@Z
	??A?$vector@V?$SyncArray@N@@V?$allocator@V?$SyncArray@N@@@std@@@std@@QEAAAEAV?$SyncArray@N@@_K@Z
	??A?$vector@V?$vector@NV?$allocator@N@std@@@std@@V?$allocator@V?$vector@NV?$allocator@N@std@@@std@@@2@@std@@QEAAAEAV?$vector@NV?$allocator@N@std@@@1@_K@Z
	??A?$vector@V?$vector@NV?$allocator@N@std@@@std@@V?$allocator@V?$vector@NV?$allocator@N@std@@@std@@@2@@std@@QEBAAEBV?$vector@NV?$allocator@N@std@@@1@_K@Z
	??A?$vector@V?$vector@Unode@DataSet@@V?$allocator@Unode@DataSet@@@std@@@std@@V?$allocator@V?$vector@Unode@DataSet@@V?$allocator@Unode@DataSet@@@std@@@std@@@2@@std@@QEAAAEAV?$vector@Unode@DataSet@@V?$allocator@Unode@DataSet@@@std@@@1@_K@Z
	??A?$vector@V?$vector@Unode@DataSet@@V?$allocator@Unode@DataSet@@@std@@@std@@V?$allocator@V?$vector@Unode@DataSet@@V?$allocator@Unode@DataSet@@@std@@@std@@@2@@std@@QEBAAEBV?$vector@Unode@DataSet@@V?$allocator@Unode@DataSet@@@std@@@1@_K@Z
	??A?$vector@V?$vector@V?$vector@Unode@DataSet@@V?$allocator@Unode@DataSet@@@std@@@std@@V?$allocator@V?$vector@Unode@DataSet@@V?$allocator@Unode@DataSet@@@std@@@std@@@2@@std@@V?$allocator@V?$vector@V?$vector@Unode@DataSet@@V?$allocator@Unode@DataSet@@@std@@@std@@V?$allocator@V?$vector@Unode@DataSet@@V?$allocator@Unode@DataSet@@@std@@@std@@@2@@std@@@2@@std@@QEAAAEAV?$vector@V?$vector@Unode@DataSet@@V?$allocator@Unode@DataSet@@@std@@@std@@V?$allocator@V?$vector@Unode@DataSet@@V?$allocator@Unode@DataSet@@@std@@@std@@@2@@1@_K@Z
	??A?$vector@_NV?$allocator@_N@std@@@std@@QEAA?AV?$_Vb_reference@U?$_Wrap_alloc@V?$allocator@I@std@@@std@@@1@_K@Z
	??B?$_Vb_reference@U?$_Wrap_alloc@V?$allocator@I@std@@@std@@@std@@QEBA_NXZ
	??B?$cuda_optional@H@core@cuda_cub@thrust@@QEBAAEBHXZ
	??B?$fpos@U_Mbstatet@@@std@@QEBA_JXZ
	??Berror_code@system@thrust@@QEBA_NXZ
	??Bsentry@?$basic_istream@DU?$char_traits@D@std@@@std@@QEBA_NXZ
	??Bsentry@?$basic_ostream@DU?$char_traits@D@std@@@std@@QEBA_NXZ
	??C?$_Tree_const_iterator@V?$_Tree_val@U?$_Tree_simple_types@U?$pair@$$CBV?$basic_string@DU?$char_traits@D@std@@V?$allocator@D@2@@std@@PEAVLogger@el@@@std@@@std@@@std@@@std@@QEBAPEBU?$pair@$$CBV?$basic_string@DU?$char_traits@D@std@@V?$allocator@D@2@@std@@PEAVLogger@el@@@1@XZ
	??C?$_Tree_const_iterator@V?$_Tree_val@U?$_Tree_simple_types@U?$pair@$$CBV?$basic_string@DU?$char_traits@D@std@@V?$allocator@D@2@@std@@V12@@std@@@std@@@std@@@std@@QEBAPEBU?$pair@$$CBV?$basic_string@DU?$char_traits@D@std@@V?$allocator@D@2@@std@@V12@@1@XZ
	??C?$_Tree_const_iterator@V?$_Tree_val@U?$_Tree_simple_types@U?$pair@$$CBW4Level@el@@_K@std@@@std@@@std@@@std@@QEBAPEBU?$pair@$$CBW4Level@el@@_K@1@XZ
	??C?$_Tree_const_iterator@V?$_Tree_val@U?$_Tree_simple_types@U?$pair@$$CBW4Level@el@@_N@std@@@std@@@std@@@std@@QEBAPEBU?$pair@$$CBW4Level@el@@_N@1@XZ
	??C?$_Tree_iterator@V?$_Tree_val@U?$_Tree_simple_types@U?$pair@$$CBV?$basic_string@DU?$char_traits@D@std@@V?$allocator@D@2@@std@@G@std@@@std@@@std@@@std@@QEBAPEAU?$pair@$$CBV?$basic_string@DU?$char_traits@D@std@@V?$allocator@D@2@@std@@G@1@XZ
	??C?$_Tree_iterator@V?$_Tree_val@U?$_Tree_simple_types@U?$pair@$$CBV?$basic_string@DU?$char_traits@D@std@@V?$allocator@D@2@@std@@PEAVLogger@el@@@std@@@std@@@std@@@std@@QEBAPEAU?$pair@$$CBV?$basic_string@DU?$char_traits@D@std@@V?$allocator@D@2@@std@@PEAVLogger@el@@@1@XZ
	??C?$_Tree_iterator@V?$_Tree_val@U?$_Tree_simple_types@U?$pair@$$CBV?$basic_string@DU?$char_traits@D@std@@V?$allocator@D@2@@std@@V?$shared_ptr@V?$basic_fstream@DU?$char_traits@D@std@@@std@@@2@@std@@@std@@@std@@@std@@QEBAPEAU?$pair@$$CBV?$basic_string@DU?$char_traits@D@std@@V?$allocator@D@2@@std@@V?$shared_ptr@V?$basic_fstream@DU?$char_traits@D@std@@@std@@@2@@1@XZ
	??C?$_Tree_iterator@V?$_Tree_val@U?$_Tree_simple_types@U?$pair@$$CBW4Level@el@@I@std@@@std@@@std@@@std@@QEBAPEAU?$pair@$$CBW4Level@el@@I@1@XZ
	??C?$_Tree_iterator@V?$_Tree_val@U?$_Tree_simple_types@U?$pair@$$CBW4Level@el@@V?$basic_string@DU?$char_traits@D@std@@V?$allocator@D@2@@std@@@std@@@std@@@std@@@std@@QEBAPEAU?$pair@$$CBW4Level@el@@V?$basic_string@DU?$char_traits@D@std@@V?$allocator@D@2@@std@@@1@XZ
	??C?$_Tree_iterator@V?$_Tree_val@U?$_Tree_simple_types@U?$pair@$$CBW4Level@el@@V?$shared_ptr@V?$basic_fstream@DU?$char_traits@D@std@@@std@@@std@@@std@@@std@@@std@@@std@@QEBAPEAU?$pair@$$CBW4Level@el@@V?$shared_ptr@V?$basic_fstream@DU?$char_traits@D@std@@@std@@@std@@@1@XZ
	??C?$_Tree_iterator@V?$_Tree_val@U?$_Tree_simple_types@U?$pair@$$CBW4Level@el@@VLogFormat@base@2@@std@@@std@@@std@@@std@@QEBAPEAU?$pair@$$CBW4Level@el@@VLogFormat@base@2@@1@XZ
	??C?$_Tree_iterator@V?$_Tree_val@U?$_Tree_simple_types@U?$pair@$$CBW4Level@el@@VSubsecondPrecision@base@2@@std@@@std@@@std@@@std@@QEBAPEAU?$pair@$$CBW4Level@el@@VSubsecondPrecision@base@2@@1@XZ
	??C?$_Tree_iterator@V?$_Tree_val@U?$_Tree_simple_types@U?$pair@$$CBW4Level@el@@_K@std@@@std@@@std@@@std@@QEBAPEAU?$pair@$$CBW4Level@el@@_K@1@XZ
	??C?$_Tree_iterator@V?$_Tree_val@U?$_Tree_simple_types@U?$pair@$$CBW4Level@el@@_N@std@@@std@@@std@@@std@@QEBAPEAU?$pair@$$CBW4Level@el@@_N@1@XZ
	??C?$_Vector_const_iterator@V?$_Vector_val@U?$_Simple_types@VCustomFormatSpecifier@el@@@std@@@std@@@std@@QEBAPEBVCustomFormatSpecifier@el@@XZ
	??C?$_Vector_iterator@V?$_Vector_val@U?$_Simple_types@VCustomFormatSpecifier@el@@@std@@@std@@@std@@QEBAPEAVCustomFormatSpecifier@el@@XZ
	??D?$_String_const_iterator@V?$_String_val@U?$_Simple_types@D@std@@@std@@@std@@QEBAAEBDXZ
	??D?$_Tree_const_iterator@V?$_Tree_val@U?$_Tree_simple_types@U?$pair@$$CBV?$basic_string@DU?$char_traits@D@std@@V?$allocator@D@2@@std@@G@std@@@std@@@std@@@std@@QEBAAEBU?$pair@$$CBV?$basic_string@DU?$char_traits@D@std@@V?$allocator@D@2@@std@@G@1@XZ
	??D?$_Tree_const_iterator@V?$_Tree_val@U?$_Tree_simple_types@U?$pair@$$CBV?$basic_string@DU?$char_traits@D@std@@V?$allocator@D@2@@std@@PEAVLogger@el@@@std@@@std@@@std@@@std@@QEBAAEBU?$pair@$$CBV?$basic_string@DU?$char_traits@D@std@@V?$allocator@D@2@@std@@PEAVLogger@el@@@1@XZ
	??D?$_Tree_const_iterator@V?$_Tree_val@U?$_Tree_simple_types@U?$pair@$$CBV?$basic_string@DU?$char_traits@D@std@@V?$allocator@D@2@@std@@V12@@std@@@std@@@std@@@std@@QEBAAEBU?$pair@$$CBV?$basic_string@DU?$char_traits@D@std@@V?$allocator@D@2@@std@@V12@@1@XZ
	??D?$_Tree_const_iterator@V?$_Tree_val@U?$_Tree_simple_types@U?$pair@$$CBV?$basic_string@DU?$char_traits@D@std@@V?$allocator@D@2@@std@@V?$shared_ptr@V?$basic_fstream@DU?$char_traits@D@std@@@std@@@2@@std@@@std@@@std@@@std@@QEBAAEBU?$pair@$$CBV?$basic_string@DU?$char_traits@D@std@@V?$allocator@D@2@@std@@V?$shared_ptr@V?$basic_fstream@DU?$char_traits@D@std@@@std@@@2@@1@XZ
	??D?$_Tree_const_iterator@V?$_Tree_val@U?$_Tree_simple_types@U?$pair@$$CBW4Level@el@@I@std@@@std@@@std@@@std@@QEBAAEBU?$pair@$$CBW4Level@el@@I@1@XZ
	??D?$_Tree_const_iterator@V?$_Tree_val@U?$_Tree_simple_types@U?$pair@$$CBW4Level@el@@V?$basic_string@DU?$char_traits@D@std@@V?$allocator@D@2@@std@@@std@@@std@@@std@@@std@@QEBAAEBU?$pair@$$CBW4Level@el@@V?$basic_string@DU?$char_traits@D@std@@V?$allocator@D@2@@std@@@1@XZ
	??D?$_Tree_const_iterator@V?$_Tree_val@U?$_Tree_simple_types@U?$pair@$$CBW4Level@el@@V?$shared_ptr@V?$basic_fstream@DU?$char_traits@D@std@@@std@@@std@@@std@@@std@@@std@@@std@@QEBAAEBU?$pair@$$CBW4Level@el@@V?$shared_ptr@V?$basic_fstream@DU?$char_traits@D@std@@@std@@@std@@@1@XZ
	??D?$_Tree_const_iterator@V?$_Tree_val@U?$_Tree_simple_types@U?$pair@$$CBW4Level@el@@VLogFormat@base@2@@std@@@std@@@std@@@std@@QEBAAEBU?$pair@$$CBW4Level@el@@VLogFormat@base@2@@1@XZ
	??D?$_Tree_const_iterator@V?$_Tree_val@U?$_Tree_simple_types@U?$pair@$$CBW4Level@el@@VSubsecondPrecision@base@2@@std@@@std@@@std@@@std@@QEBAAEBU?$pair@$$CBW4Level@el@@VSubsecondPrecision@base@2@@1@XZ
	??D?$_Tree_const_iterator@V?$_Tree_val@U?$_Tree_simple_types@U?$pair@$$CBW4Level@el@@_K@std@@@std@@@std@@@std@@QEBAAEBU?$pair@$$CBW4Level@el@@_K@1@XZ
	??D?$_Tree_const_iterator@V?$_Tree_val@U?$_Tree_simple_types@U?$pair@$$CBW4Level@el@@_N@std@@@std@@@std@@@std@@QEBAAEBU?$pair@$$CBW4Level@el@@_N@1@XZ
	??D?$_Tree_iterator@V?$_Tree_val@U?$_Tree_simple_types@U?$pair@$$CBV?$basic_string@DU?$char_traits@D@std@@V?$allocator@D@2@@std@@G@std@@@std@@@std@@@std@@QEBAAEAU?$pair@$$CBV?$basic_string@DU?$char_traits@D@std@@V?$allocator@D@2@@std@@G@1@XZ
	??D?$_Tree_iterator@V?$_Tree_val@U?$_Tree_simple_types@U?$pair@$$CBV?$basic_string@DU?$char_traits@D@std@@V?$allocator@D@2@@std@@PEAVLogger@el@@@std@@@std@@@std@@@std@@QEBAAEAU?$pair@$$CBV?$basic_string@DU?$char_traits@D@std@@V?$allocator@D@2@@std@@PEAVLogger@el@@@1@XZ
	??D?$_Tree_iterator@V?$_Tree_val@U?$_Tree_simple_types@U?$pair@$$CBV?$basic_string@DU?$char_traits@D@std@@V?$allocator@D@2@@std@@V?$shared_ptr@V?$basic_fstream@DU?$char_traits@D@std@@@std@@@2@@std@@@std@@@std@@@std@@QEBAAEAU?$pair@$$CBV?$basic_string@DU?$char_traits@D@std@@V?$allocator@D@2@@std@@V?$shared_ptr@V?$basic_fstream@DU?$char_traits@D@std@@@std@@@2@@1@XZ
	??D?$_Tree_iterator@V?$_Tree_val@U?$_Tree_simple_types@U?$pair@$$CBW4Level@el@@I@std@@@std@@@std@@@std@@QEBAAEAU?$pair@$$CBW4Level@el@@I@1@XZ
	??D?$_Tree_iterator@V?$_Tree_val@U?$_Tree_simple_types@U?$pair@$$CBW4Level@el@@V?$basic_string@DU?$char_traits@D@std@@V?$allocator@D@2@@std@@@std@@@std@@@std@@@std@@QEBAAEAU?$pair@$$CBW4Level@el@@V?$basic_string@DU?$char_traits@D@std@@V?$allocator@D@2@@std@@@1@XZ
	??D?$_Tree_iterator@V?$_Tree_val@U?$_Tree_simple_types@U?$pair@$$CBW4Level@el@@V?$shared_ptr@V?$basic_fstream@DU?$char_traits@D@std@@@std@@@std@@@std@@@std@@@std@@@std@@QEBAAEAU?$pair@$$CBW4Level@el@@V?$shared_ptr@V?$basic_fstream@DU?$char_traits@D@std@@@std@@@std@@@1@XZ
	??D?$_Tree_iterator@V?$_Tree_val@U?$_Tree_simple_types@U?$pair@$$CBW4Level@el@@VLogFormat@base@2@@std@@@std@@@std@@@std@@QEBAAEAU?$pair@$$CBW4Level@el@@VLogFormat@base@2@@1@XZ
	??D?$_Tree_iterator@V?$_Tree_val@U?$_Tree_simple_types@U?$pair@$$CBW4Level@el@@VSubsecondPrecision@base@2@@std@@@std@@@std@@@std@@QEBAAEAU?$pair@$$CBW4Level@el@@VSubsecondPrecision@base@2@@1@XZ
	??D?$_Tree_iterator@V?$_Tree_val@U?$_Tree_simple_types@U?$pair@$$CBW4Level@el@@_K@std@@@std@@@std@@@std@@QEBAAEAU?$pair@$$CBW4Level@el@@_K@1@XZ
	??D?$_Tree_iterator@V?$_Tree_val@U?$_Tree_simple_types@U?$pair@$$CBW4Level@el@@_N@std@@@std@@@std@@@std@@QEBAAEAU?$pair@$$CBW4Level@el@@_N@1@XZ
	??D?$_Tree_unchecked_const_iterator@V?$_Tree_val@U?$_Tree_simple_types@U?$pair@$$CBV?$basic_string@DU?$char_traits@D@std@@V?$allocator@D@2@@std@@PEAVLogger@el@@@std@@@std@@@std@@U_Iterator_base0@2@@std@@QEBAAEBU?$pair@$$CBV?$basic_string@DU?$char_traits@D@std@@V?$allocator@D@2@@std@@PEAVLogger@el@@@1@XZ
	??D?$_Tree_unchecked_const_iterator@V?$_Tree_val@U?$_Tree_simple_types@U?$pair@$$CBV?$basic_string@DU?$char_traits@D@std@@V?$allocator@D@2@@std@@V?$shared_ptr@VLogDispatchCallback@el@@@2@@std@@@std@@@std@@U_Iterator_base0@2@@std@@QEBAAEBU?$pair@$$CBV?$basic_string@DU?$char_traits@D@std@@V?$allocator@D@2@@std@@V?$shared_ptr@VLogDispatchCallback@el@@@2@@1@XZ
	??D?$_Tree_unchecked_const_iterator@V?$_Tree_val@U?$_Tree_simple_types@U?$pair@$$CBV?$basic_string@DU?$char_traits@D@std@@V?$allocator@D@2@@std@@V?$shared_ptr@VLoggerRegistrationCallback@el@@@2@@std@@@std@@@std@@U_Iterator_base0@2@@std@@QEBAAEBU?$pair@$$CBV?$basic_string@DU?$char_traits@D@std@@V?$allocator@D@2@@std@@V?$shared_ptr@VLoggerRegistrationCallback@el@@@2@@1@XZ
	??D?$_Tree_unchecked_iterator@V?$_Tree_val@U?$_Tree_simple_types@U?$pair@$$CBV?$basic_string@DU?$char_traits@D@std@@V?$allocator@D@2@@std@@PEAVLogger@el@@@std@@@std@@@std@@@std@@QEBAAEAU?$pair@$$CBV?$basic_string@DU?$char_traits@D@std@@V?$allocator@D@2@@std@@PEAVLogger@el@@@1@XZ
	??D?$_Tree_unchecked_iterator@V?$_Tree_val@U?$_Tree_simple_types@U?$pair@$$CBV?$basic_string@DU?$char_traits@D@std@@V?$allocator@D@2@@std@@V?$shared_ptr@VLogDispatchCallback@el@@@2@@std@@@std@@@std@@@std@@QEBAAEAU?$pair@$$CBV?$basic_string@DU?$char_traits@D@std@@V?$allocator@D@2@@std@@V?$shared_ptr@VLogDispatchCallback@el@@@2@@1@XZ
	??D?$_Tree_unchecked_iterator@V?$_Tree_val@U?$_Tree_simple_types@U?$pair@$$CBV?$basic_string@DU?$char_traits@D@std@@V?$allocator@D@2@@std@@V?$shared_ptr@VLoggerRegistrationCallback@el@@@2@@std@@@std@@@std@@@std@@QEBAAEAU?$pair@$$CBV?$basic_string@DU?$char_traits@D@std@@V?$allocator@D@2@@std@@V?$shared_ptr@VLoggerRegistrationCallback@el@@@2@@1@XZ
	??D?$_Vb_iterator@U?$_Wrap_alloc@V?$allocator@I@std@@@std@@@std@@QEBA?AV?$_Vb_reference@U?$_Wrap_alloc@V?$allocator@I@std@@@std@@@1@XZ
	??D?$_Vector_const_iterator@V?$_Vector_val@U?$_Simple_types@PEAVConfiguration@el@@@std@@@std@@@std@@QEBAAEBQEAVConfiguration@el@@XZ
	??D?$_Vector_const_iterator@V?$_Vector_val@U?$_Simple_types@PEAVHitCounter@base@el@@@std@@@std@@@std@@QEBAAEBQEAVHitCounter@base@el@@XZ
	??D?$_Vector_iterator@V?$_Vector_val@U?$_Simple_types@PEAVConfiguration@el@@@std@@@std@@@std@@QEBAAEAPEAVConfiguration@el@@XZ
	??D?$_Vector_iterator@V?$_Vector_val@U?$_Simple_types@PEAVHitCounter@base@el@@@std@@@std@@@std@@QEBAAEAPEAVHitCounter@base@el@@XZ
	??D?$iterator_facade@V?$normal_iterator@V?$pointer@EUpar_t@cuda_cub@thrust@@Uuse_default@3@U43@@thrust@@@detail@thrust@@EUpar_t@cuda_cub@3@Urandom_access_traversal_tag@3@V?$reference@EV?$pointer@EUpar_t@cuda_cub@thrust@@Uuse_default@3@U43@@thrust@@Uuse_default@2@@3@_J@thrust@@QEBA?AV?$reference@EV?$pointer@EUpar_t@cuda_cub@thrust@@Uuse_default@3@U43@@thrust@@Uuse_default@2@@1@XZ
